ffffff0000000000 A KERNEL_BEGIN
ffffff0000386530 d _DYNAMIC
ffffff0000226ab0 t _ZN100_$LT$alloc..collections..btree..map..BTreeMap$LT$K$C$$u20$V$GT$$u20$as$u20$core..ops..drop..Drop$GT$4drop17h1a89dc5cc86d11d6E
ffffff0000226eb0 t _ZN100_$LT$alloc..collections..btree..map..BTreeMap$LT$K$C$$u20$V$GT$$u20$as$u20$core..ops..drop..Drop$GT$4drop17h30f9109ef40370c1E
ffffff0000227090 t _ZN100_$LT$alloc..collections..btree..map..BTreeMap$LT$K$C$$u20$V$GT$$u20$as$u20$core..ops..drop..Drop$GT$4drop17h408b4357eb2b63bbE
ffffff0000227270 t _ZN100_$LT$alloc..collections..btree..map..BTreeMap$LT$K$C$$u20$V$GT$$u20$as$u20$core..ops..drop..Drop$GT$4drop17h5d3176be3abc6afeE
ffffff0000227400 t _ZN100_$LT$alloc..collections..btree..map..BTreeMap$LT$K$C$$u20$V$GT$$u20$as$u20$core..ops..drop..Drop$GT$4drop17h766d02512d65ccc2E
ffffff0000227630 t _ZN100_$LT$alloc..collections..btree..map..BTreeMap$LT$K$C$$u20$V$GT$$u20$as$u20$core..ops..drop..Drop$GT$4drop17h9b99c0283a37083cE
ffffff00002277e0 t _ZN100_$LT$alloc..collections..btree..map..BTreeMap$LT$K$C$$u20$V$GT$$u20$as$u20$core..ops..drop..Drop$GT$4drop17haa7a957b0c812caeE
ffffff0000227a00 t _ZN100_$LT$alloc..collections..btree..map..BTreeMap$LT$K$C$$u20$V$GT$$u20$as$u20$core..ops..drop..Drop$GT$4drop17hada6986146cdafa1E
ffffff000033b080 t _ZN100_$LT$alloc..collections..btree..map..BTreeMap$LT$K$C$$u20$V$GT$$u20$as$u20$core..ops..drop..Drop$GT$4drop17hb62be89261c54447E
ffffff0000227be0 t _ZN100_$LT$alloc..collections..btree..map..BTreeMap$LT$K$C$$u20$V$GT$$u20$as$u20$core..ops..drop..Drop$GT$4drop17hb8c5cb21d9cb72a7E
ffffff0000227dc0 t _ZN100_$LT$alloc..collections..btree..map..BTreeMap$LT$K$C$$u20$V$GT$$u20$as$u20$core..ops..drop..Drop$GT$4drop17hc640db2da3e010f1E
ffffff0000228010 t _ZN100_$LT$alloc..collections..btree..map..BTreeMap$LT$K$C$$u20$V$GT$$u20$as$u20$core..ops..drop..Drop$GT$4drop17hcbfe5acb989a38d7E
ffffff00002281c0 t _ZN100_$LT$alloc..collections..btree..map..BTreeMap$LT$K$C$$u20$V$GT$$u20$as$u20$core..ops..drop..Drop$GT$4drop17hd3868aec43b22a5bE
ffffff00002283a0 t _ZN100_$LT$alloc..collections..btree..map..BTreeMap$LT$K$C$$u20$V$GT$$u20$as$u20$core..ops..drop..Drop$GT$4drop17hd5c5fb3c1d237559E
ffffff0000228530 t _ZN100_$LT$alloc..collections..btree..map..BTreeMap$LT$K$C$$u20$V$GT$$u20$as$u20$core..ops..drop..Drop$GT$4drop17heffff35469cf0d07E
ffffff000034e780 T _ZN100_$LT$core..ascii..EscapeDefault$u20$as$u20$core..iter..traits..double_ended..DoubleEndedIterator$GT$9next_back17hc34e56772ddc2aacE
ffffff0000261c40 T _ZN100_$LT$rcore..drivers..gpu..virtio_gpu..VirtIOGpuResourceAttachBacking$u20$as$u20$core..fmt..Debug$GT$3fmt17hec0b9b1a9e30bf52E
ffffff0000291a80 t _ZN100_$LT$rcore_memory..memory_set..handler..file..File$LT$F$C$$u20$T$GT$$u20$as$u20$core..fmt..Debug$GT$3fmt17h7062106c900f9bbeE
ffffff00002835a0 t _ZN100_$LT$smoltcp..wire..ethernet..Frame$LT$T$GT$$u20$as$u20$smoltcp..wire..pretty_print..PrettyPrint$GT$12pretty_print17h233b43df83f1bd5cE
ffffff000035f750 t _ZN101_$LT$core..str..pattern..CharPredicateSearcher$LT$$u27$_$C$$u20$F$GT$$u20$as$u20$core..fmt..Debug$GT$3fmt17h1e8bb39fea3254c6E
ffffff00002971f0 T _ZN101_$LT$rcore..drivers..net..virtio_net..VirtIONetworkInterruptStatus$u20$as$u20$core..fmt..LowerHex$GT$3fmt17h5216cc0eeb433b1eE
ffffff0000297200 T _ZN101_$LT$rcore..drivers..net..virtio_net..VirtIONetworkInterruptStatus$u20$as$u20$core..fmt..UpperHex$GT$3fmt17haaa6ac61ec95357cE
ffffff0000295750 T _ZN101_$LT$rcore..memory..GlobalFrameAlloc$u20$as$u20$rcore_memory..memory_set..handler..FrameAllocator$GT$5alloc17hb9de9cc18767e069E
ffffff0000295900 T _ZN101_$LT$rcore..memory..GlobalFrameAlloc$u20$as$u20$rcore_memory..memory_set..handler..FrameAllocator$GT$7dealloc17hb3f75320014b7596E
ffffff000026a6f0 T _ZN101_$LT$rcore..rcore_fs_sfs..structs..Str32$u20$as$u20$core..convert..From$LT$$RF$$u27$a$u20$str$GT$$GT$4from17h85b59bf1a3767295E
ffffff000037dd80 D _ZN101_$LT$smoltcp..iface..ethernet..Interface$LT$$u27$b$C$$u20$$u27$c$C$$u20$$u27$e$C$$u20$DeviceT$GT$$GT$13socket_egress4_LOC17h83eddf01989a61e3E
ffffff000037dd58 D _ZN101_$LT$smoltcp..iface..ethernet..Interface$LT$$u27$b$C$$u20$$u27$c$C$$u20$$u27$e$C$$u20$DeviceT$GT$$GT$14socket_ingress28_$u7b$$u7b$closure$u7d$$u7d$28_$u7b$$u7b$closure$u7d$$u7d$28_$u7b$$u7b$closure$u7d$$u7d$4_LOC17h7ae854892303c1c5E
ffffff000037dd30 D _ZN101_$LT$smoltcp..iface..ethernet..Interface$LT$$u27$b$C$$u20$$u27$c$C$$u20$$u27$e$C$$u20$DeviceT$GT$$GT$14socket_ingress28_$u7b$$u7b$closure$u7d$$u7d$28_$u7b$$u7b$closure$u7d$$u7d$4_LOC17h2c52fc5af283737cE
ffffff000037dd08 D _ZN101_$LT$smoltcp..iface..ethernet..Interface$LT$$u27$b$C$$u20$$u27$c$C$$u20$$u27$e$C$$u20$DeviceT$GT$$GT$14socket_ingress28_$u7b$$u7b$closure$u7d$$u7d$28_$u7b$$u7b$closure$u7d$$u7d$4_LOC17h4667ad2c1ae950c1E
ffffff0000232380 t _ZN101_$LT$smoltcp..iface..ethernet..Interface$LT$$u27$b$C$$u20$$u27$c$C$$u20$$u27$e$C$$u20$DeviceT$GT$$GT$4poll17h29d32c90c998ca73E
ffffff0000233370 t _ZN101_$LT$smoltcp..iface..ethernet..Interface$LT$$u27$b$C$$u20$$u27$c$C$$u20$$u27$e$C$$u20$DeviceT$GT$$GT$4poll17hffa8367ac3686400E
ffffff0000334230 T _ZN101_$LT$smoltcp..time..Instant$u20$as$u20$core..ops..arith..AddAssign$LT$smoltcp..time..Duration$GT$$GT$10add_assign17hd13de89838a4dad2E
ffffff0000334250 T _ZN101_$LT$smoltcp..time..Instant$u20$as$u20$core..ops..arith..SubAssign$LT$smoltcp..time..Duration$GT$$GT$10sub_assign17ha3566c887f087929E
ffffff00002837a0 t _ZN102_$LT$core..iter..adapters..Map$LT$I$C$$u20$F$GT$$u20$as$u20$core..iter..traits..iterator..Iterator$GT$4fold17h210853e21d1c5bf6E
ffffff00002839a0 t _ZN102_$LT$core..iter..adapters..Map$LT$I$C$$u20$F$GT$$u20$as$u20$core..iter..traits..iterator..Iterator$GT$4fold17ha9de7cb23c6ec464E
ffffff00002627e0 t _ZN102_$LT$core..iter..adapters..Map$LT$I$C$$u20$F$GT$$u20$as$u20$core..iter..traits..iterator..Iterator$GT$4next17h3c903fccce28c7e0E.llvm.5272369308457836274
ffffff0000366780 t _ZN102_$LT$core..iter..adapters..Map$LT$I$C$$u20$F$GT$$u20$as$u20$core..iter..traits..iterator..Iterator$GT$8try_fold17h1b29c2aa424b3a59E
ffffff0000332c10 t _ZN102_$LT$core..iter..adapters..Map$LT$I$C$$u20$F$GT$$u20$as$u20$core..iter..traits..iterator..Iterator$GT$8try_fold17h505b72ceb1d6f55cE
ffffff0000283b30 t _ZN102_$LT$core..iter..adapters..Map$LT$I$C$$u20$F$GT$$u20$as$u20$core..iter..traits..iterator..Iterator$GT$8try_fold17h7bcbd3a940dc80beE
ffffff0000366b30 t _ZN102_$LT$core..iter..adapters..Map$LT$I$C$$u20$F$GT$$u20$as$u20$core..iter..traits..iterator..Iterator$GT$8try_fold17ha54e95c2716af4bdE
ffffff0000366e00 t _ZN102_$LT$core..iter..adapters..Map$LT$I$C$$u20$F$GT$$u20$as$u20$core..iter..traits..iterator..Iterator$GT$8try_fold17ha79b2be57c13cdaaE
ffffff0000283ca0 t _ZN102_$LT$core..iter..adapters..Map$LT$I$C$$u20$F$GT$$u20$as$u20$core..iter..traits..iterator..Iterator$GT$8try_fold17had6bc5b8c17a24b9E
ffffff0000360ec0 T _ZN102_$LT$core..str..pattern..CharSliceSearcher$LT$$u27$a$C$$u20$$u27$b$GT$$u20$as$u20$core..fmt..Debug$GT$3fmt17h6f20267658a4f667E
ffffff0000240cd0 T _ZN102_$LT$rcore..process..structs..INodeForMap$u20$as$u20$rcore_memory..memory_set..handler..file..Read$GT$7read_at17hb01a6b04a89c7787E
ffffff000026a670 T _ZN102_$LT$rcore..rcore_fs_sfs..structs..Str256$u20$as$u20$core..convert..From$LT$$RF$$u27$a$u20$str$GT$$GT$4from17h0ec3fae67da50f90E
ffffff0000247610 T _ZN102_$LT$rcore..syscall..fs..Stat$u20$as$u20$core..convert..From$LT$rcore..rcore_fs..vfs..Metadata$GT$$GT$4from17h706b8614a4aa18c4E
ffffff0000338910 T _ZN102_$LT$smoltcp..socket..Socket$LT$$u27$a$C$$u20$$u27$b$GT$$u20$as$u20$smoltcp..socket..ref_..Session$GT$6finish17h333714c0738cfd8bE
ffffff000032c6a0 T _ZN102_$LT$smoltcp..wire..ip..Address$u20$as$u20$core..convert..From$LT$smoltcp..wire..ipv4..Address$GT$$GT$4from17he84bb70346efd5cdE
ffffff00002c6740 T _ZN102_$LT$x86_64..structures..paging..page..PageRange$LT$x86_64..structures..paging..page..Size2MiB$GT$$GT$18as_4kib_page_range17hbaf747dd1c4ddb9cE
ffffff0000322640 T _ZN103_$LT$device_tree..PropError$u20$as$u20$core..convert..From$LT$device_tree..util..SliceReadError$GT$$GT$4from17hf58aee71f4ce4339E
ffffff0000294d70 T _ZN103_$LT$rcore..drivers..net..virtio_net..VirtIONetDriver$u20$as$u20$smoltcp..phy..Device$LT$$u27$a$GT$$GT$12capabilities17h1801a322937d4f3fE
ffffff0000294ca0 T _ZN103_$LT$rcore..drivers..net..virtio_net..VirtIONetDriver$u20$as$u20$smoltcp..phy..Device$LT$$u27$a$GT$$GT$7receive17hf77337cd56c8aaf0E
ffffff0000294d10 T _ZN103_$LT$rcore..drivers..net..virtio_net..VirtIONetDriver$u20$as$u20$smoltcp..phy..Device$LT$$u27$a$GT$$GT$8transmit17h1f782cd40d610787E
ffffff000037db18 D _ZN103_$LT$smoltcp..phy..fault_injector..RxToken$LT$$u27$a$C$$u20$Rx$GT$$u20$as$u20$smoltcp..phy..RxToken$GT$7consume28_$u7b$$u7b$closure$u7d$$u7d$4_LOC17h076dfd6047fa08abE
ffffff000037db40 D _ZN103_$LT$smoltcp..phy..fault_injector..RxToken$LT$$u27$a$C$$u20$Rx$GT$$u20$as$u20$smoltcp..phy..RxToken$GT$7consume28_$u7b$$u7b$closure$u7d$$u7d$4_LOC17h9493632d4a21a54cE
ffffff000037daf0 D _ZN103_$LT$smoltcp..phy..fault_injector..RxToken$LT$$u27$a$C$$u20$Rx$GT$$u20$as$u20$smoltcp..phy..RxToken$GT$7consume4_LOC17h3be16e0e0ef5aef4E
ffffff000037dac8 D _ZN103_$LT$smoltcp..phy..fault_injector..RxToken$LT$$u27$a$C$$u20$Rx$GT$$u20$as$u20$smoltcp..phy..RxToken$GT$7consume4_LOC17h72f4af738c1bf11cE
ffffff000037dbe0 D _ZN103_$LT$smoltcp..phy..fault_injector..TxToken$LT$$u27$a$C$$u20$Tx$GT$$u20$as$u20$smoltcp..phy..TxToken$GT$7consume28_$u7b$$u7b$closure$u7d$$u7d$4_LOC17h87c7043d90f75cedE
ffffff000037db90 D _ZN103_$LT$smoltcp..phy..fault_injector..TxToken$LT$$u27$a$C$$u20$Tx$GT$$u20$as$u20$smoltcp..phy..TxToken$GT$7consume4_LOC17h1c26e5f1eb7ebe45E
ffffff000037dbb8 D _ZN103_$LT$smoltcp..phy..fault_injector..TxToken$LT$$u27$a$C$$u20$Tx$GT$$u20$as$u20$smoltcp..phy..TxToken$GT$7consume4_LOC17h3a5b3474fe059ab7E
ffffff000037db68 D _ZN103_$LT$smoltcp..phy..fault_injector..TxToken$LT$$u27$a$C$$u20$Tx$GT$$u20$as$u20$smoltcp..phy..TxToken$GT$7consume4_LOC17he9aef144ab8f73d9E
ffffff00003662e0 t _ZN104_$LT$core..iter..adapters..flatten..FlatMap$LT$I$C$$u20$U$C$$u20$F$GT$$u20$as$u20$core..clone..Clone$GT$5clone17h1cb566f45d441801E
ffffff00003662e0 t _ZN104_$LT$core..iter..adapters..flatten..FlatMap$LT$I$C$$u20$U$C$$u20$F$GT$$u20$as$u20$core..clone..Clone$GT$5clone17h836358b25dd570d6E
ffffff000024fd50 T _ZN104_$LT$rcore..lkm..ffi..file_operations..FileOperationsFFI$u20$as$u20$rcore..lkm..cdev..FileOperations$GT$10io_control17h8ef752de6a0afbd5E
ffffff000024fd30 T _ZN104_$LT$rcore..lkm..ffi..file_operations..FileOperationsFFI$u20$as$u20$rcore..lkm..cdev..FileOperations$GT$10read_entry17h85e55ac473c89fbbE
ffffff000024fac0 T _ZN104_$LT$rcore..lkm..ffi..file_operations..FileOperationsFFI$u20$as$u20$rcore..lkm..cdev..FileOperations$GT$4open17h13c78a028ff513d0E
ffffff000024fd40 T _ZN104_$LT$rcore..lkm..ffi..file_operations..FileOperationsFFI$u20$as$u20$rcore..lkm..cdev..FileOperations$GT$4poll17hd327c241f03e1d5fE
ffffff000024fad0 T _ZN104_$LT$rcore..lkm..ffi..file_operations..FileOperationsFFI$u20$as$u20$rcore..lkm..cdev..FileOperations$GT$4read17hcec4f734df42d022E
ffffff000024fc10 T _ZN104_$LT$rcore..lkm..ffi..file_operations..FileOperationsFFI$u20$as$u20$rcore..lkm..cdev..FileOperations$GT$4seek17h6c8594537831e18fE
ffffff000024fd80 T _ZN104_$LT$rcore..lkm..ffi..file_operations..FileOperationsFFI$u20$as$u20$rcore..lkm..cdev..FileOperations$GT$5close17h053bd5ee30c29013E
ffffff000024fb70 T _ZN104_$LT$rcore..lkm..ffi..file_operations..FileOperationsFFI$u20$as$u20$rcore..lkm..cdev..FileOperations$GT$5write17h03b489d98d35b43fE
ffffff000024fb20 T _ZN104_$LT$rcore..lkm..ffi..file_operations..FileOperationsFFI$u20$as$u20$rcore..lkm..cdev..FileOperations$GT$7read_at17h9cb69de5e088fd3aE
ffffff000024fc70 T _ZN104_$LT$rcore..lkm..ffi..file_operations..FileOperationsFFI$u20$as$u20$rcore..lkm..cdev..FileOperations$GT$7set_len17h9970606b39a3600fE
ffffff000024fd00 T _ZN104_$LT$rcore..lkm..ffi..file_operations..FileOperationsFFI$u20$as$u20$rcore..lkm..cdev..FileOperations$GT$8metadata17h5e12651e8c73e850E
ffffff000024fca0 T _ZN104_$LT$rcore..lkm..ffi..file_operations..FileOperationsFFI$u20$as$u20$rcore..lkm..cdev..FileOperations$GT$8sync_all17hf4bf1120cb9f2073E
ffffff000024fbc0 T _ZN104_$LT$rcore..lkm..ffi..file_operations..FileOperationsFFI$u20$as$u20$rcore..lkm..cdev..FileOperations$GT$8write_at17hdd7935f3d290b5bfE
ffffff000024fcd0 T _ZN104_$LT$rcore..lkm..ffi..file_operations..FileOperationsFFI$u20$as$u20$rcore..lkm..cdev..FileOperations$GT$9sync_data17h8b8d037ab79aa257E
ffffff000033af40 T _ZN104_$LT$smoltcp..socket..set..Set$LT$$u27$a$C$$u20$$u27$b$C$$u20$$u27$c$GT$$u20$as$u20$core..fmt..Debug$GT$3fmt17h990013c72939b9ecE
ffffff00002a9870 t _ZN104_$LT$smoltcp..wire..pretty_print..PrettyPrinter$LT$$u27$a$C$$u20$T$GT$$u20$as$u20$core..fmt..Display$GT$3fmt17h08e633b8b723c3dfE
ffffff00002a98c0 t _ZN105_$LT$bitvec..vec..BitVec$LT$C$C$$u20$T$GT$$u20$as$u20$core..iter..traits..collect..Extend$LT$bool$GT$$GT$6extend17h988c563ae33cdf99E
ffffff000024ac80 t _ZN105_$LT$isomorphic_drivers..net..ethernet..intel..ixgbe..IXGBE$LT$P$GT$$u20$as$u20$core..ops..drop..Drop$GT$4drop17h4bfb9e36bfae0a43E
ffffff00002558c0 T _ZN106_$LT$rcore..syscall..net..SockAddr$u20$as$u20$core..convert..From$LT$rcore..net..structs..Endpoint$GT$$GT$4from17h6a7e46f2bbb1c977E
ffffff00002c7810 T _ZN106_$LT$x86_64..structures..idt..InterruptDescriptorTable$u20$as$u20$core..ops..index..Index$LT$usize$GT$$GT$5index17h59159a8d2deb7aecE
ffffff00002c4370 T _ZN106_$LT$x86_64..structures..paging..page_table..PageTable$u20$as$u20$core..ops..index..Index$LT$usize$GT$$GT$5index17h6763bdca36f606b0E
ffffff0000352570 t _ZN107_$LT$core..slice..Iter$LT$$u27$a$C$$u20$T$GT$$u20$as$u20$core..iter..adapters..zip..TrustedRandomAccess$GT$20may_have_side_effect17h4ed6fffeca614663E
ffffff0000352570 t _ZN107_$LT$core..slice..Iter$LT$$u27$a$C$$u20$T$GT$$u20$as$u20$core..iter..adapters..zip..TrustedRandomAccess$GT$20may_have_side_effect17h586e44d3161ad7afE
ffffff00002c43d0 T _ZN107_$LT$x86_64..structures..paging..page_table..PageTable$u20$as$u20$core..ops..index..Index$LT$ux..u9$GT$$GT$5index17h7929658ddf66adccE
ffffff00002628b0 t _ZN108_$LT$core..iter..adapters..FilterMap$LT$I$C$$u20$F$GT$$u20$as$u20$core..iter..traits..iterator..Iterator$GT$4next17h1d807b9c0afe01d3E.llvm.5272369308457836274
ffffff0000320630 T _ZN108_$LT$device_tree..DeviceTreeError$u20$as$u20$core..convert..From$LT$device_tree..util..VecWriteError$GT$$GT$4from17h1858821969a635eaE
ffffff000025ced0 T _ZN109_$LT$$LP$dyn$u20$rcore..rcore_fs..vfs..INode$u20$$u2b$$u20$$u27$static$RP$$u20$as$u20$rcore..fs..INodeExt$GT$11read_as_vec17h2b15dd5d0110a3e0E
ffffff0000320620 T _ZN109_$LT$device_tree..DeviceTreeError$u20$as$u20$core..convert..From$LT$device_tree..util..SliceReadError$GT$$GT$4from17hf7ebd7b9322f23e3E
ffffff00002c7a20 T _ZN109_$LT$x86_64..structures..idt..InterruptDescriptorTable$u20$as$u20$core..ops..index..IndexMut$LT$usize$GT$$GT$9index_mut17he54c59f369565d3dE
ffffff00002c43a0 T _ZN109_$LT$x86_64..structures..paging..page_table..PageTable$u20$as$u20$core..ops..index..IndexMut$LT$usize$GT$$GT$9index_mut17h20945a5d56931922E
ffffff00002b7200 T _ZN10bootloader8bootinfo10memory_map10FrameRange10start_addr17h26fdee7cf4b9bff1E
ffffff00002b71d0 T _ZN10bootloader8bootinfo10memory_map10FrameRange3new17h6e9301ab8de2d3e9E
ffffff00002b7210 T _ZN10bootloader8bootinfo10memory_map10FrameRange8end_addr17haaec548596d78a0aE
ffffff00002b71f0 T _ZN10bootloader8bootinfo10memory_map10FrameRange8is_empty17h2d957484e93c562cE
ffffff00002b71b0 T _ZN10bootloader8bootinfo10memory_map12MemoryRegion5empty17h49ea2672e6763562E
ffffff00002b6e60 T _ZN10bootloader8bootinfo10memory_map9MemoryMap10add_region17hca66f4bb7f616e1bE
ffffff00002b5cc0 T _ZN10bootloader8bootinfo10memory_map9MemoryMap3new17hf3c8e2992dc9bd61E
ffffff00002b6fb0 T _ZN10bootloader8bootinfo10memory_map9MemoryMap4sort17h831a518f281d9d75E
ffffff00002b76f0 T _ZN10bootloader8bootinfo8BootInfo3new17h60c8431d6b9c0e58E
ffffff00002b3860 T _ZN10uart_1655010SerialPort3new17h0bb34f9cdf9ee84eE
ffffff00002b38a0 T _ZN10uart_1655010SerialPort4init17h5e19368015bf8c0eE
ffffff00002b38e0 T _ZN10uart_1655010SerialPort4send17h85f16b608085c96cE
ffffff00002c17a0 T _ZN110_$LT$$LP$dyn$u20$xmas_elf..symbol_table..Entry$u20$$u2b$$u20$$u27$static$RP$$u20$as$u20$core..fmt..Display$GT$3fmt17h1ef48d6d844b54bfE
ffffff0000352570 t _ZN110_$LT$core..slice..IterMut$LT$$u27$a$C$$u20$T$GT$$u20$as$u20$core..iter..adapters..zip..TrustedRandomAccess$GT$20may_have_side_effect17h72e4781a7280f981E
ffffff0000352570 t _ZN110_$LT$core..slice..IterMut$LT$$u27$a$C$$u20$T$GT$$u20$as$u20$core..iter..adapters..zip..TrustedRandomAccess$GT$20may_have_side_effect17hb6862cedbe582584E
ffffff0000363b40 T _ZN110_$LT$core..str..lossy..Utf8LossyChunksIter$LT$$u27$a$GT$$u20$as$u20$core..iter..traits..iterator..Iterator$GT$4next17he9e2eea27dd362e6E
ffffff00002c6ea0 T _ZN110_$LT$x86_64..structures..paging..mapper..mapped_page_table..PageTableWalkError$u20$as$u20$core..fmt..Debug$GT$3fmt17hb6532b142a2445bdE
ffffff00002c4410 T _ZN110_$LT$x86_64..structures..paging..page_table..PageTable$u20$as$u20$core..ops..index..IndexMut$LT$ux..u9$GT$$GT$9index_mut17h373d9137698ad019E
ffffff000034e950 t _ZN111_$LT$core..iter..adapters..chain..Chain$LT$A$C$$u20$B$GT$$u20$as$u20$core..iter..traits..iterator..Iterator$GT$8try_fold17h3e05ddd157b1d56aE
ffffff0000348cd0 T _ZN112_$LT$alloc..string..String$u20$as$u20$core..convert..From$LT$alloc..borrow..Cow$LT$$u27$a$C$$u20$str$GT$$GT$$GT$4from17h50b54d96cb63c99bE
ffffff00002c6ef0 T _ZN112_$LT$x86_64..structures..paging..mapper..mapped_page_table..PageTableCreateError$u20$as$u20$core..fmt..Debug$GT$3fmt17h510eb61cdf958486E
ffffff000025cfc0 T _ZN113_$LT$rcore..rcore_fs..vfs..FsInfo$u20$as$u20$rcore..lkm..ffi..PrimitiveCast$LT$rcore..lkm..ffi..FsInfoFFI$GT$$GT$11toPrimitive17hde04adcdce49973aE
ffffff000025cfc0 T _ZN113_$LT$rcore..rcore_fs..vfs..FsInfo$u20$as$u20$rcore..lkm..ffi..PrimitiveCast$LT$rcore..lkm..ffi..FsInfoFFI$GT$$GT$13fromPrimitive17h33543804bd8abc8bE
ffffff000033f690 T _ZN115_$LT$smoltcp..storage..assembler..AssemblerIter$LT$$u27$a$GT$$u20$as$u20$core..iter..traits..iterator..Iterator$GT$4next17h273b42ae74fe948fE
ffffff00003458f0 t _ZN117_$LT$alloc..collections..vec_deque..Iter$LT$$u27$a$C$$u20$T$GT$$u20$as$u20$core..iter..traits..iterator..Iterator$GT$8try_fold17h60800ac0a38c6d46E
ffffff000025d230 T _ZN117_$LT$rcore..rcore_fs..vfs..Metadata$u20$as$u20$rcore..lkm..ffi..PrimitiveCast$LT$rcore..lkm..ffi..MetadataFFI$GT$$GT$11toPrimitive17h2aa049bdecd797a3E
ffffff000025d040 T _ZN117_$LT$rcore..rcore_fs..vfs..Metadata$u20$as$u20$rcore..lkm..ffi..PrimitiveCast$LT$rcore..lkm..ffi..MetadataFFI$GT$$GT$13fromPrimitive17hdc443eae102d1341E
ffffff000025cfb0 T _ZN117_$LT$rcore..rcore_fs..vfs..Timespec$u20$as$u20$rcore..lkm..ffi..PrimitiveCast$LT$rcore..lkm..ffi..TimespecFFI$GT$$GT$11toPrimitive17h78dab056c2d2934aE
ffffff000025cfb0 T _ZN117_$LT$rcore..rcore_fs..vfs..Timespec$u20$as$u20$rcore..lkm..ffi..PrimitiveCast$LT$rcore..lkm..ffi..TimespecFFI$GT$$GT$13fromPrimitive17h3e649e139ab2fcc7E
ffffff00002be700 T _ZN117_$LT$xmas_elf..program..ProgramIter$LT$$u27$b$C$$u20$$u27$a$GT$$u20$as$u20$core..iter..traits..iterator..Iterator$GT$4next17h15b492536a0ed2b9E
ffffff0000343650 T _ZN118_$LT$rcore_memory..memory_set..handler..linear..Linear$u20$as$u20$rcore_memory..memory_set..handler..MemoryHandler$GT$17handle_page_fault17hdbbaefcd416aed44E
ffffff00003434d0 T _ZN118_$LT$rcore_memory..memory_set..handler..linear..Linear$u20$as$u20$rcore_memory..memory_set..handler..MemoryHandler$GT$3map17he3ebb3c9a5aea83aE
ffffff0000343550 T _ZN118_$LT$rcore_memory..memory_set..handler..linear..Linear$u20$as$u20$rcore_memory..memory_set..handler..MemoryHandler$GT$5unmap17h25b3f26730cd513cE
ffffff0000343490 T _ZN118_$LT$rcore_memory..memory_set..handler..linear..Linear$u20$as$u20$rcore_memory..memory_set..handler..MemoryHandler$GT$9box_clone17h9ce2417a5fe989e8E
ffffff0000343570 T _ZN118_$LT$rcore_memory..memory_set..handler..linear..Linear$u20$as$u20$rcore_memory..memory_set..handler..MemoryHandler$GT$9clone_map17h139b69275f5f0827E
ffffff00003435c0 t _ZN118_$LT$rcore_memory..memory_set..handler..linear..Linear$u20$as$u20$rcore_memory..memory_set..handler..MemoryHandler$GT$9clone_map28_$u7b$$u7b$closure$u7d$$u7d$17h06b2cb32d8e119e4E
ffffff00002bc150 T _ZN118_$LT$xmas_elf..sections..SectionIter$LT$$u27$b$C$$u20$$u27$a$GT$$u20$as$u20$core..iter..traits..iterator..Iterator$GT$4next17h841ac645f890a538E
ffffff00003209c0 T _ZN11device_tree10DeviceTree4find17h70c86ea57ec3e042E
ffffff0000320650 T _ZN11device_tree10DeviceTree4load17h936dc43fc28215c5E
ffffff0000320af0 T _ZN11device_tree10DeviceTree5store17h9e287916d6bdc155E
ffffff00003229c0 T _ZN11device_tree11stringtable11StringTable10add_string17h61b61175787d8b2eE
ffffff00003229a0 T _ZN11device_tree11stringtable11StringTable3new17h9b0e72ed2496d1dcE
ffffff0000321d50 T _ZN11device_tree4Node4find17h08a5b6115053b72bE
ffffff0000321190 t _ZN11device_tree4Node4load17hea0058f6679c576eE
ffffff0000322440 T _ZN11device_tree4Node5store17ha2175c973d08fb27E
ffffff0000322100 T _ZN11device_tree4Node8has_prop17hb6a5488405608988E
ffffff0000322250 T _ZN11device_tree4Node8prop_raw17h700bad384e4ce963E
ffffff0000322170 T _ZN11device_tree4Node8prop_str17hc8c08c0fe8465e01E
ffffff0000322380 T _ZN11device_tree4Node8prop_u3217h5abe61d59640a4ecE
ffffff00003222c0 T _ZN11device_tree4Node8prop_u6417h72cb82e5bb0d62ebE
ffffff0000329e40 T _ZN120_$LT$smoltcp..socket..tcp..TcpSocket$LT$$u27$a$GT$$u20$as$u20$smoltcp..socket..AnySocket$LT$$u27$a$C$$u20$$u27$b$GT$$GT$8downcast17h543d96d655f9fb11E
ffffff000025d2f0 T _ZN121_$LT$rcore..rcore_fs..vfs..PollStatus$u20$as$u20$rcore..lkm..ffi..PrimitiveCast$LT$rcore..lkm..ffi..PollStatusFFI$GT$$GT$11toPrimitive17hcb2ab5c2034717e1E
ffffff000025d2c0 T _ZN121_$LT$rcore..rcore_fs..vfs..PollStatus$u20$as$u20$rcore..lkm..ffi..PrimitiveCast$LT$rcore..lkm..ffi..PollStatusFFI$GT$$GT$13fromPrimitive17h1e6f0f52f8f57a5dE
ffffff000024aee0 t _ZN125_$LT$rcore_memory..memory_set..handler..delay..Delay$LT$T$GT$$u20$as$u20$rcore_memory..memory_set..handler..MemoryHandler$GT$17handle_page_fault17h49ed6299e82747f3E
ffffff000024afa0 t _ZN125_$LT$rcore_memory..memory_set..handler..delay..Delay$LT$T$GT$$u20$as$u20$rcore_memory..memory_set..handler..MemoryHandler$GT$3map17h319b5a90eaec2f0bE
ffffff000024aff0 t _ZN125_$LT$rcore_memory..memory_set..handler..delay..Delay$LT$T$GT$$u20$as$u20$rcore_memory..memory_set..handler..MemoryHandler$GT$5unmap17h9b327af35d7f221cE
ffffff000024b080 t _ZN125_$LT$rcore_memory..memory_set..handler..delay..Delay$LT$T$GT$$u20$as$u20$rcore_memory..memory_set..handler..MemoryHandler$GT$9box_clone17hd45eabd6e7554739E
ffffff000024b0a0 t _ZN125_$LT$rcore_memory..memory_set..handler..delay..Delay$LT$T$GT$$u20$as$u20$rcore_memory..memory_set..handler..MemoryHandler$GT$9clone_map17h9c0708618a6266d2E
ffffff000024b200 t _ZN125_$LT$rcore_memory..memory_set..handler..delay..Delay$LT$T$GT$$u20$as$u20$rcore_memory..memory_set..handler..MemoryHandler$GT$9clone_map28_$u7b$$u7b$closure$u7d$$u7d$17h5945bb2ae64275c1E
ffffff000024b390 t _ZN125_$LT$rcore_memory..memory_set..handler..delay..Delay$LT$T$GT$$u20$as$u20$rcore_memory..memory_set..handler..MemoryHandler$GT$9clone_map28_$u7b$$u7b$closure$u7d$$u7d$17h59c02654c41985afE
ffffff000035ec10 T _ZN126_$LT$$LP$dyn$u20$core..any..Any$u20$$u2b$$u20$core..marker..Send$u20$$u2b$$u20$$u27$static$RP$$u20$as$u20$core..fmt..Debug$GT$3fmt17h44ecb12b08a30b54E
ffffff000035b9e0 T _ZN127_$LT$$LT$core..cell..RefCell$LT$T$GT$$u20$as$u20$core..fmt..Debug$GT$..fmt..BorrowedPlaceholder$u20$as$u20$core..fmt..Debug$GT$3fmt17ha138640629bbbbcbE
ffffff00002286d0 t _ZN127_$LT$alloc..collections..btree..map..Iter$LT$$u27$a$C$$u20$K$C$$u20$V$GT$$u20$as$u20$core..iter..traits..iterator..Iterator$GT$4next17h413cf70dbe330ea8E
ffffff00002287a0 t _ZN127_$LT$alloc..collections..btree..map..Iter$LT$$u27$a$C$$u20$K$C$$u20$V$GT$$u20$as$u20$core..iter..traits..iterator..Iterator$GT$4next17h44a74e2a9811563cE
ffffff0000228860 t _ZN127_$LT$alloc..collections..btree..map..Iter$LT$$u27$a$C$$u20$K$C$$u20$V$GT$$u20$as$u20$core..iter..traits..iterator..Iterator$GT$4next17h566c08c720d79eccE
ffffff000033b230 t _ZN127_$LT$alloc..collections..btree..map..Iter$LT$$u27$a$C$$u20$K$C$$u20$V$GT$$u20$as$u20$core..iter..traits..iterator..Iterator$GT$4next17h5b6af070de0ceb63E
ffffff0000228920 t _ZN127_$LT$alloc..collections..btree..map..Iter$LT$$u27$a$C$$u20$K$C$$u20$V$GT$$u20$as$u20$core..iter..traits..iterator..Iterator$GT$4next17h6f52afa75dc342a2E
ffffff000033b300 t _ZN127_$LT$alloc..collections..btree..map..Iter$LT$$u27$a$C$$u20$K$C$$u20$V$GT$$u20$as$u20$core..iter..traits..iterator..Iterator$GT$4next17hcbe63ad63db5beffE
ffffff00002289e0 t _ZN127_$LT$alloc..collections..btree..map..Iter$LT$$u27$a$C$$u20$K$C$$u20$V$GT$$u20$as$u20$core..iter..traits..iterator..Iterator$GT$4next17hd4c532e17a66aac4E
ffffff000033b3d0 t _ZN127_$LT$alloc..collections..btree..map..Iter$LT$$u27$a$C$$u20$K$C$$u20$V$GT$$u20$as$u20$core..iter..traits..iterator..Iterator$GT$4next17hdd26f8b2c12daeb8E
ffffff000033aab0 T _ZN127_$LT$smoltcp..socket..set..Iter$LT$$u27$a$C$$u20$$u27$b$C$$u20$$u27$c$GT$$u20$as$u20$core..iter..traits..iterator..Iterator$GT$4next17hcfa95e007c9f88fdE
ffffff00002c6360 T _ZN127_$LT$x86_64..structures..paging..mapper..recursive_page_table..RecursivePageTable$LT$$u27$a$GT$$u20$as$u20$core..fmt..Debug$GT$3fmt17h38eadf0525bf3ce4E
ffffff00002a0140 t _ZN128_$LT$bitvec..domain..BitDomain$LT$$u27$a$C$$u20$T$GT$$u20$as$u20$core..convert..From$LT$bitvec..pointer..BitPtr$LT$T$GT$$GT$$GT$4from17ha169e8eedc4f116eE
ffffff000033f830 T _ZN128_$LT$smoltcp..wire..icmp..Repr$LT$$u27$a$GT$$u20$as$u20$core..convert..From$LT$smoltcp..wire..icmpv4..Repr$LT$$u27$a$GT$$GT$$GT$4from17h69f5b624efc95b52E
ffffff000023a130 t _ZN129_$LT$rcore_memory..memory_set..handler..byframe..ByFrame$LT$T$GT$$u20$as$u20$rcore_memory..memory_set..handler..MemoryHandler$GT$17handle_page_fault17he4222c530926eb44E
ffffff000023a140 t _ZN129_$LT$rcore_memory..memory_set..handler..byframe..ByFrame$LT$T$GT$$u20$as$u20$rcore_memory..memory_set..handler..MemoryHandler$GT$3map17hf74eefbfabac5ce9E
ffffff000023a1a0 t _ZN129_$LT$rcore_memory..memory_set..handler..byframe..ByFrame$LT$T$GT$$u20$as$u20$rcore_memory..memory_set..handler..MemoryHandler$GT$5unmap17hb7d7bf11115d129fE
ffffff000023a200 t _ZN129_$LT$rcore_memory..memory_set..handler..byframe..ByFrame$LT$T$GT$$u20$as$u20$rcore_memory..memory_set..handler..MemoryHandler$GT$9box_clone17hc48d92dd544bc323E
ffffff000023a220 t _ZN129_$LT$rcore_memory..memory_set..handler..byframe..ByFrame$LT$T$GT$$u20$as$u20$rcore_memory..memory_set..handler..MemoryHandler$GT$9clone_map17h5f62200e5e6d5083E
ffffff000023a310 t _ZN129_$LT$rcore_memory..memory_set..handler..byframe..ByFrame$LT$T$GT$$u20$as$u20$rcore_memory..memory_set..handler..MemoryHandler$GT$9clone_map28_$u7b$$u7b$closure$u7d$$u7d$17h77110d0ff68c0152E
ffffff00003437c0 T _ZN12rcore_memory10memory_set10MemoryArea12as_slice_mut17h0b0f4a5e5356be19E
ffffff00003438e0 T _ZN12rcore_memory10memory_set10MemoryArea15is_overlap_with17h0aa03d15850190b7E
ffffff00003437f0 T _ZN12rcore_memory10memory_set10MemoryArea20check_and_clone_cstr17h6f50e6e246884dbbE
ffffff0000343920 T _ZN12rcore_memory10memory_set10MemoryArea3map17h892a87e28c9ebcc4E
ffffff00003439d0 T _ZN12rcore_memory10memory_set10MemoryArea5unmap17h70e3fd4891e0865bE
ffffff00003437c0 T _ZN12rcore_memory10memory_set10MemoryArea8as_slice17ha5d9c10e82acc0c3E
ffffff00003437d0 T _ZN12rcore_memory10memory_set10MemoryArea8contains17h36e386dc5a525368E
ffffff0000343ad0 T _ZN12rcore_memory10memory_set10MemoryAttr4mmio17h3dcc58e9f7f3a5a3E
ffffff0000343a70 T _ZN12rcore_memory10memory_set10MemoryAttr4user17h3aa7891ac4faf256E
ffffff0000343af0 T _ZN12rcore_memory10memory_set10MemoryAttr5apply17hd03aaed3a3af016cE
ffffff0000343ab0 T _ZN12rcore_memory10memory_set10MemoryAttr7execute17h8a629a4495db6dffE
ffffff0000343a80 T _ZN12rcore_memory10memory_set10MemoryAttr8readonly17h43a37903ecc5b2e8E
ffffff0000343aa0 T _ZN12rcore_memory10memory_set10MemoryAttr8writable17hd75c7ce19f7652b6E
ffffff00003431b0 T _ZN12rcore_memory10memory_set7handler164_$LT$impl$u20$core..clone..Clone$u20$for$u20$alloc..boxed..Box$LT$$LP$dyn$u20$rcore_memory..memory_set..handler..MemoryHandler$u20$$u2b$$u20$$u27$static$RP$$GT$$GT$5clone17h56976e604c3e4ce2E
ffffff0000343660 T _ZN12rcore_memory10memory_set7handler6linear6Linear3new17h6fd9a1c20d297b6eE
ffffff0000343de0 T _ZN12rcore_memory4addr4Page13start_address17h5b85e9dee3fa8c55E
ffffff0000343df0 T _ZN12rcore_memory4addr4Page7of_addr17h5943145d7a675c44E
ffffff0000343e00 T _ZN12rcore_memory4addr4Page8range_of17hf9afa8fc19f91025E
ffffff0000343e70 T _ZN12rcore_memory4addr5Frame12get_virtaddr17h9d3be034b1a78d49E
ffffff0000343e60 T _ZN12rcore_memory4addr5Frame14get_page_table17hfaea60eece6de9d8E
ffffff0000343e90 T _ZN12rcore_memory4addr5Frame3new17hb3f1e3f488595023E
ffffff0000343e80 T _ZN12rcore_memory4addr5Frame9get_token17hcd50799a89067320E
ffffff00002421d0 t _ZN12rcore_memory6paging17InactivePageTable4with17hb47314911a6f8f4cE
ffffff0000242380 t _ZN12rcore_memory6paging17InactivePageTable8activate17h8be305671d3449a0E
ffffff0000242470 t _ZN12rcore_memory6paging9PageTable17map_if_not_exists17hb1aa81cbb3f019caE
ffffff0000242590 t _ZN12rcore_memory6paging9PageTable18get_page_slice_mut17h7265a22b50517e3eE
ffffff00002425b0 t _ZN12rcore_memory6paging9PageTable4read17hf1f3b0036803c049E
ffffff00002425c0 t _ZN12rcore_memory6paging9PageTable5write17h6c5c4c140248be8aE
ffffff00003442b0 T _ZN12rcore_thread10std_thread4park17h107f6cdf72205d8cE
ffffff0000344070 T _ZN12rcore_thread10std_thread5sleep17h9b3b46018daa9e04E
ffffff00002579e0 t _ZN12rcore_thread10std_thread5spawn17h0dadff91134de1faE
ffffff0000257b70 t _ZN12rcore_thread10std_thread5spawn17hd55add1a080dd780E
ffffff0000257ca0 t _ZN12rcore_thread10std_thread5spawn19kernel_thread_entry17h4f34450d58afc775E.llvm.9428859016868813828
ffffff0000257d30 t _ZN12rcore_thread10std_thread5spawn19kernel_thread_entry17h842c8628b6d0547dE.llvm.9428859016868813828
ffffff00003443e0 T _ZN12rcore_thread10std_thread6Thread2id17h35dd53ad48eafcd5E
ffffff00003443a0 T _ZN12rcore_thread10std_thread6Thread6unpark17h9219763c6e0c9ad7E
ffffff0000344030 T _ZN12rcore_thread10std_thread7current17h059617e059ef551cE
ffffff00003441f0 T _ZN12rcore_thread10std_thread9yield_now17hdd3a0a9911060c5dE
ffffff00003449b0 t _ZN12rcore_thread11thread_pool10ThreadPool10set_status17h849704aba04429e9E.llvm.5313256737414007121
ffffff0000344d20 T _ZN12rcore_thread11thread_pool10ThreadPool10try_remove17hff58ef7b013d4c66E
ffffff0000344650 T _ZN12rcore_thread11thread_pool10ThreadPool12set_priority17hf7fbbf949df74cf9E
ffffff0000344400 T _ZN12rcore_thread11thread_pool10ThreadPool3add17h8a68561a8211c7cfE
ffffff0000344670 t _ZN12rcore_thread11thread_pool10ThreadPool3run17h1018c6b2d48ec3ceE
ffffff0000345040 T _ZN12rcore_thread11thread_pool10ThreadPool4exit17hdff4d0e9bbbf47a4E
ffffff0000344760 t _ZN12rcore_thread11thread_pool10ThreadPool4stop17h4f9adfb2bfd58996E
ffffff0000344520 t _ZN12rcore_thread11thread_pool10ThreadPool4tick17hfae25f3cb6b1483fE
ffffff0000344900 T _ZN12rcore_thread11thread_pool10ThreadPool4wait17h65f6e80158829f9cE
ffffff0000344e60 T _ZN12rcore_thread11thread_pool10ThreadPool5sleep17h32d8c99de3125342E
ffffff0000344c90 T _ZN12rcore_thread11thread_pool10ThreadPool6detach17h05d87330b917d216E
ffffff0000344f10 T _ZN12rcore_thread11thread_pool10ThreadPool6wakeup17hda7c2da6fe3cc0d4E
ffffff00003467f0 T _ZN12rcore_thread9processor9Processor3new17h5e36b07916e69e94E
ffffff00003468c0 T _ZN12rcore_thread9processor9Processor3run17hd742a462323fd991E
ffffff0000346bd0 T _ZN12rcore_thread9processor9Processor3tid17h8e2400de70cebec3E
ffffff0000346810 T _ZN12rcore_thread9processor9Processor4init17hf681dd0f9f8dcf15E
ffffff0000346c80 T _ZN12rcore_thread9processor9Processor4tick17h6e3326c17d15bee7E
ffffff0000346c10 T _ZN12rcore_thread9processor9Processor7context17h877e68f1a0de302bE
ffffff0000346c50 T _ZN12rcore_thread9processor9Processor7manager17hf11da7523e08ea38E
ffffff0000346b70 T _ZN12rcore_thread9processor9Processor9yield_now17h98e714e26bcdc751E
ffffff0000345610 T _ZN12rcore_thread9scheduler2o111O1Scheduler3new17h9a299fc5d4176868E
ffffff00003466e0 T _ZN12rcore_thread9scheduler2rr11RRScheduler3new17hb85ef41b82ea1095E
ffffff000033b490 t _ZN130_$LT$alloc..collections..btree..map..IterMut$LT$$u27$a$C$$u20$K$C$$u20$V$GT$$u20$as$u20$core..iter..traits..iterator..Iterator$GT$4next17he923ea438e6511edE
ffffff00002a9cb0 t _ZN130_$LT$bitvec..vec..BitVec$LT$C$C$$u20$T$GT$$u20$as$u20$core..convert..From$LT$$RF$bitvec..slice..BitSlice$LT$C$C$$u20$T$GT$$GT$$GT$4from17h64a23e377ed0cfbfE
ffffff00002a9d70 t _ZN130_$LT$bitvec..vec..BitVec$LT$C$C$$u20$T$GT$$u20$as$u20$core..convert..From$LT$$RF$bitvec..slice..BitSlice$LT$C$C$$u20$T$GT$$GT$$GT$4from17h6c852bc4ad89b727E
ffffff000033ab00 T _ZN130_$LT$smoltcp..socket..set..IterMut$LT$$u27$a$C$$u20$$u27$b$C$$u20$$u27$c$GT$$u20$as$u20$core..iter..traits..iterator..Iterator$GT$4next17hfaadd85c0fc4110dE
ffffff00002a02e0 t _ZN131_$LT$bitvec..domain..BitDomainMut$LT$$u27$a$C$$u20$T$GT$$u20$as$u20$core..convert..From$LT$bitvec..pointer..BitPtr$LT$T$GT$$GT$$GT$4from17hec6b7970e9770682E
ffffff00002c7ed0 T _ZN132_$LT$$LT$x86_64..structures..idt..InterruptStackFrameValue$u20$as$u20$core..fmt..Debug$GT$..fmt..Hex$u20$as$u20$core..fmt..Debug$GT$3fmt17h82c3b12bef7d73f9E
ffffff0000291b20 t _ZN132_$LT$rcore_memory..memory_set..handler..file..File$LT$F$C$$u20$T$GT$$u20$as$u20$rcore_memory..memory_set..handler..MemoryHandler$GT$17handle_page_fault17h1659f9322e1a1441E
ffffff0000291cf0 t _ZN132_$LT$rcore_memory..memory_set..handler..file..File$LT$F$C$$u20$T$GT$$u20$as$u20$rcore_memory..memory_set..handler..MemoryHandler$GT$3map17h0fb887392b01662dE
ffffff0000291d40 t _ZN132_$LT$rcore_memory..memory_set..handler..file..File$LT$F$C$$u20$T$GT$$u20$as$u20$rcore_memory..memory_set..handler..MemoryHandler$GT$5unmap17h74ae0c1d264a86bfE
ffffff0000291dc0 t _ZN132_$LT$rcore_memory..memory_set..handler..file..File$LT$F$C$$u20$T$GT$$u20$as$u20$rcore_memory..memory_set..handler..MemoryHandler$GT$9box_clone17he040c29c4950df80E
ffffff0000291e40 t _ZN132_$LT$rcore_memory..memory_set..handler..file..File$LT$F$C$$u20$T$GT$$u20$as$u20$rcore_memory..memory_set..handler..MemoryHandler$GT$9clone_map17h48b9fc436042436fE
ffffff0000291fc0 t _ZN132_$LT$rcore_memory..memory_set..handler..file..File$LT$F$C$$u20$T$GT$$u20$as$u20$rcore_memory..memory_set..handler..MemoryHandler$GT$9clone_map28_$u7b$$u7b$closure$u7d$$u7d$17h6949320eb09e3e40E
ffffff0000292150 t _ZN132_$LT$rcore_memory..memory_set..handler..file..File$LT$F$C$$u20$T$GT$$u20$as$u20$rcore_memory..memory_set..handler..MemoryHandler$GT$9clone_map28_$u7b$$u7b$closure$u7d$$u7d$17ha4071bba7ef9a44aE
ffffff00002a8ae0 T _ZN133_$LT$rcore..syscall..proc..$LT$impl$u20$rcore..syscall..Syscall$LT$$u27$_$GT$$GT$..sys_wait4..WaitFor$u20$as$u20$core..fmt..Debug$GT$3fmt17h76625fd0d4a30e27E
ffffff0000330050 T _ZN134_$LT$smoltcp..socket..raw..RawSocket$LT$$u27$a$C$$u20$$u27$b$GT$$u20$as$u20$smoltcp..socket..AnySocket$LT$$u27$a$C$$u20$$u27$b$GT$$GT$8downcast17ha4f230da0dd17128E
ffffff0000330070 T _ZN134_$LT$smoltcp..socket..udp..UdpSocket$LT$$u27$a$C$$u20$$u27$b$GT$$u20$as$u20$smoltcp..socket..AnySocket$LT$$u27$a$C$$u20$$u27$b$GT$$GT$8downcast17hd9f4edd876a7f306E
ffffff0000332bf0 T _ZN136_$LT$smoltcp..socket..icmp..IcmpSocket$LT$$u27$a$C$$u20$$u27$b$GT$$u20$as$u20$smoltcp..socket..AnySocket$LT$$u27$a$C$$u20$$u27$b$GT$$GT$8downcast17hfafbeea8b2fda64aE
ffffff00002b9000 T _ZN141_$LT$$LT$bitvec..slice..BitSlice$LT$C$C$$u20$T$GT$$u20$as$u20$core..fmt..Display$GT$..fmt..Part$LT$$u27$a$GT$$u20$as$u20$core..fmt..Debug$GT$3fmt17he3f8982b156f8f8cE
ffffff000033b550 t _ZN143_$LT$$RF$$u27$a$u20$mut$u20$alloc..collections..btree..map..BTreeMap$LT$K$C$$u20$V$GT$$u20$as$u20$core..iter..traits..collect..IntoIterator$GT$9into_iter17hfa6876e86b7d2781E
ffffff000033b5d0 t _ZN143_$LT$alloc..collections..btree..map..Range$LT$$u27$a$C$$u20$K$C$$u20$V$GT$$u20$as$u20$core..iter..traits..double_ended..DoubleEndedIterator$GT$9next_back17he53fd124b76b3fe8E
ffffff00002b72b0 T _ZN144_$LT$bootloader..bootinfo..memory_map..MemoryRegion$u20$as$u20$core..convert..From$LT$bootloader..bootinfo..memory_map..E820MemoryRegion$GT$$GT$4from17hf81c654333551bf1E
ffffff000033b6c0 t _ZN146_$LT$alloc..collections..btree..map..BTreeMap$LT$K$C$$u20$V$GT$$u20$as$u20$core..iter..traits..collect..FromIterator$LT$$LP$K$C$$u20$V$RP$$GT$$GT$9from_iter17h290bcd74648ebc6aE
ffffff0000329630 T _ZN149_$LT$smoltcp..socket..tcp..TcpSocket$LT$$u27$a$GT$$u20$as$u20$core..convert..Into$LT$smoltcp..socket..Socket$LT$$u27$a$C$$u20$$u27$static$GT$$GT$$GT$4into17h0c2bc4a5315b73c3E
ffffff00002b3560 T _ZN14console_traits3Col4decr17hca45eb198d95020bE
ffffff00002b3550 T _ZN14console_traits3Col4incr17h7ead2685ac800519E
ffffff00002b3570 T _ZN14console_traits3Col5bound17h59f5e632caa7d350E
ffffff00002b3540 T _ZN14console_traits3Col6origin17h4ee03f1bebf5d70dE
ffffff00002b3560 T _ZN14console_traits3Row4decr17hac250467b00415b2E
ffffff00002b3550 T _ZN14console_traits3Row4incr17he6d3a0d346f18f39E
ffffff00002b3570 T _ZN14console_traits3Row5bound17hfcc146cfc4cda3ceE
ffffff00002b3540 T _ZN14console_traits3Row6origin17hedaa85c67aa219b5E
ffffff00002b3520 T _ZN14console_traits8Position3new17hf8fc92ececae86fbE
ffffff00002b3530 T _ZN14console_traits8Position6origin17hf21a4ae98cba0c86E
ffffff000032f330 T _ZN158_$LT$smoltcp..socket..raw..RawSocket$LT$$u27$a$C$$u20$$u27$b$GT$$u20$as$u20$core..convert..Into$LT$smoltcp..socket..Socket$LT$$u27$a$C$$u20$$u27$b$GT$$GT$$GT$4into17hefed72193a7d5510E
ffffff000032fe00 T _ZN158_$LT$smoltcp..socket..udp..UdpSocket$LT$$u27$a$C$$u20$$u27$b$GT$$u20$as$u20$core..convert..Into$LT$smoltcp..socket..Socket$LT$$u27$a$C$$u20$$u27$b$GT$$GT$$GT$4into17hc2a8b51949a75b39E
ffffff000035ec10 T _ZN159_$LT$$LP$dyn$u20$core..any..Any$u20$$u2b$$u20$core..marker..Send$u20$$u2b$$u20$core..marker..Sync$u20$$u2b$$u20$$u27$static$RP$$u20$as$u20$core..fmt..Debug$GT$3fmt17h571efcef8f7798e8E
ffffff0000332770 T _ZN160_$LT$smoltcp..socket..icmp..IcmpSocket$LT$$u27$a$C$$u20$$u27$b$GT$$u20$as$u20$core..convert..Into$LT$smoltcp..socket..Socket$LT$$u27$a$C$$u20$$u27$b$GT$$GT$$GT$4into17h7504a3ad849440a2E
ffffff00002c5fb0 T _ZN161_$LT$x86_64..structures..paging..mapper..recursive_page_table..RecursivePageTable$LT$$u27$a$GT$$u20$as$u20$x86_64..structures..paging..mapper..MapperAllSizes$GT$9translate17h3276b478a7ea4b9dE
ffffff0000249750 T _ZN167_$LT$rcore..arch..paging..FrameAllocatorForX86$u20$as$u20$x86_64..structures..paging..frame_alloc..FrameAllocator$LT$x86_64..structures..paging..page..Size4KiB$GT$$GT$14allocate_frame17h04143c867e8964aaE
ffffff00002497a0 T _ZN169_$LT$rcore..arch..paging..FrameAllocatorForX86$u20$as$u20$x86_64..structures..paging..frame_alloc..FrameDeallocator$LT$x86_64..structures..paging..page..Size4KiB$GT$$GT$16deallocate_frame17h7ccf88707096741aE
ffffff00002c6e90 T _ZN171_$LT$x86_64..structures..paging..mapper..mapped_page_table..PageTableWalkError$u20$as$u20$core..convert..From$LT$x86_64..structures..paging..page_table..FrameError$GT$$GT$4from17h62eb09151bc6ddffE
ffffff0000369440 t _ZN17compiler_builtins3int4sdiv13rust_i128_div17hb33ba22901633814E
ffffff00002c7f40 T _ZN185_$LT$x86_64..structures..idt..Entry$LT$for$LT$$u27$r$GT$$u20$extern$u20$$u22$x86.interrupt$u22$$u20$fn$LP$$RF$$u27$r$u20$mut$u20$x86_64..structures..idt..InterruptStackFrame$RP$$GT$$GT$14set_handler_fn17h8b70439f9fa66172E
ffffff0000324a30 T _ZN18isomorphic_drivers3net8ethernet7structs15EthernetAddress10from_bytes17h580b507561e70e9fE
ffffff0000324b20 T _ZN18isomorphic_drivers3net8ethernet7structs15EthernetAddress8as_bytes17hbca5fb20934d215dE
ffffff0000323ce0 T _ZN18isomorphic_drivers5block4ahci13SATAFISRegH2D7set_lba17h8fec1b6f49d929dbE
ffffff0000323d20 T _ZN18isomorphic_drivers5block4ahci15from_ata_string17h88afbe2636630ef5E
ffffff0000323bb0 T _ZN18isomorphic_drivers5block4ahci22AHCIGenericHostControl6enable17hd2fd9328b4138235E
ffffff0000323c10 T _ZN18isomorphic_drivers5block4ahci22AHCIGenericHostControl8has_port17h5cc87c29254945e5E
ffffff0000323c30 T _ZN18isomorphic_drivers5block4ahci22AHCIGenericHostControl8port_ptr17ha18e6a278dbcfc31E
ffffff0000323be0 T _ZN18isomorphic_drivers5block4ahci22AHCIGenericHostControl9num_ports17hdf0d4dd6bbc7cfaaE
ffffff0000323c50 T _ZN18isomorphic_drivers5block4ahci8AHCIPort12spin_on_slot17h5072cb9b9551b178E
ffffff0000323cb0 T _ZN18isomorphic_drivers5block4ahci8AHCIPort13issue_command17hff51ed68edad2573E
ffffff00002c7f40 T _ZN196_$LT$x86_64..structures..idt..Entry$LT$for$LT$$u27$r$GT$$u20$extern$u20$$u22$x86.interrupt$u22$$u20$fn$LP$$RF$$u27$r$u20$mut$u20$x86_64..structures..idt..InterruptStackFrame$C$$u20$u64$RP$$GT$$GT$14set_handler_fn17heb93b5b4a0bf7b78E
ffffff00002c5030 T _ZN203_$LT$x86_64..structures..paging..mapper..recursive_page_table..RecursivePageTable$LT$$u27$a$GT$$u20$as$u20$x86_64..structures..paging..mapper..Mapper$LT$x86_64..structures..paging..page..Size1GiB$GT$$GT$12update_flags17h6599c499064a50c7E
ffffff00002c5180 T _ZN203_$LT$x86_64..structures..paging..mapper..recursive_page_table..RecursivePageTable$LT$$u27$a$GT$$u20$as$u20$x86_64..structures..paging..mapper..Mapper$LT$x86_64..structures..paging..page..Size1GiB$GT$$GT$14translate_page17hce41d94156d45aeaE
ffffff00002c4ea0 T _ZN203_$LT$x86_64..structures..paging..mapper..recursive_page_table..RecursivePageTable$LT$$u27$a$GT$$u20$as$u20$x86_64..structures..paging..mapper..Mapper$LT$x86_64..structures..paging..page..Size1GiB$GT$$GT$5unmap17h6af31cc3f4d968b5E
ffffff00002c5500 T _ZN203_$LT$x86_64..structures..paging..mapper..recursive_page_table..RecursivePageTable$LT$$u27$a$GT$$u20$as$u20$x86_64..structures..paging..mapper..Mapper$LT$x86_64..structures..paging..page..Size2MiB$GT$$GT$12update_flags17h142bf1856d8fe8eaE
ffffff00002c56d0 T _ZN203_$LT$x86_64..structures..paging..mapper..recursive_page_table..RecursivePageTable$LT$$u27$a$GT$$u20$as$u20$x86_64..structures..paging..mapper..Mapper$LT$x86_64..structures..paging..page..Size2MiB$GT$$GT$14translate_page17hc0460d2d26e6a769E
ffffff00002c52c0 T _ZN203_$LT$x86_64..structures..paging..mapper..recursive_page_table..RecursivePageTable$LT$$u27$a$GT$$u20$as$u20$x86_64..structures..paging..mapper..Mapper$LT$x86_64..structures..paging..page..Size2MiB$GT$$GT$5unmap17hd0cfe7248b4a7143E
ffffff00002c5b30 T _ZN203_$LT$x86_64..structures..paging..mapper..recursive_page_table..RecursivePageTable$LT$$u27$a$GT$$u20$as$u20$x86_64..structures..paging..mapper..Mapper$LT$x86_64..structures..paging..page..Size4KiB$GT$$GT$12update_flags17h98528079afe9830aE
ffffff00002c5d70 T _ZN203_$LT$x86_64..structures..paging..mapper..recursive_page_table..RecursivePageTable$LT$$u27$a$GT$$u20$as$u20$x86_64..structures..paging..mapper..Mapper$LT$x86_64..structures..paging..page..Size4KiB$GT$$GT$14translate_page17h671a0bae16281780E
ffffff00002c5890 T _ZN203_$LT$x86_64..structures..paging..mapper..recursive_page_table..RecursivePageTable$LT$$u27$a$GT$$u20$as$u20$x86_64..structures..paging..mapper..Mapper$LT$x86_64..structures..paging..page..Size4KiB$GT$$GT$5unmap17hf867ab717aa09b23E
ffffff00002340e0 t _ZN203_$LT$x86_64..structures..paging..mapper..recursive_page_table..RecursivePageTable$LT$$u27$a$GT$$u20$as$u20$x86_64..structures..paging..mapper..Mapper$LT$x86_64..structures..paging..page..Size4KiB$GT$$GT$6map_to17h792dc0eb8b1211b9E
ffffff0000347250 T _ZN22buddy_system_allocator10LockedHeap3new17h6f87ce1a3588c118E
ffffff0000347250 T _ZN22buddy_system_allocator10LockedHeap5empty17hc4966d65ebec590fE
ffffff0000347320 T _ZN22buddy_system_allocator20LockedHeapWithRescue3new17h7495016c888c8ffbE
ffffff0000346d90 T _ZN22buddy_system_allocator4Heap11add_to_heap17hacff1112e652c4dcE
ffffff0000346d70 T _ZN22buddy_system_allocator4Heap3new17h55f98245539abb89E
ffffff0000346e50 T _ZN22buddy_system_allocator4Heap4init17h6297c9e969cfbfe9E
ffffff0000346f10 T _ZN22buddy_system_allocator4Heap5alloc17h6fd06bfb38a974a1E
ffffff0000346d70 T _ZN22buddy_system_allocator4Heap5empty17h99f2e9321ee8226cE
ffffff0000347050 T _ZN22buddy_system_allocator4Heap7dealloc17h69f3bcfa0e0ef465E
ffffff00002c7f40 T _ZN236_$LT$x86_64..structures..idt..Entry$LT$for$LT$$u27$r$GT$$u20$extern$u20$$u22$x86.interrupt$u22$$u20$fn$LP$$RF$$u27$r$u20$mut$u20$x86_64..structures..idt..InterruptStackFrame$C$$u20$x86_64..structures..idt..PageFaultErrorCode$RP$$GT$$GT$14set_handler_fn17h333f6148d6175f04E
ffffff000022c430 t _ZN286_$LT$alloc..collections..btree..node..Handle$LT$alloc..collections..btree..node..NodeRef$LT$alloc..collections..btree..node..marker..Mut$LT$$u27$a$GT$$C$$u20$K$C$$u20$V$C$$u20$alloc..collections..btree..node..marker..Leaf$GT$$C$$u20$alloc..collections..btree..node..marker..Edge$GT$$GT$6insert17h1754137ee87becf7E
ffffff000022c900 t _ZN286_$LT$alloc..collections..btree..node..Handle$LT$alloc..collections..btree..node..NodeRef$LT$alloc..collections..btree..node..marker..Mut$LT$$u27$a$GT$$C$$u20$K$C$$u20$V$C$$u20$alloc..collections..btree..node..marker..Leaf$GT$$C$$u20$alloc..collections..btree..node..marker..Edge$GT$$GT$6insert17h215d74aae33f3234E
ffffff000022cc80 t _ZN286_$LT$alloc..collections..btree..node..Handle$LT$alloc..collections..btree..node..NodeRef$LT$alloc..collections..btree..node..marker..Mut$LT$$u27$a$GT$$C$$u20$K$C$$u20$V$C$$u20$alloc..collections..btree..node..marker..Leaf$GT$$C$$u20$alloc..collections..btree..node..marker..Edge$GT$$GT$6insert17h304b26adf3a83a69E
ffffff000033cd20 t _ZN286_$LT$alloc..collections..btree..node..Handle$LT$alloc..collections..btree..node..NodeRef$LT$alloc..collections..btree..node..marker..Mut$LT$$u27$a$GT$$C$$u20$K$C$$u20$V$C$$u20$alloc..collections..btree..node..marker..Leaf$GT$$C$$u20$alloc..collections..btree..node..marker..Edge$GT$$GT$6insert17h4c3ee4409915b998E
ffffff000022d080 t _ZN286_$LT$alloc..collections..btree..node..Handle$LT$alloc..collections..btree..node..NodeRef$LT$alloc..collections..btree..node..marker..Mut$LT$$u27$a$GT$$C$$u20$K$C$$u20$V$C$$u20$alloc..collections..btree..node..marker..Leaf$GT$$C$$u20$alloc..collections..btree..node..marker..Edge$GT$$GT$6insert17h5a2739a1d277fe4bE
ffffff000022d310 t _ZN286_$LT$alloc..collections..btree..node..Handle$LT$alloc..collections..btree..node..NodeRef$LT$alloc..collections..btree..node..marker..Mut$LT$$u27$a$GT$$C$$u20$K$C$$u20$V$C$$u20$alloc..collections..btree..node..marker..Leaf$GT$$C$$u20$alloc..collections..btree..node..marker..Edge$GT$$GT$6insert17h5b37e0594f06aaf5E
ffffff000022d080 t _ZN286_$LT$alloc..collections..btree..node..Handle$LT$alloc..collections..btree..node..NodeRef$LT$alloc..collections..btree..node..marker..Mut$LT$$u27$a$GT$$C$$u20$K$C$$u20$V$C$$u20$alloc..collections..btree..node..marker..Leaf$GT$$C$$u20$alloc..collections..btree..node..marker..Edge$GT$$GT$6insert17h79c169b4fc815dc5E
ffffff000022d5a0 t _ZN286_$LT$alloc..collections..btree..node..Handle$LT$alloc..collections..btree..node..NodeRef$LT$alloc..collections..btree..node..marker..Mut$LT$$u27$a$GT$$C$$u20$K$C$$u20$V$C$$u20$alloc..collections..btree..node..marker..Leaf$GT$$C$$u20$alloc..collections..btree..node..marker..Edge$GT$$GT$6insert17h7eba5eff8ca148ebE
ffffff000022d080 t _ZN286_$LT$alloc..collections..btree..node..Handle$LT$alloc..collections..btree..node..NodeRef$LT$alloc..collections..btree..node..marker..Mut$LT$$u27$a$GT$$C$$u20$K$C$$u20$V$C$$u20$alloc..collections..btree..node..marker..Leaf$GT$$C$$u20$alloc..collections..btree..node..marker..Edge$GT$$GT$6insert17hc4a0b9eef6dbea34E
ffffff000022d080 t _ZN286_$LT$alloc..collections..btree..node..Handle$LT$alloc..collections..btree..node..NodeRef$LT$alloc..collections..btree..node..marker..Mut$LT$$u27$a$GT$$C$$u20$K$C$$u20$V$C$$u20$alloc..collections..btree..node..marker..Leaf$GT$$C$$u20$alloc..collections..btree..node..marker..Edge$GT$$GT$6insert17hd2228891c38f6d97E
ffffff000022d860 t _ZN286_$LT$alloc..collections..btree..node..Handle$LT$alloc..collections..btree..node..NodeRef$LT$alloc..collections..btree..node..marker..Mut$LT$$u27$a$GT$$C$$u20$K$C$$u20$V$C$$u20$alloc..collections..btree..node..marker..Leaf$GT$$C$$u20$alloc..collections..btree..node..marker..Edge$GT$$GT$6insert17hd4c39cc1a57eb47aE
ffffff000022daf0 t _ZN286_$LT$alloc..collections..btree..node..Handle$LT$alloc..collections..btree..node..NodeRef$LT$alloc..collections..btree..node..marker..Mut$LT$$u27$a$GT$$C$$u20$K$C$$u20$V$C$$u20$alloc..collections..btree..node..marker..Leaf$GT$$C$$u20$alloc..collections..btree..node..marker..Edge$GT$$GT$6insert17heae1d97ec5b956eaE
ffffff000033d0c0 t _ZN286_$LT$alloc..collections..btree..node..Handle$LT$alloc..collections..btree..node..NodeRef$LT$alloc..collections..btree..node..marker..Mut$LT$$u27$a$GT$$C$$u20$K$C$$u20$V$C$$u20$alloc..collections..btree..node..marker..Leaf$GT$$C$$u20$alloc..collections..btree..node..marker..Edge$GT$$GT$6insert17heaf4866d6ab40ebcE
ffffff000022dfa0 t _ZN288_$LT$alloc..collections..btree..node..Handle$LT$alloc..collections..btree..node..NodeRef$LT$alloc..collections..btree..node..marker..Mut$LT$$u27$a$GT$$C$$u20$K$C$$u20$V$C$$u20$alloc..collections..btree..node..marker..Internal$GT$$C$$u20$alloc..collections..btree..node..marker..KV$GT$$GT$10steal_left17h3115228e0ecaaf74E
ffffff000022e180 t _ZN288_$LT$alloc..collections..btree..node..Handle$LT$alloc..collections..btree..node..NodeRef$LT$alloc..collections..btree..node..marker..Mut$LT$$u27$a$GT$$C$$u20$K$C$$u20$V$C$$u20$alloc..collections..btree..node..marker..Internal$GT$$C$$u20$alloc..collections..btree..node..marker..KV$GT$$GT$10steal_left17h399bdd92ab29112cE
ffffff000022e460 t _ZN288_$LT$alloc..collections..btree..node..Handle$LT$alloc..collections..btree..node..NodeRef$LT$alloc..collections..btree..node..marker..Mut$LT$$u27$a$GT$$C$$u20$K$C$$u20$V$C$$u20$alloc..collections..btree..node..marker..Internal$GT$$C$$u20$alloc..collections..btree..node..marker..KV$GT$$GT$10steal_left17h990b3e735e1298b5E
ffffff000022e5e0 t _ZN288_$LT$alloc..collections..btree..node..Handle$LT$alloc..collections..btree..node..NodeRef$LT$alloc..collections..btree..node..marker..Mut$LT$$u27$a$GT$$C$$u20$K$C$$u20$V$C$$u20$alloc..collections..btree..node..marker..Internal$GT$$C$$u20$alloc..collections..btree..node..marker..KV$GT$$GT$10steal_left17hb641852b7d3f30d6E
ffffff000033d560 t _ZN288_$LT$alloc..collections..btree..node..Handle$LT$alloc..collections..btree..node..NodeRef$LT$alloc..collections..btree..node..marker..Mut$LT$$u27$a$GT$$C$$u20$K$C$$u20$V$C$$u20$alloc..collections..btree..node..marker..Internal$GT$$C$$u20$alloc..collections..btree..node..marker..KV$GT$$GT$10steal_left17hc6ef4638f846ff8eE
ffffff000022e760 t _ZN288_$LT$alloc..collections..btree..node..Handle$LT$alloc..collections..btree..node..NodeRef$LT$alloc..collections..btree..node..marker..Mut$LT$$u27$a$GT$$C$$u20$K$C$$u20$V$C$$u20$alloc..collections..btree..node..marker..Internal$GT$$C$$u20$alloc..collections..btree..node..marker..KV$GT$$GT$11steal_right17h87d5a9e387123d9dE
ffffff000033d7a0 t _ZN288_$LT$alloc..collections..btree..node..Handle$LT$alloc..collections..btree..node..NodeRef$LT$alloc..collections..btree..node..marker..Mut$LT$$u27$a$GT$$C$$u20$K$C$$u20$V$C$$u20$alloc..collections..btree..node..marker..Internal$GT$$C$$u20$alloc..collections..btree..node..marker..KV$GT$$GT$11steal_right17ha0722a97648d00c3E
ffffff000022e8d0 t _ZN288_$LT$alloc..collections..btree..node..Handle$LT$alloc..collections..btree..node..NodeRef$LT$alloc..collections..btree..node..marker..Mut$LT$$u27$a$GT$$C$$u20$K$C$$u20$V$C$$u20$alloc..collections..btree..node..marker..Internal$GT$$C$$u20$alloc..collections..btree..node..marker..KV$GT$$GT$11steal_right17ha640625500068434E
ffffff000022ebb0 t _ZN288_$LT$alloc..collections..btree..node..Handle$LT$alloc..collections..btree..node..NodeRef$LT$alloc..collections..btree..node..marker..Mut$LT$$u27$a$GT$$C$$u20$K$C$$u20$V$C$$u20$alloc..collections..btree..node..marker..Internal$GT$$C$$u20$alloc..collections..btree..node..marker..KV$GT$$GT$11steal_right17hd2ee5242bea0e357E
ffffff000022ed20 t _ZN288_$LT$alloc..collections..btree..node..Handle$LT$alloc..collections..btree..node..NodeRef$LT$alloc..collections..btree..node..marker..Mut$LT$$u27$a$GT$$C$$u20$K$C$$u20$V$C$$u20$alloc..collections..btree..node..marker..Internal$GT$$C$$u20$alloc..collections..btree..node..marker..KV$GT$$GT$11steal_right17hdb38e0425b422eccE
ffffff000033d9e0 t _ZN288_$LT$alloc..collections..btree..node..Handle$LT$alloc..collections..btree..node..NodeRef$LT$alloc..collections..btree..node..marker..Mut$LT$$u27$a$GT$$C$$u20$K$C$$u20$V$C$$u20$alloc..collections..btree..node..marker..Internal$GT$$C$$u20$alloc..collections..btree..node..marker..KV$GT$$GT$5merge17h17c4ca0dab87413bE
ffffff000022ef10 t _ZN288_$LT$alloc..collections..btree..node..Handle$LT$alloc..collections..btree..node..NodeRef$LT$alloc..collections..btree..node..marker..Mut$LT$$u27$a$GT$$C$$u20$K$C$$u20$V$C$$u20$alloc..collections..btree..node..marker..Internal$GT$$C$$u20$alloc..collections..btree..node..marker..KV$GT$$GT$5merge17h47fe420d3c59d0bfE
ffffff000022f1e0 t _ZN288_$LT$alloc..collections..btree..node..Handle$LT$alloc..collections..btree..node..NodeRef$LT$alloc..collections..btree..node..marker..Mut$LT$$u27$a$GT$$C$$u20$K$C$$u20$V$C$$u20$alloc..collections..btree..node..marker..Internal$GT$$C$$u20$alloc..collections..btree..node..marker..KV$GT$$GT$5merge17h66edf71b3dace2a9E
ffffff000022f3f0 t _ZN288_$LT$alloc..collections..btree..node..Handle$LT$alloc..collections..btree..node..NodeRef$LT$alloc..collections..btree..node..marker..Mut$LT$$u27$a$GT$$C$$u20$K$C$$u20$V$C$$u20$alloc..collections..btree..node..marker..Internal$GT$$C$$u20$alloc..collections..btree..node..marker..KV$GT$$GT$5merge17hb155287d27e497e3E
ffffff000022f600 t _ZN288_$LT$alloc..collections..btree..node..Handle$LT$alloc..collections..btree..node..NodeRef$LT$alloc..collections..btree..node..marker..Mut$LT$$u27$a$GT$$C$$u20$K$C$$u20$V$C$$u20$alloc..collections..btree..node..marker..Internal$GT$$C$$u20$alloc..collections..btree..node..marker..KV$GT$$GT$5merge17hcb10eb502b0c029aE
ffffff000022f850 t _ZN290_$LT$alloc..collections..btree..node..Handle$LT$alloc..collections..btree..node..NodeRef$LT$alloc..collections..btree..node..marker..Mut$LT$$u27$a$GT$$C$$u20$K$C$$u20$V$C$$u20$alloc..collections..btree..node..marker..Internal$GT$$C$$u20$alloc..collections..btree..node..marker..Edge$GT$$GT$6insert17h05269eb61f1da536E
ffffff000022fed0 t _ZN290_$LT$alloc..collections..btree..node..Handle$LT$alloc..collections..btree..node..NodeRef$LT$alloc..collections..btree..node..marker..Mut$LT$$u27$a$GT$$C$$u20$K$C$$u20$V$C$$u20$alloc..collections..btree..node..marker..Internal$GT$$C$$u20$alloc..collections..btree..node..marker..Edge$GT$$GT$6insert17h0e70b1ee13e26e93E
ffffff00002302c0 t _ZN290_$LT$alloc..collections..btree..node..Handle$LT$alloc..collections..btree..node..NodeRef$LT$alloc..collections..btree..node..marker..Mut$LT$$u27$a$GT$$C$$u20$K$C$$u20$V$C$$u20$alloc..collections..btree..node..marker..Internal$GT$$C$$u20$alloc..collections..btree..node..marker..Edge$GT$$GT$6insert17h13664e3fb6a7eff4E
ffffff0000230950 t _ZN290_$LT$alloc..collections..btree..node..Handle$LT$alloc..collections..btree..node..NodeRef$LT$alloc..collections..btree..node..marker..Mut$LT$$u27$a$GT$$C$$u20$K$C$$u20$V$C$$u20$alloc..collections..btree..node..marker..Internal$GT$$C$$u20$alloc..collections..btree..node..marker..Edge$GT$$GT$6insert17h19239d9010de539cE
ffffff0000230d50 t _ZN290_$LT$alloc..collections..btree..node..Handle$LT$alloc..collections..btree..node..NodeRef$LT$alloc..collections..btree..node..marker..Mut$LT$$u27$a$GT$$C$$u20$K$C$$u20$V$C$$u20$alloc..collections..btree..node..marker..Internal$GT$$C$$u20$alloc..collections..btree..node..marker..Edge$GT$$GT$6insert17h23e3e7a1132da164E
ffffff0000230950 t _ZN290_$LT$alloc..collections..btree..node..Handle$LT$alloc..collections..btree..node..NodeRef$LT$alloc..collections..btree..node..marker..Mut$LT$$u27$a$GT$$C$$u20$K$C$$u20$V$C$$u20$alloc..collections..btree..node..marker..Internal$GT$$C$$u20$alloc..collections..btree..node..marker..Edge$GT$$GT$6insert17h3200bbd331a55866E
ffffff000033dc30 t _ZN290_$LT$alloc..collections..btree..node..Handle$LT$alloc..collections..btree..node..NodeRef$LT$alloc..collections..btree..node..marker..Mut$LT$$u27$a$GT$$C$$u20$K$C$$u20$V$C$$u20$alloc..collections..btree..node..marker..Internal$GT$$C$$u20$alloc..collections..btree..node..marker..Edge$GT$$GT$6insert17h4eb54368de9f532fE
ffffff0000231220 t _ZN290_$LT$alloc..collections..btree..node..Handle$LT$alloc..collections..btree..node..NodeRef$LT$alloc..collections..btree..node..marker..Mut$LT$$u27$a$GT$$C$$u20$K$C$$u20$V$C$$u20$alloc..collections..btree..node..marker..Internal$GT$$C$$u20$alloc..collections..btree..node..marker..Edge$GT$$GT$6insert17h598f00e006645b07E
ffffff0000230950 t _ZN290_$LT$alloc..collections..btree..node..Handle$LT$alloc..collections..btree..node..NodeRef$LT$alloc..collections..btree..node..marker..Mut$LT$$u27$a$GT$$C$$u20$K$C$$u20$V$C$$u20$alloc..collections..btree..node..marker..Internal$GT$$C$$u20$alloc..collections..btree..node..marker..Edge$GT$$GT$6insert17h69f1742d8609fac0E
ffffff0000231610 t _ZN290_$LT$alloc..collections..btree..node..Handle$LT$alloc..collections..btree..node..NodeRef$LT$alloc..collections..btree..node..marker..Mut$LT$$u27$a$GT$$C$$u20$K$C$$u20$V$C$$u20$alloc..collections..btree..node..marker..Internal$GT$$C$$u20$alloc..collections..btree..node..marker..Edge$GT$$GT$6insert17h70b3ec9b86eecae9E
ffffff0000231bd0 t _ZN290_$LT$alloc..collections..btree..node..Handle$LT$alloc..collections..btree..node..NodeRef$LT$alloc..collections..btree..node..marker..Mut$LT$$u27$a$GT$$C$$u20$K$C$$u20$V$C$$u20$alloc..collections..btree..node..marker..Internal$GT$$C$$u20$alloc..collections..btree..node..marker..Edge$GT$$GT$6insert17h804179a69a793711E
ffffff000033e140 t _ZN290_$LT$alloc..collections..btree..node..Handle$LT$alloc..collections..btree..node..NodeRef$LT$alloc..collections..btree..node..marker..Mut$LT$$u27$a$GT$$C$$u20$K$C$$u20$V$C$$u20$alloc..collections..btree..node..marker..Internal$GT$$C$$u20$alloc..collections..btree..node..marker..Edge$GT$$GT$6insert17hab99ff7d7e28175eE
ffffff0000231f90 t _ZN290_$LT$alloc..collections..btree..node..Handle$LT$alloc..collections..btree..node..NodeRef$LT$alloc..collections..btree..node..marker..Mut$LT$$u27$a$GT$$C$$u20$K$C$$u20$V$C$$u20$alloc..collections..btree..node..marker..Internal$GT$$C$$u20$alloc..collections..btree..node..marker..Edge$GT$$GT$6insert17hcfce1a1e0e7e379cE
ffffff00002d2900 T _ZN2ux10conversion66_$LT$impl$u20$core..convert..From$LT$i8$GT$$u20$for$u20$ux..i9$GT$4from17hf24311bd7683946bE
ffffff00002d28a0 T _ZN2ux10conversion66_$LT$impl$u20$core..convert..From$LT$u8$GT$$u20$for$u20$ux..u9$GT$4from17h871752e584829303E
ffffff00002d27e0 T _ZN2ux10conversion66_$LT$impl$u20$core..convert..From$LT$ux..i2$GT$$u20$for$u20$i8$GT$4from17hc17ec9835902e4f5E
ffffff00002d27e0 T _ZN2ux10conversion66_$LT$impl$u20$core..convert..From$LT$ux..i3$GT$$u20$for$u20$i8$GT$4from17h5cbb47aba8812a4cE
ffffff00002d27e0 T _ZN2ux10conversion66_$LT$impl$u20$core..convert..From$LT$ux..i4$GT$$u20$for$u20$i8$GT$4from17h63b7669436f3608aE
ffffff00002d27e0 T _ZN2ux10conversion66_$LT$impl$u20$core..convert..From$LT$ux..i5$GT$$u20$for$u20$i8$GT$4from17h3f5c60fd92c88b90E
ffffff00002d27e0 T _ZN2ux10conversion66_$LT$impl$u20$core..convert..From$LT$ux..i6$GT$$u20$for$u20$i8$GT$4from17h5f2022ac9f4bdbc4E
ffffff00002d27e0 T _ZN2ux10conversion66_$LT$impl$u20$core..convert..From$LT$ux..i7$GT$$u20$for$u20$i8$GT$4from17h5a722c5de29c50beE
ffffff00002d27e0 T _ZN2ux10conversion66_$LT$impl$u20$core..convert..From$LT$ux..u2$GT$$u20$for$u20$u8$GT$4from17h9dbf91f6ad473b38E
ffffff00002d27e0 T _ZN2ux10conversion66_$LT$impl$u20$core..convert..From$LT$ux..u3$GT$$u20$for$u20$u8$GT$4from17h7ecab6884f8263f8E
ffffff00002d27e0 T _ZN2ux10conversion66_$LT$impl$u20$core..convert..From$LT$ux..u4$GT$$u20$for$u20$u8$GT$4from17h974c993d98a3325cE
ffffff00002d27e0 T _ZN2ux10conversion66_$LT$impl$u20$core..convert..From$LT$ux..u5$GT$$u20$for$u20$u8$GT$4from17h45656de89ca45abfE
ffffff00002d27e0 T _ZN2ux10conversion66_$LT$impl$u20$core..convert..From$LT$ux..u6$GT$$u20$for$u20$u8$GT$4from17haf9c8ae8dc2b5affE
ffffff00002d27e0 T _ZN2ux10conversion66_$LT$impl$u20$core..convert..From$LT$ux..u7$GT$$u20$for$u20$u8$GT$4from17hacbf056f31f2cc2dE
ffffff00002d2900 T _ZN2ux10conversion67_$LT$impl$u20$core..convert..From$LT$i8$GT$$u20$for$u20$ux..i10$GT$4from17h85e2c273d53614a4E
ffffff00002d2900 T _ZN2ux10conversion67_$LT$impl$u20$core..convert..From$LT$i8$GT$$u20$for$u20$ux..i11$GT$4from17h669ca08c3cfeea7bE
ffffff00002d2900 T _ZN2ux10conversion67_$LT$impl$u20$core..convert..From$LT$i8$GT$$u20$for$u20$ux..i12$GT$4from17ha3d4d93d708794e1E
ffffff00002d2900 T _ZN2ux10conversion67_$LT$impl$u20$core..convert..From$LT$i8$GT$$u20$for$u20$ux..i13$GT$4from17hf5b8769903a93c29E
ffffff00002d2900 T _ZN2ux10conversion67_$LT$impl$u20$core..convert..From$LT$i8$GT$$u20$for$u20$ux..i14$GT$4from17h6956c03f9ca2c00dE
ffffff00002d2900 T _ZN2ux10conversion67_$LT$impl$u20$core..convert..From$LT$i8$GT$$u20$for$u20$ux..i15$GT$4from17h7fadc80e6e8ff1eeE
ffffff00002d2910 T _ZN2ux10conversion67_$LT$impl$u20$core..convert..From$LT$i8$GT$$u20$for$u20$ux..i17$GT$4from17h6233a9b391c892dcE
ffffff00002d2910 T _ZN2ux10conversion67_$LT$impl$u20$core..convert..From$LT$i8$GT$$u20$for$u20$ux..i18$GT$4from17h775ddddd74c68f72E
ffffff00002d2910 T _ZN2ux10conversion67_$LT$impl$u20$core..convert..From$LT$i8$GT$$u20$for$u20$ux..i19$GT$4from17hf6d71f81319cbcb2E
ffffff00002d2910 T _ZN2ux10conversion67_$LT$impl$u20$core..convert..From$LT$i8$GT$$u20$for$u20$ux..i20$GT$4from17h2d7674229ef10b8bE
ffffff00002d2910 T _ZN2ux10conversion67_$LT$impl$u20$core..convert..From$LT$i8$GT$$u20$for$u20$ux..i21$GT$4from17h8fb8235c11c4d9f2E
ffffff00002d2910 T _ZN2ux10conversion67_$LT$impl$u20$core..convert..From$LT$i8$GT$$u20$for$u20$ux..i22$GT$4from17h9f3373ba31ea1820E
ffffff00002d2910 T _ZN2ux10conversion67_$LT$impl$u20$core..convert..From$LT$i8$GT$$u20$for$u20$ux..i23$GT$4from17hac7ca4d5e4e3a28bE
ffffff00002d2910 T _ZN2ux10conversion67_$LT$impl$u20$core..convert..From$LT$i8$GT$$u20$for$u20$ux..i24$GT$4from17ha97f405458897814E
ffffff00002d2910 T _ZN2ux10conversion67_$LT$impl$u20$core..convert..From$LT$i8$GT$$u20$for$u20$ux..i25$GT$4from17hcfebbc473d8ce1a1E
ffffff00002d2910 T _ZN2ux10conversion67_$LT$impl$u20$core..convert..From$LT$i8$GT$$u20$for$u20$ux..i26$GT$4from17hc919b22a91c559c4E
ffffff00002d2910 T _ZN2ux10conversion67_$LT$impl$u20$core..convert..From$LT$i8$GT$$u20$for$u20$ux..i27$GT$4from17h7f483156341df666E
ffffff00002d2910 T _ZN2ux10conversion67_$LT$impl$u20$core..convert..From$LT$i8$GT$$u20$for$u20$ux..i28$GT$4from17hfb653a6d7fdb98dbE
ffffff00002d2910 T _ZN2ux10conversion67_$LT$impl$u20$core..convert..From$LT$i8$GT$$u20$for$u20$ux..i29$GT$4from17hb599b8877101528aE
ffffff00002d2910 T _ZN2ux10conversion67_$LT$impl$u20$core..convert..From$LT$i8$GT$$u20$for$u20$ux..i30$GT$4from17h2acea443de757fbfE
ffffff00002d2910 T _ZN2ux10conversion67_$LT$impl$u20$core..convert..From$LT$i8$GT$$u20$for$u20$ux..i31$GT$4from17hbc80803dd5f12c06E
ffffff00002d2920 T _ZN2ux10conversion67_$LT$impl$u20$core..convert..From$LT$i8$GT$$u20$for$u20$ux..i33$GT$4from17hab371e4984f239edE
ffffff00002d2920 T _ZN2ux10conversion67_$LT$impl$u20$core..convert..From$LT$i8$GT$$u20$for$u20$ux..i34$GT$4from17ha4674e35ba45d5b0E
ffffff00002d2920 T _ZN2ux10conversion67_$LT$impl$u20$core..convert..From$LT$i8$GT$$u20$for$u20$ux..i35$GT$4from17h000c26927470866cE
ffffff00002d2920 T _ZN2ux10conversion67_$LT$impl$u20$core..convert..From$LT$i8$GT$$u20$for$u20$ux..i36$GT$4from17hce884f2a1151a609E
ffffff00002d2920 T _ZN2ux10conversion67_$LT$impl$u20$core..convert..From$LT$i8$GT$$u20$for$u20$ux..i37$GT$4from17he28ccefabc800da7E
ffffff00002d2920 T _ZN2ux10conversion67_$LT$impl$u20$core..convert..From$LT$i8$GT$$u20$for$u20$ux..i38$GT$4from17h4f4f142bb4664cb7E
ffffff00002d2920 T _ZN2ux10conversion67_$LT$impl$u20$core..convert..From$LT$i8$GT$$u20$for$u20$ux..i39$GT$4from17h069d92fe244907edE
ffffff00002d2920 T _ZN2ux10conversion67_$LT$impl$u20$core..convert..From$LT$i8$GT$$u20$for$u20$ux..i40$GT$4from17he4fe7638bc7b7efdE
ffffff00002d2920 T _ZN2ux10conversion67_$LT$impl$u20$core..convert..From$LT$i8$GT$$u20$for$u20$ux..i41$GT$4from17hd9539fcc2851375aE
ffffff00002d2920 T _ZN2ux10conversion67_$LT$impl$u20$core..convert..From$LT$i8$GT$$u20$for$u20$ux..i42$GT$4from17hc199c5e135e1ec92E
ffffff00002d2920 T _ZN2ux10conversion67_$LT$impl$u20$core..convert..From$LT$i8$GT$$u20$for$u20$ux..i43$GT$4from17he50b1a57c29294dfE
ffffff00002d2920 T _ZN2ux10conversion67_$LT$impl$u20$core..convert..From$LT$i8$GT$$u20$for$u20$ux..i44$GT$4from17h239e1574229a22cbE
ffffff00002d2920 T _ZN2ux10conversion67_$LT$impl$u20$core..convert..From$LT$i8$GT$$u20$for$u20$ux..i45$GT$4from17h7559b54c1c30f771E
ffffff00002d2920 T _ZN2ux10conversion67_$LT$impl$u20$core..convert..From$LT$i8$GT$$u20$for$u20$ux..i46$GT$4from17h65911437027a2923E
ffffff00002d2920 T _ZN2ux10conversion67_$LT$impl$u20$core..convert..From$LT$i8$GT$$u20$for$u20$ux..i47$GT$4from17hfa7047a131141d53E
ffffff00002d2920 T _ZN2ux10conversion67_$LT$impl$u20$core..convert..From$LT$i8$GT$$u20$for$u20$ux..i48$GT$4from17had82273061195b2bE
ffffff00002d2920 T _ZN2ux10conversion67_$LT$impl$u20$core..convert..From$LT$i8$GT$$u20$for$u20$ux..i49$GT$4from17h3c98ae4f7e55e2f9E
ffffff00002d2920 T _ZN2ux10conversion67_$LT$impl$u20$core..convert..From$LT$i8$GT$$u20$for$u20$ux..i50$GT$4from17h4d9bc0829a17ec27E
ffffff00002d2920 T _ZN2ux10conversion67_$LT$impl$u20$core..convert..From$LT$i8$GT$$u20$for$u20$ux..i51$GT$4from17h2e33dd95dfe7d44cE
ffffff00002d2920 T _ZN2ux10conversion67_$LT$impl$u20$core..convert..From$LT$i8$GT$$u20$for$u20$ux..i52$GT$4from17h8d041c86558c0dccE
ffffff00002d2920 T _ZN2ux10conversion67_$LT$impl$u20$core..convert..From$LT$i8$GT$$u20$for$u20$ux..i53$GT$4from17hf92f3b3c16213933E
ffffff00002d2920 T _ZN2ux10conversion67_$LT$impl$u20$core..convert..From$LT$i8$GT$$u20$for$u20$ux..i54$GT$4from17h436dc42fcef38f8bE
ffffff00002d2920 T _ZN2ux10conversion67_$LT$impl$u20$core..convert..From$LT$i8$GT$$u20$for$u20$ux..i55$GT$4from17h1585b520641e4aa5E
ffffff00002d2920 T _ZN2ux10conversion67_$LT$impl$u20$core..convert..From$LT$i8$GT$$u20$for$u20$ux..i56$GT$4from17h76178472d2aaae81E
ffffff00002d2920 T _ZN2ux10conversion67_$LT$impl$u20$core..convert..From$LT$i8$GT$$u20$for$u20$ux..i57$GT$4from17h13507f0a6bdddacbE
ffffff00002d2920 T _ZN2ux10conversion67_$LT$impl$u20$core..convert..From$LT$i8$GT$$u20$for$u20$ux..i58$GT$4from17hfb14fa78b0f67479E
ffffff00002d2920 T _ZN2ux10conversion67_$LT$impl$u20$core..convert..From$LT$i8$GT$$u20$for$u20$ux..i59$GT$4from17h1db507453c6811c8E
ffffff00002d2920 T _ZN2ux10conversion67_$LT$impl$u20$core..convert..From$LT$i8$GT$$u20$for$u20$ux..i60$GT$4from17hfeab19e90366eaf1E
ffffff00002d2920 T _ZN2ux10conversion67_$LT$impl$u20$core..convert..From$LT$i8$GT$$u20$for$u20$ux..i61$GT$4from17h750d50256c0e6c31E
ffffff00002d2920 T _ZN2ux10conversion67_$LT$impl$u20$core..convert..From$LT$i8$GT$$u20$for$u20$ux..i62$GT$4from17h7b3dcb451ee3ef38E
ffffff00002d2920 T _ZN2ux10conversion67_$LT$impl$u20$core..convert..From$LT$i8$GT$$u20$for$u20$ux..i63$GT$4from17h68ead0f3c4f601d2E
ffffff00002d28a0 T _ZN2ux10conversion67_$LT$impl$u20$core..convert..From$LT$u8$GT$$u20$for$u20$ux..u10$GT$4from17hadf2f627d53f927eE
ffffff00002d28a0 T _ZN2ux10conversion67_$LT$impl$u20$core..convert..From$LT$u8$GT$$u20$for$u20$ux..u11$GT$4from17hd2268414cbbe3785E
ffffff00002d28a0 T _ZN2ux10conversion67_$LT$impl$u20$core..convert..From$LT$u8$GT$$u20$for$u20$ux..u12$GT$4from17h207fb97b40f07671E
ffffff00002d28a0 T _ZN2ux10conversion67_$LT$impl$u20$core..convert..From$LT$u8$GT$$u20$for$u20$ux..u13$GT$4from17h362d14df20902356E
ffffff00002d28a0 T _ZN2ux10conversion67_$LT$impl$u20$core..convert..From$LT$u8$GT$$u20$for$u20$ux..u14$GT$4from17hc1105b8585792119E
ffffff00002d28a0 T _ZN2ux10conversion67_$LT$impl$u20$core..convert..From$LT$u8$GT$$u20$for$u20$ux..u15$GT$4from17hdc8606f9c821956bE
ffffff00002d28b0 T _ZN2ux10conversion67_$LT$impl$u20$core..convert..From$LT$u8$GT$$u20$for$u20$ux..u17$GT$4from17h163960b5bf469ae3E
ffffff00002d28b0 T _ZN2ux10conversion67_$LT$impl$u20$core..convert..From$LT$u8$GT$$u20$for$u20$ux..u18$GT$4from17h8b26a54077ef7f15E
ffffff00002d28b0 T _ZN2ux10conversion67_$LT$impl$u20$core..convert..From$LT$u8$GT$$u20$for$u20$ux..u19$GT$4from17ha639f7532ada3ce6E
ffffff00002d28b0 T _ZN2ux10conversion67_$LT$impl$u20$core..convert..From$LT$u8$GT$$u20$for$u20$ux..u20$GT$4from17hdab70889b52922e4E
ffffff00002d28b0 T _ZN2ux10conversion67_$LT$impl$u20$core..convert..From$LT$u8$GT$$u20$for$u20$ux..u21$GT$4from17h705cfc914ee796b0E
ffffff00002d28b0 T _ZN2ux10conversion67_$LT$impl$u20$core..convert..From$LT$u8$GT$$u20$for$u20$ux..u22$GT$4from17h52c6b6e1834a0aa6E
ffffff00002d28b0 T _ZN2ux10conversion67_$LT$impl$u20$core..convert..From$LT$u8$GT$$u20$for$u20$ux..u23$GT$4from17he991e69b9ab3c18fE
ffffff00002d28b0 T _ZN2ux10conversion67_$LT$impl$u20$core..convert..From$LT$u8$GT$$u20$for$u20$ux..u24$GT$4from17hbeadcb43f0aa19e4E
ffffff00002d28b0 T _ZN2ux10conversion67_$LT$impl$u20$core..convert..From$LT$u8$GT$$u20$for$u20$ux..u25$GT$4from17hffece20c73cce3dcE
ffffff00002d28b0 T _ZN2ux10conversion67_$LT$impl$u20$core..convert..From$LT$u8$GT$$u20$for$u20$ux..u26$GT$4from17he52c955ca49d1259E
ffffff00002d28b0 T _ZN2ux10conversion67_$LT$impl$u20$core..convert..From$LT$u8$GT$$u20$for$u20$ux..u27$GT$4from17h13a3d13b02670198E
ffffff00002d28b0 T _ZN2ux10conversion67_$LT$impl$u20$core..convert..From$LT$u8$GT$$u20$for$u20$ux..u28$GT$4from17h9c8a166fcb01fbadE
ffffff00002d28b0 T _ZN2ux10conversion67_$LT$impl$u20$core..convert..From$LT$u8$GT$$u20$for$u20$ux..u29$GT$4from17h8eb39a31fb1acd70E
ffffff00002d28b0 T _ZN2ux10conversion67_$LT$impl$u20$core..convert..From$LT$u8$GT$$u20$for$u20$ux..u30$GT$4from17h88720cbb1193bc55E
ffffff00002d28b0 T _ZN2ux10conversion67_$LT$impl$u20$core..convert..From$LT$u8$GT$$u20$for$u20$ux..u31$GT$4from17h32300bc954db416dE
ffffff00002d28c0 T _ZN2ux10conversion67_$LT$impl$u20$core..convert..From$LT$u8$GT$$u20$for$u20$ux..u33$GT$4from17hc3e453f59d7ea8b6E
ffffff00002d28c0 T _ZN2ux10conversion67_$LT$impl$u20$core..convert..From$LT$u8$GT$$u20$for$u20$ux..u34$GT$4from17hbbc734bb3f33f69eE
ffffff00002d28c0 T _ZN2ux10conversion67_$LT$impl$u20$core..convert..From$LT$u8$GT$$u20$for$u20$ux..u35$GT$4from17hc67020e822c80d2cE
ffffff00002d28c0 T _ZN2ux10conversion67_$LT$impl$u20$core..convert..From$LT$u8$GT$$u20$for$u20$ux..u36$GT$4from17h870d02b232a2f565E
ffffff00002d28c0 T _ZN2ux10conversion67_$LT$impl$u20$core..convert..From$LT$u8$GT$$u20$for$u20$ux..u37$GT$4from17h6aecc4db1361646dE
ffffff00002d28c0 T _ZN2ux10conversion67_$LT$impl$u20$core..convert..From$LT$u8$GT$$u20$for$u20$ux..u38$GT$4from17h2602a3ea9c4b7c62E
ffffff00002d28c0 T _ZN2ux10conversion67_$LT$impl$u20$core..convert..From$LT$u8$GT$$u20$for$u20$ux..u39$GT$4from17h82f0ea1a7b037f93E
ffffff00002d28c0 T _ZN2ux10conversion67_$LT$impl$u20$core..convert..From$LT$u8$GT$$u20$for$u20$ux..u40$GT$4from17he89c237ab292a431E
ffffff00002d28c0 T _ZN2ux10conversion67_$LT$impl$u20$core..convert..From$LT$u8$GT$$u20$for$u20$ux..u41$GT$4from17h188d991e4f4fec98E
ffffff00002d28c0 T _ZN2ux10conversion67_$LT$impl$u20$core..convert..From$LT$u8$GT$$u20$for$u20$ux..u42$GT$4from17h8644768ffc52243fE
ffffff00002d28c0 T _ZN2ux10conversion67_$LT$impl$u20$core..convert..From$LT$u8$GT$$u20$for$u20$ux..u43$GT$4from17hd92967eabc58b1e2E
ffffff00002d28c0 T _ZN2ux10conversion67_$LT$impl$u20$core..convert..From$LT$u8$GT$$u20$for$u20$ux..u44$GT$4from17h7db8b1d871706741E
ffffff00002d28c0 T _ZN2ux10conversion67_$LT$impl$u20$core..convert..From$LT$u8$GT$$u20$for$u20$ux..u45$GT$4from17hcb7a6d3cf91d291fE
ffffff00002d28c0 T _ZN2ux10conversion67_$LT$impl$u20$core..convert..From$LT$u8$GT$$u20$for$u20$ux..u46$GT$4from17h8a258e8f35dd8fb3E
ffffff00002d28c0 T _ZN2ux10conversion67_$LT$impl$u20$core..convert..From$LT$u8$GT$$u20$for$u20$ux..u47$GT$4from17h2c2f0791737e18d1E
ffffff00002d28c0 T _ZN2ux10conversion67_$LT$impl$u20$core..convert..From$LT$u8$GT$$u20$for$u20$ux..u48$GT$4from17hd7fe22981cd920edE
ffffff00002d28c0 T _ZN2ux10conversion67_$LT$impl$u20$core..convert..From$LT$u8$GT$$u20$for$u20$ux..u49$GT$4from17h6d878fbd3b9310cbE
ffffff00002d28c0 T _ZN2ux10conversion67_$LT$impl$u20$core..convert..From$LT$u8$GT$$u20$for$u20$ux..u50$GT$4from17h1d9cce06f9b054b1E
ffffff00002d28c0 T _ZN2ux10conversion67_$LT$impl$u20$core..convert..From$LT$u8$GT$$u20$for$u20$ux..u51$GT$4from17hc1be261eeaee427dE
ffffff00002d28c0 T _ZN2ux10conversion67_$LT$impl$u20$core..convert..From$LT$u8$GT$$u20$for$u20$ux..u52$GT$4from17h093bd95223aea343E
ffffff00002d28c0 T _ZN2ux10conversion67_$LT$impl$u20$core..convert..From$LT$u8$GT$$u20$for$u20$ux..u53$GT$4from17h45c8741e659dd4c5E
ffffff00002d28c0 T _ZN2ux10conversion67_$LT$impl$u20$core..convert..From$LT$u8$GT$$u20$for$u20$ux..u54$GT$4from17h2434e7eb84777d07E
ffffff00002d28c0 T _ZN2ux10conversion67_$LT$impl$u20$core..convert..From$LT$u8$GT$$u20$for$u20$ux..u55$GT$4from17h9d7122c579f8a6e5E
ffffff00002d28c0 T _ZN2ux10conversion67_$LT$impl$u20$core..convert..From$LT$u8$GT$$u20$for$u20$ux..u56$GT$4from17h43baacca1be3650cE
ffffff00002d28c0 T _ZN2ux10conversion67_$LT$impl$u20$core..convert..From$LT$u8$GT$$u20$for$u20$ux..u57$GT$4from17h16a9a338890d8ec1E
ffffff00002d28c0 T _ZN2ux10conversion67_$LT$impl$u20$core..convert..From$LT$u8$GT$$u20$for$u20$ux..u58$GT$4from17h3e7e6702ed52d3d1E
ffffff00002d28c0 T _ZN2ux10conversion67_$LT$impl$u20$core..convert..From$LT$u8$GT$$u20$for$u20$ux..u59$GT$4from17h964230ad14d51c39E
ffffff00002d28c0 T _ZN2ux10conversion67_$LT$impl$u20$core..convert..From$LT$u8$GT$$u20$for$u20$ux..u60$GT$4from17h210c76c83b5bd12cE
ffffff00002d28c0 T _ZN2ux10conversion67_$LT$impl$u20$core..convert..From$LT$u8$GT$$u20$for$u20$ux..u61$GT$4from17hfababd593753352aE
ffffff00002d28c0 T _ZN2ux10conversion67_$LT$impl$u20$core..convert..From$LT$u8$GT$$u20$for$u20$ux..u62$GT$4from17h9193a7f5c64da694E
ffffff00002d28c0 T _ZN2ux10conversion67_$LT$impl$u20$core..convert..From$LT$u8$GT$$u20$for$u20$ux..u63$GT$4from17hb8e90c3731892698E
ffffff00002d27f0 T _ZN2ux10conversion67_$LT$impl$u20$core..convert..From$LT$ux..i2$GT$$u20$for$u20$i16$GT$4from17h0586089620f89db1E
ffffff00002d2810 T _ZN2ux10conversion67_$LT$impl$u20$core..convert..From$LT$ux..i2$GT$$u20$for$u20$i32$GT$4from17h73b165d8cc5ded77E
ffffff00002d2840 T _ZN2ux10conversion67_$LT$impl$u20$core..convert..From$LT$ux..i2$GT$$u20$for$u20$i64$GT$4from17h767edd1cebd09ed9E
ffffff00002d27f0 T _ZN2ux10conversion67_$LT$impl$u20$core..convert..From$LT$ux..i3$GT$$u20$for$u20$i16$GT$4from17h1843438c8473242dE
ffffff00002d2810 T _ZN2ux10conversion67_$LT$impl$u20$core..convert..From$LT$ux..i3$GT$$u20$for$u20$i32$GT$4from17hf394fb40847a0a67E
ffffff00002d2840 T _ZN2ux10conversion67_$LT$impl$u20$core..convert..From$LT$ux..i3$GT$$u20$for$u20$i64$GT$4from17hfd766f66f22faccdE
ffffff00002d27f0 T _ZN2ux10conversion67_$LT$impl$u20$core..convert..From$LT$ux..i4$GT$$u20$for$u20$i16$GT$4from17hde06ee96722f4345E
ffffff00002d2810 T _ZN2ux10conversion67_$LT$impl$u20$core..convert..From$LT$ux..i4$GT$$u20$for$u20$i32$GT$4from17h6f1527903e8883cfE
ffffff00002d2840 T _ZN2ux10conversion67_$LT$impl$u20$core..convert..From$LT$ux..i4$GT$$u20$for$u20$i64$GT$4from17hea9f76df8cb90493E
ffffff00002d27f0 T _ZN2ux10conversion67_$LT$impl$u20$core..convert..From$LT$ux..i5$GT$$u20$for$u20$i16$GT$4from17hef22cd438f266785E
ffffff00002d2810 T _ZN2ux10conversion67_$LT$impl$u20$core..convert..From$LT$ux..i5$GT$$u20$for$u20$i32$GT$4from17he705f82e244e58e9E
ffffff00002d2840 T _ZN2ux10conversion67_$LT$impl$u20$core..convert..From$LT$ux..i5$GT$$u20$for$u20$i64$GT$4from17ha78751297c0ff0fcE
ffffff00002d27f0 T _ZN2ux10conversion67_$LT$impl$u20$core..convert..From$LT$ux..i6$GT$$u20$for$u20$i16$GT$4from17ha71b305482f8c5a6E
ffffff00002d2810 T _ZN2ux10conversion67_$LT$impl$u20$core..convert..From$LT$ux..i6$GT$$u20$for$u20$i32$GT$4from17he248a31189d4e539E
ffffff00002d2840 T _ZN2ux10conversion67_$LT$impl$u20$core..convert..From$LT$ux..i6$GT$$u20$for$u20$i64$GT$4from17habe8eafa61a37629E
ffffff00002d27f0 T _ZN2ux10conversion67_$LT$impl$u20$core..convert..From$LT$ux..i7$GT$$u20$for$u20$i16$GT$4from17h513068ebe684980aE
ffffff00002d2810 T _ZN2ux10conversion67_$LT$impl$u20$core..convert..From$LT$ux..i7$GT$$u20$for$u20$i32$GT$4from17hededd6cb94d6b38aE
ffffff00002d2840 T _ZN2ux10conversion67_$LT$impl$u20$core..convert..From$LT$ux..i7$GT$$u20$for$u20$i64$GT$4from17h3dfb6539cabdda04E
ffffff00002d2800 T _ZN2ux10conversion67_$LT$impl$u20$core..convert..From$LT$ux..i9$GT$$u20$for$u20$i16$GT$4from17h239d1d613a1751d0E
ffffff00002d2820 T _ZN2ux10conversion67_$LT$impl$u20$core..convert..From$LT$ux..i9$GT$$u20$for$u20$i32$GT$4from17h53c8512cbfffb31dE
ffffff00002d2850 T _ZN2ux10conversion67_$LT$impl$u20$core..convert..From$LT$ux..i9$GT$$u20$for$u20$i64$GT$4from17hcc86bf444aa79880E
ffffff00002d2780 T _ZN2ux10conversion67_$LT$impl$u20$core..convert..From$LT$ux..u2$GT$$u20$for$u20$u16$GT$4from17hda3c6bc9680a0fddE
ffffff00002d2790 T _ZN2ux10conversion67_$LT$impl$u20$core..convert..From$LT$ux..u2$GT$$u20$for$u20$u32$GT$4from17h952007dfbfa89a6fE
ffffff00002d27b0 T _ZN2ux10conversion67_$LT$impl$u20$core..convert..From$LT$ux..u2$GT$$u20$for$u20$u64$GT$4from17he164380c4b8fefa3E
ffffff00002d2780 T _ZN2ux10conversion67_$LT$impl$u20$core..convert..From$LT$ux..u3$GT$$u20$for$u20$u16$GT$4from17h96ba8f9be7956bacE
ffffff00002d2790 T _ZN2ux10conversion67_$LT$impl$u20$core..convert..From$LT$ux..u3$GT$$u20$for$u20$u32$GT$4from17h959748c5c2ad99dfE
ffffff00002d27b0 T _ZN2ux10conversion67_$LT$impl$u20$core..convert..From$LT$ux..u3$GT$$u20$for$u20$u64$GT$4from17hc76f3fbe93906634E
ffffff00002d2780 T _ZN2ux10conversion67_$LT$impl$u20$core..convert..From$LT$ux..u4$GT$$u20$for$u20$u16$GT$4from17hce9e692760fa4550E
ffffff00002d2790 T _ZN2ux10conversion67_$LT$impl$u20$core..convert..From$LT$ux..u4$GT$$u20$for$u20$u32$GT$4from17h82116510ec3010dcE
ffffff00002d27b0 T _ZN2ux10conversion67_$LT$impl$u20$core..convert..From$LT$ux..u4$GT$$u20$for$u20$u64$GT$4from17h892ee6787d02efd2E
ffffff00002d2780 T _ZN2ux10conversion67_$LT$impl$u20$core..convert..From$LT$ux..u5$GT$$u20$for$u20$u16$GT$4from17hc685bacf14af02d8E
ffffff00002d2790 T _ZN2ux10conversion67_$LT$impl$u20$core..convert..From$LT$ux..u5$GT$$u20$for$u20$u32$GT$4from17hfd125eabc29a3f7cE
ffffff00002d27b0 T _ZN2ux10conversion67_$LT$impl$u20$core..convert..From$LT$ux..u5$GT$$u20$for$u20$u64$GT$4from17h016fd166ac3feb30E
ffffff00002d2780 T _ZN2ux10conversion67_$LT$impl$u20$core..convert..From$LT$ux..u6$GT$$u20$for$u20$u16$GT$4from17he14991af40e096e4E
ffffff00002d2790 T _ZN2ux10conversion67_$LT$impl$u20$core..convert..From$LT$ux..u6$GT$$u20$for$u20$u32$GT$4from17h1309746f65e3fedaE
ffffff00002d27b0 T _ZN2ux10conversion67_$LT$impl$u20$core..convert..From$LT$ux..u6$GT$$u20$for$u20$u64$GT$4from17hb230678fd1dda877E
ffffff00002d2780 T _ZN2ux10conversion67_$LT$impl$u20$core..convert..From$LT$ux..u7$GT$$u20$for$u20$u16$GT$4from17h12820d3e525bbeafE
ffffff00002d2790 T _ZN2ux10conversion67_$LT$impl$u20$core..convert..From$LT$ux..u7$GT$$u20$for$u20$u32$GT$4from17h6ff5e67f07d4899fE
ffffff00002d27b0 T _ZN2ux10conversion67_$LT$impl$u20$core..convert..From$LT$ux..u7$GT$$u20$for$u20$u64$GT$4from17h2fc04d2cb590a67fE
ffffff00002d2800 T _ZN2ux10conversion67_$LT$impl$u20$core..convert..From$LT$ux..u9$GT$$u20$for$u20$u16$GT$4from17h5892b19fcf1803e7E
ffffff00002d27a0 T _ZN2ux10conversion67_$LT$impl$u20$core..convert..From$LT$ux..u9$GT$$u20$for$u20$u32$GT$4from17h35b30b4b439f618eE
ffffff00002d27c0 T _ZN2ux10conversion67_$LT$impl$u20$core..convert..From$LT$ux..u9$GT$$u20$for$u20$u64$GT$4from17h6366895752e5c077E
ffffff00002d2890 T _ZN2ux10conversion68_$LT$impl$u20$core..convert..From$LT$bool$GT$$u20$for$u20$ux..u1$GT$4from17h7444c26c01b72808E
ffffff00002d2930 T _ZN2ux10conversion68_$LT$impl$u20$core..convert..From$LT$i16$GT$$u20$for$u20$ux..i17$GT$4from17h3696c711590d9671E
ffffff00002d2930 T _ZN2ux10conversion68_$LT$impl$u20$core..convert..From$LT$i16$GT$$u20$for$u20$ux..i18$GT$4from17h1fef31660afe2ec1E
ffffff00002d2930 T _ZN2ux10conversion68_$LT$impl$u20$core..convert..From$LT$i16$GT$$u20$for$u20$ux..i19$GT$4from17h7f581ff05da8dbcbE
ffffff00002d2930 T _ZN2ux10conversion68_$LT$impl$u20$core..convert..From$LT$i16$GT$$u20$for$u20$ux..i20$GT$4from17h28452f0fd94ff7a9E
ffffff00002d2930 T _ZN2ux10conversion68_$LT$impl$u20$core..convert..From$LT$i16$GT$$u20$for$u20$ux..i21$GT$4from17h90c260fa59475257E
ffffff00002d2930 T _ZN2ux10conversion68_$LT$impl$u20$core..convert..From$LT$i16$GT$$u20$for$u20$ux..i22$GT$4from17hf329500ec1388f13E
ffffff00002d2930 T _ZN2ux10conversion68_$LT$impl$u20$core..convert..From$LT$i16$GT$$u20$for$u20$ux..i23$GT$4from17h93f3a3e3fd748590E
ffffff00002d2930 T _ZN2ux10conversion68_$LT$impl$u20$core..convert..From$LT$i16$GT$$u20$for$u20$ux..i24$GT$4from17h6ca9fa5d986097bbE
ffffff00002d2930 T _ZN2ux10conversion68_$LT$impl$u20$core..convert..From$LT$i16$GT$$u20$for$u20$ux..i25$GT$4from17h0ba5e4b3fe9d7b37E
ffffff00002d2930 T _ZN2ux10conversion68_$LT$impl$u20$core..convert..From$LT$i16$GT$$u20$for$u20$ux..i26$GT$4from17h40be517d42f96743E
ffffff00002d2930 T _ZN2ux10conversion68_$LT$impl$u20$core..convert..From$LT$i16$GT$$u20$for$u20$ux..i27$GT$4from17h8d16d01b6d57ad51E
ffffff00002d2930 T _ZN2ux10conversion68_$LT$impl$u20$core..convert..From$LT$i16$GT$$u20$for$u20$ux..i28$GT$4from17h494f7a2da7809dd8E
ffffff00002d2930 T _ZN2ux10conversion68_$LT$impl$u20$core..convert..From$LT$i16$GT$$u20$for$u20$ux..i29$GT$4from17h1bbced35b9257196E
ffffff00002d2930 T _ZN2ux10conversion68_$LT$impl$u20$core..convert..From$LT$i16$GT$$u20$for$u20$ux..i30$GT$4from17hab1f253685e5d2feE
ffffff00002d2930 T _ZN2ux10conversion68_$LT$impl$u20$core..convert..From$LT$i16$GT$$u20$for$u20$ux..i31$GT$4from17hceaa5b44e200656bE
ffffff00002d2940 T _ZN2ux10conversion68_$LT$impl$u20$core..convert..From$LT$i16$GT$$u20$for$u20$ux..i33$GT$4from17h433c5b456010c839E
ffffff00002d2940 T _ZN2ux10conversion68_$LT$impl$u20$core..convert..From$LT$i16$GT$$u20$for$u20$ux..i34$GT$4from17h619403cb92bb0fbeE
ffffff00002d2940 T _ZN2ux10conversion68_$LT$impl$u20$core..convert..From$LT$i16$GT$$u20$for$u20$ux..i35$GT$4from17hbe64e155c186f187E
ffffff00002d2940 T _ZN2ux10conversion68_$LT$impl$u20$core..convert..From$LT$i16$GT$$u20$for$u20$ux..i36$GT$4from17h252cae4134bd7b4cE
ffffff00002d2940 T _ZN2ux10conversion68_$LT$impl$u20$core..convert..From$LT$i16$GT$$u20$for$u20$ux..i37$GT$4from17hc7d18b268d969c06E
ffffff00002d2940 T _ZN2ux10conversion68_$LT$impl$u20$core..convert..From$LT$i16$GT$$u20$for$u20$ux..i38$GT$4from17h5874b06d467a7485E
ffffff00002d2940 T _ZN2ux10conversion68_$LT$impl$u20$core..convert..From$LT$i16$GT$$u20$for$u20$ux..i39$GT$4from17h7388d4a0155c1bd9E
ffffff00002d2940 T _ZN2ux10conversion68_$LT$impl$u20$core..convert..From$LT$i16$GT$$u20$for$u20$ux..i40$GT$4from17hf13897a7b02cd821E
ffffff00002d2940 T _ZN2ux10conversion68_$LT$impl$u20$core..convert..From$LT$i16$GT$$u20$for$u20$ux..i41$GT$4from17h8442228180ab5d16E
ffffff00002d2940 T _ZN2ux10conversion68_$LT$impl$u20$core..convert..From$LT$i16$GT$$u20$for$u20$ux..i42$GT$4from17ha4ba32047e70d568E
ffffff00002d2940 T _ZN2ux10conversion68_$LT$impl$u20$core..convert..From$LT$i16$GT$$u20$for$u20$ux..i43$GT$4from17hd8fc5ea44b5fbca2E
ffffff00002d2940 T _ZN2ux10conversion68_$LT$impl$u20$core..convert..From$LT$i16$GT$$u20$for$u20$ux..i44$GT$4from17h29b8101e603e5ff2E
ffffff00002d2940 T _ZN2ux10conversion68_$LT$impl$u20$core..convert..From$LT$i16$GT$$u20$for$u20$ux..i45$GT$4from17hcba0b6e46633167dE
ffffff00002d2940 T _ZN2ux10conversion68_$LT$impl$u20$core..convert..From$LT$i16$GT$$u20$for$u20$ux..i46$GT$4from17h042e3cf6f3e7e0dbE
ffffff00002d2940 T _ZN2ux10conversion68_$LT$impl$u20$core..convert..From$LT$i16$GT$$u20$for$u20$ux..i47$GT$4from17ha403506fa8585d19E
ffffff00002d2940 T _ZN2ux10conversion68_$LT$impl$u20$core..convert..From$LT$i16$GT$$u20$for$u20$ux..i48$GT$4from17h9a5cbb7b460a3226E
ffffff00002d2940 T _ZN2ux10conversion68_$LT$impl$u20$core..convert..From$LT$i16$GT$$u20$for$u20$ux..i49$GT$4from17hbaf45a97f4749979E
ffffff00002d2940 T _ZN2ux10conversion68_$LT$impl$u20$core..convert..From$LT$i16$GT$$u20$for$u20$ux..i50$GT$4from17hc99fed0a344cb7beE
ffffff00002d2940 T _ZN2ux10conversion68_$LT$impl$u20$core..convert..From$LT$i16$GT$$u20$for$u20$ux..i51$GT$4from17hc45a80e59a51228eE
ffffff00002d2940 T _ZN2ux10conversion68_$LT$impl$u20$core..convert..From$LT$i16$GT$$u20$for$u20$ux..i52$GT$4from17hecb2433511fa4675E
ffffff00002d2940 T _ZN2ux10conversion68_$LT$impl$u20$core..convert..From$LT$i16$GT$$u20$for$u20$ux..i53$GT$4from17h08bdcdfce6870d56E
ffffff00002d2940 T _ZN2ux10conversion68_$LT$impl$u20$core..convert..From$LT$i16$GT$$u20$for$u20$ux..i54$GT$4from17hd292e750a74281b2E
ffffff00002d2940 T _ZN2ux10conversion68_$LT$impl$u20$core..convert..From$LT$i16$GT$$u20$for$u20$ux..i55$GT$4from17he8e5f5a1f2dd4b55E
ffffff00002d2940 T _ZN2ux10conversion68_$LT$impl$u20$core..convert..From$LT$i16$GT$$u20$for$u20$ux..i56$GT$4from17h626526a81c906bb1E
ffffff00002d2940 T _ZN2ux10conversion68_$LT$impl$u20$core..convert..From$LT$i16$GT$$u20$for$u20$ux..i57$GT$4from17heb3acda39fd7483cE
ffffff00002d2940 T _ZN2ux10conversion68_$LT$impl$u20$core..convert..From$LT$i16$GT$$u20$for$u20$ux..i58$GT$4from17hc181a7c640f60d95E
ffffff00002d2940 T _ZN2ux10conversion68_$LT$impl$u20$core..convert..From$LT$i16$GT$$u20$for$u20$ux..i59$GT$4from17h70a9595611112988E
ffffff00002d2940 T _ZN2ux10conversion68_$LT$impl$u20$core..convert..From$LT$i16$GT$$u20$for$u20$ux..i60$GT$4from17h6f678e3b12c7789aE
ffffff00002d2940 T _ZN2ux10conversion68_$LT$impl$u20$core..convert..From$LT$i16$GT$$u20$for$u20$ux..i61$GT$4from17h5c7b4359a2bcff16E
ffffff00002d2940 T _ZN2ux10conversion68_$LT$impl$u20$core..convert..From$LT$i16$GT$$u20$for$u20$ux..i62$GT$4from17hde5080ee3703cb44E
ffffff00002d2940 T _ZN2ux10conversion68_$LT$impl$u20$core..convert..From$LT$i16$GT$$u20$for$u20$ux..i63$GT$4from17h02c9099954ed72d0E
ffffff00002d2950 T _ZN2ux10conversion68_$LT$impl$u20$core..convert..From$LT$i32$GT$$u20$for$u20$ux..i33$GT$4from17he565f6de496cf0bfE
ffffff00002d2950 T _ZN2ux10conversion68_$LT$impl$u20$core..convert..From$LT$i32$GT$$u20$for$u20$ux..i34$GT$4from17hdd78ff1393c8336aE
ffffff00002d2950 T _ZN2ux10conversion68_$LT$impl$u20$core..convert..From$LT$i32$GT$$u20$for$u20$ux..i35$GT$4from17h0a99eebe19982d35E
ffffff00002d2950 T _ZN2ux10conversion68_$LT$impl$u20$core..convert..From$LT$i32$GT$$u20$for$u20$ux..i36$GT$4from17hd66c5aff07202cd4E
ffffff00002d2950 T _ZN2ux10conversion68_$LT$impl$u20$core..convert..From$LT$i32$GT$$u20$for$u20$ux..i37$GT$4from17h7cb56579dde7aca0E
ffffff00002d2950 T _ZN2ux10conversion68_$LT$impl$u20$core..convert..From$LT$i32$GT$$u20$for$u20$ux..i38$GT$4from17h64626a955098f003E
ffffff00002d2950 T _ZN2ux10conversion68_$LT$impl$u20$core..convert..From$LT$i32$GT$$u20$for$u20$ux..i39$GT$4from17hfd64d33a861a7f54E
ffffff00002d2950 T _ZN2ux10conversion68_$LT$impl$u20$core..convert..From$LT$i32$GT$$u20$for$u20$ux..i40$GT$4from17hc5ef4a210d935bb6E
ffffff00002d2950 T _ZN2ux10conversion68_$LT$impl$u20$core..convert..From$LT$i32$GT$$u20$for$u20$ux..i41$GT$4from17h1184ede72abf3c25E
ffffff00002d2950 T _ZN2ux10conversion68_$LT$impl$u20$core..convert..From$LT$i32$GT$$u20$for$u20$ux..i42$GT$4from17hc175f0e883d9f680E
ffffff00002d2950 T _ZN2ux10conversion68_$LT$impl$u20$core..convert..From$LT$i32$GT$$u20$for$u20$ux..i43$GT$4from17h55ac258525814f67E
ffffff00002d2950 T _ZN2ux10conversion68_$LT$impl$u20$core..convert..From$LT$i32$GT$$u20$for$u20$ux..i44$GT$4from17had3ec2ef9286eabfE
ffffff00002d2950 T _ZN2ux10conversion68_$LT$impl$u20$core..convert..From$LT$i32$GT$$u20$for$u20$ux..i45$GT$4from17h4b8695b73690c5c9E
ffffff00002d2950 T _ZN2ux10conversion68_$LT$impl$u20$core..convert..From$LT$i32$GT$$u20$for$u20$ux..i46$GT$4from17ha11be7349f00cd34E
ffffff00002d2950 T _ZN2ux10conversion68_$LT$impl$u20$core..convert..From$LT$i32$GT$$u20$for$u20$ux..i47$GT$4from17h1e80c91c56eeace3E
ffffff00002d2950 T _ZN2ux10conversion68_$LT$impl$u20$core..convert..From$LT$i32$GT$$u20$for$u20$ux..i48$GT$4from17h029c2b9219e3caa7E
ffffff00002d2950 T _ZN2ux10conversion68_$LT$impl$u20$core..convert..From$LT$i32$GT$$u20$for$u20$ux..i49$GT$4from17ha0efed25c7758dfaE
ffffff00002d2950 T _ZN2ux10conversion68_$LT$impl$u20$core..convert..From$LT$i32$GT$$u20$for$u20$ux..i50$GT$4from17h8033ccc6d904371dE
ffffff00002d2950 T _ZN2ux10conversion68_$LT$impl$u20$core..convert..From$LT$i32$GT$$u20$for$u20$ux..i51$GT$4from17ha1ac131b24447af7E
ffffff00002d2950 T _ZN2ux10conversion68_$LT$impl$u20$core..convert..From$LT$i32$GT$$u20$for$u20$ux..i52$GT$4from17h2dfd4b1c18cc8c91E
ffffff00002d2950 T _ZN2ux10conversion68_$LT$impl$u20$core..convert..From$LT$i32$GT$$u20$for$u20$ux..i53$GT$4from17hc86fdfd2f452b235E
ffffff00002d2950 T _ZN2ux10conversion68_$LT$impl$u20$core..convert..From$LT$i32$GT$$u20$for$u20$ux..i54$GT$4from17hdbc4628e1b74996eE
ffffff00002d2950 T _ZN2ux10conversion68_$LT$impl$u20$core..convert..From$LT$i32$GT$$u20$for$u20$ux..i55$GT$4from17h69bbca478ed8281eE
ffffff00002d2950 T _ZN2ux10conversion68_$LT$impl$u20$core..convert..From$LT$i32$GT$$u20$for$u20$ux..i56$GT$4from17hfbe3ce969de80588E
ffffff00002d2950 T _ZN2ux10conversion68_$LT$impl$u20$core..convert..From$LT$i32$GT$$u20$for$u20$ux..i57$GT$4from17h65c783c5d79b1634E
ffffff00002d2950 T _ZN2ux10conversion68_$LT$impl$u20$core..convert..From$LT$i32$GT$$u20$for$u20$ux..i58$GT$4from17hbba3361532dcb3a8E
ffffff00002d2950 T _ZN2ux10conversion68_$LT$impl$u20$core..convert..From$LT$i32$GT$$u20$for$u20$ux..i59$GT$4from17h8a616f73af07fe90E
ffffff00002d2950 T _ZN2ux10conversion68_$LT$impl$u20$core..convert..From$LT$i32$GT$$u20$for$u20$ux..i60$GT$4from17hd36e216bb28cefefE
ffffff00002d2950 T _ZN2ux10conversion68_$LT$impl$u20$core..convert..From$LT$i32$GT$$u20$for$u20$ux..i61$GT$4from17h115b687e4afa32cdE
ffffff00002d2950 T _ZN2ux10conversion68_$LT$impl$u20$core..convert..From$LT$i32$GT$$u20$for$u20$ux..i62$GT$4from17h4673df30591791c0E
ffffff00002d2950 T _ZN2ux10conversion68_$LT$impl$u20$core..convert..From$LT$i32$GT$$u20$for$u20$ux..i63$GT$4from17h8e9e1cf71d71b7adE
ffffff00002d28d0 T _ZN2ux10conversion68_$LT$impl$u20$core..convert..From$LT$u16$GT$$u20$for$u20$ux..u17$GT$4from17h81e3c4312b96412eE
ffffff00002d28d0 T _ZN2ux10conversion68_$LT$impl$u20$core..convert..From$LT$u16$GT$$u20$for$u20$ux..u18$GT$4from17h856a574047d0ae67E
ffffff00002d28d0 T _ZN2ux10conversion68_$LT$impl$u20$core..convert..From$LT$u16$GT$$u20$for$u20$ux..u19$GT$4from17h99d00d0222ef25eeE
ffffff00002d28d0 T _ZN2ux10conversion68_$LT$impl$u20$core..convert..From$LT$u16$GT$$u20$for$u20$ux..u20$GT$4from17hdc88c82a11765ebbE
ffffff00002d28d0 T _ZN2ux10conversion68_$LT$impl$u20$core..convert..From$LT$u16$GT$$u20$for$u20$ux..u21$GT$4from17he92b37685afcc9c8E
ffffff00002d28d0 T _ZN2ux10conversion68_$LT$impl$u20$core..convert..From$LT$u16$GT$$u20$for$u20$ux..u22$GT$4from17hc58ccf6b91ab7f02E
ffffff00002d28d0 T _ZN2ux10conversion68_$LT$impl$u20$core..convert..From$LT$u16$GT$$u20$for$u20$ux..u23$GT$4from17h192de936b36374ceE
ffffff00002d28d0 T _ZN2ux10conversion68_$LT$impl$u20$core..convert..From$LT$u16$GT$$u20$for$u20$ux..u24$GT$4from17h6ec86e0826cda3b3E
ffffff00002d28d0 T _ZN2ux10conversion68_$LT$impl$u20$core..convert..From$LT$u16$GT$$u20$for$u20$ux..u25$GT$4from17hfd1a6b195f23196bE
ffffff00002d28d0 T _ZN2ux10conversion68_$LT$impl$u20$core..convert..From$LT$u16$GT$$u20$for$u20$ux..u26$GT$4from17ha12c9ba08432b60aE
ffffff00002d28d0 T _ZN2ux10conversion68_$LT$impl$u20$core..convert..From$LT$u16$GT$$u20$for$u20$ux..u27$GT$4from17h25b5ecde6f1c1a1fE
ffffff00002d28d0 T _ZN2ux10conversion68_$LT$impl$u20$core..convert..From$LT$u16$GT$$u20$for$u20$ux..u28$GT$4from17h4712da13e2b5e09cE
ffffff00002d28d0 T _ZN2ux10conversion68_$LT$impl$u20$core..convert..From$LT$u16$GT$$u20$for$u20$ux..u29$GT$4from17hbf467587ed065316E
ffffff00002d28d0 T _ZN2ux10conversion68_$LT$impl$u20$core..convert..From$LT$u16$GT$$u20$for$u20$ux..u30$GT$4from17h8dd018e4b8a685c8E
ffffff00002d28d0 T _ZN2ux10conversion68_$LT$impl$u20$core..convert..From$LT$u16$GT$$u20$for$u20$ux..u31$GT$4from17he910adae357fa3feE
ffffff00002d28e0 T _ZN2ux10conversion68_$LT$impl$u20$core..convert..From$LT$u16$GT$$u20$for$u20$ux..u33$GT$4from17hdeff9f93c151c67eE
ffffff00002d28e0 T _ZN2ux10conversion68_$LT$impl$u20$core..convert..From$LT$u16$GT$$u20$for$u20$ux..u34$GT$4from17h8381974d639247e2E
ffffff00002d28e0 T _ZN2ux10conversion68_$LT$impl$u20$core..convert..From$LT$u16$GT$$u20$for$u20$ux..u35$GT$4from17h08de59185b7e8af7E
ffffff00002d28e0 T _ZN2ux10conversion68_$LT$impl$u20$core..convert..From$LT$u16$GT$$u20$for$u20$ux..u36$GT$4from17hdb9bb04eeaf1e0c8E
ffffff00002d28e0 T _ZN2ux10conversion68_$LT$impl$u20$core..convert..From$LT$u16$GT$$u20$for$u20$ux..u37$GT$4from17h711824c0966c497eE
ffffff00002d28e0 T _ZN2ux10conversion68_$LT$impl$u20$core..convert..From$LT$u16$GT$$u20$for$u20$ux..u38$GT$4from17h383388c8a7194116E
ffffff00002d28e0 T _ZN2ux10conversion68_$LT$impl$u20$core..convert..From$LT$u16$GT$$u20$for$u20$ux..u39$GT$4from17hf557de92d9ad1adbE
ffffff00002d28e0 T _ZN2ux10conversion68_$LT$impl$u20$core..convert..From$LT$u16$GT$$u20$for$u20$ux..u40$GT$4from17hb7dc4dfe0b0a3d62E
ffffff00002d28e0 T _ZN2ux10conversion68_$LT$impl$u20$core..convert..From$LT$u16$GT$$u20$for$u20$ux..u41$GT$4from17h15dc1cd980f2ecf6E
ffffff00002d28e0 T _ZN2ux10conversion68_$LT$impl$u20$core..convert..From$LT$u16$GT$$u20$for$u20$ux..u42$GT$4from17hf3a4fef4b878d747E
ffffff00002d28e0 T _ZN2ux10conversion68_$LT$impl$u20$core..convert..From$LT$u16$GT$$u20$for$u20$ux..u43$GT$4from17h9ee51fa61b50c66aE
ffffff00002d28e0 T _ZN2ux10conversion68_$LT$impl$u20$core..convert..From$LT$u16$GT$$u20$for$u20$ux..u44$GT$4from17h0084ef81d23be2b2E
ffffff00002d28e0 T _ZN2ux10conversion68_$LT$impl$u20$core..convert..From$LT$u16$GT$$u20$for$u20$ux..u45$GT$4from17h428fab93ebe4f3bdE
ffffff00002d28e0 T _ZN2ux10conversion68_$LT$impl$u20$core..convert..From$LT$u16$GT$$u20$for$u20$ux..u46$GT$4from17hb6197ced105f2eb9E
ffffff00002d28e0 T _ZN2ux10conversion68_$LT$impl$u20$core..convert..From$LT$u16$GT$$u20$for$u20$ux..u47$GT$4from17hdc11c5d501548fe7E
ffffff00002d28e0 T _ZN2ux10conversion68_$LT$impl$u20$core..convert..From$LT$u16$GT$$u20$for$u20$ux..u48$GT$4from17hd3b30c7fae7f71e7E
ffffff00002d28e0 T _ZN2ux10conversion68_$LT$impl$u20$core..convert..From$LT$u16$GT$$u20$for$u20$ux..u49$GT$4from17h5fa5fa7054a5d3b5E
ffffff00002d28e0 T _ZN2ux10conversion68_$LT$impl$u20$core..convert..From$LT$u16$GT$$u20$for$u20$ux..u50$GT$4from17h79ff8e6119c9ab27E
ffffff00002d28e0 T _ZN2ux10conversion68_$LT$impl$u20$core..convert..From$LT$u16$GT$$u20$for$u20$ux..u51$GT$4from17h44d2972ef4c3dc59E
ffffff00002d28e0 T _ZN2ux10conversion68_$LT$impl$u20$core..convert..From$LT$u16$GT$$u20$for$u20$ux..u52$GT$4from17he3b1edc08610481dE
ffffff00002d28e0 T _ZN2ux10conversion68_$LT$impl$u20$core..convert..From$LT$u16$GT$$u20$for$u20$ux..u53$GT$4from17h87ab6802ad33a237E
ffffff00002d28e0 T _ZN2ux10conversion68_$LT$impl$u20$core..convert..From$LT$u16$GT$$u20$for$u20$ux..u54$GT$4from17hbf14324560aa0348E
ffffff00002d28e0 T _ZN2ux10conversion68_$LT$impl$u20$core..convert..From$LT$u16$GT$$u20$for$u20$ux..u55$GT$4from17hf93344c8e658d610E
ffffff00002d28e0 T _ZN2ux10conversion68_$LT$impl$u20$core..convert..From$LT$u16$GT$$u20$for$u20$ux..u56$GT$4from17ha4c888a3fc4ca36bE
ffffff00002d28e0 T _ZN2ux10conversion68_$LT$impl$u20$core..convert..From$LT$u16$GT$$u20$for$u20$ux..u57$GT$4from17h6078a754926e10f1E
ffffff00002d28e0 T _ZN2ux10conversion68_$LT$impl$u20$core..convert..From$LT$u16$GT$$u20$for$u20$ux..u58$GT$4from17hb940cf766269b886E
ffffff00002d28e0 T _ZN2ux10conversion68_$LT$impl$u20$core..convert..From$LT$u16$GT$$u20$for$u20$ux..u59$GT$4from17hdd433f52b22ce4ebE
ffffff00002d28e0 T _ZN2ux10conversion68_$LT$impl$u20$core..convert..From$LT$u16$GT$$u20$for$u20$ux..u60$GT$4from17h8e5498b1512aebb0E
ffffff00002d28e0 T _ZN2ux10conversion68_$LT$impl$u20$core..convert..From$LT$u16$GT$$u20$for$u20$ux..u61$GT$4from17h06a91fcd0732fe93E
ffffff00002d28e0 T _ZN2ux10conversion68_$LT$impl$u20$core..convert..From$LT$u16$GT$$u20$for$u20$ux..u62$GT$4from17h1f84e728e5fc0a0aE
ffffff00002d28e0 T _ZN2ux10conversion68_$LT$impl$u20$core..convert..From$LT$u16$GT$$u20$for$u20$ux..u63$GT$4from17h18fdeb5190d6da35E
ffffff00002d28f0 T _ZN2ux10conversion68_$LT$impl$u20$core..convert..From$LT$u32$GT$$u20$for$u20$ux..u33$GT$4from17h539f62167195671fE
ffffff00002d28f0 T _ZN2ux10conversion68_$LT$impl$u20$core..convert..From$LT$u32$GT$$u20$for$u20$ux..u34$GT$4from17hb07b10c116e9758bE
ffffff00002d28f0 T _ZN2ux10conversion68_$LT$impl$u20$core..convert..From$LT$u32$GT$$u20$for$u20$ux..u35$GT$4from17h582f79b7afe3c919E
ffffff00002d28f0 T _ZN2ux10conversion68_$LT$impl$u20$core..convert..From$LT$u32$GT$$u20$for$u20$ux..u36$GT$4from17h3d8178a61a232883E
ffffff00002d28f0 T _ZN2ux10conversion68_$LT$impl$u20$core..convert..From$LT$u32$GT$$u20$for$u20$ux..u37$GT$4from17ha2ad37ccba941ed9E
ffffff00002d28f0 T _ZN2ux10conversion68_$LT$impl$u20$core..convert..From$LT$u32$GT$$u20$for$u20$ux..u38$GT$4from17h1cb41ea33c456682E
ffffff00002d28f0 T _ZN2ux10conversion68_$LT$impl$u20$core..convert..From$LT$u32$GT$$u20$for$u20$ux..u39$GT$4from17heb389f39cd69ac16E
ffffff00002d28f0 T _ZN2ux10conversion68_$LT$impl$u20$core..convert..From$LT$u32$GT$$u20$for$u20$ux..u40$GT$4from17he2ea6d70b9843adcE
ffffff00002d28f0 T _ZN2ux10conversion68_$LT$impl$u20$core..convert..From$LT$u32$GT$$u20$for$u20$ux..u41$GT$4from17hcc1a9f6a6a5970a6E
ffffff00002d28f0 T _ZN2ux10conversion68_$LT$impl$u20$core..convert..From$LT$u32$GT$$u20$for$u20$ux..u42$GT$4from17hcdd22e90d15574cbE
ffffff00002d28f0 T _ZN2ux10conversion68_$LT$impl$u20$core..convert..From$LT$u32$GT$$u20$for$u20$ux..u43$GT$4from17h3310b021494f31e4E
ffffff00002d28f0 T _ZN2ux10conversion68_$LT$impl$u20$core..convert..From$LT$u32$GT$$u20$for$u20$ux..u44$GT$4from17h49546e75e71c6067E
ffffff00002d28f0 T _ZN2ux10conversion68_$LT$impl$u20$core..convert..From$LT$u32$GT$$u20$for$u20$ux..u45$GT$4from17h8bf5bfe083ebc9e5E
ffffff00002d28f0 T _ZN2ux10conversion68_$LT$impl$u20$core..convert..From$LT$u32$GT$$u20$for$u20$ux..u46$GT$4from17he811de51e8da332bE
ffffff00002d28f0 T _ZN2ux10conversion68_$LT$impl$u20$core..convert..From$LT$u32$GT$$u20$for$u20$ux..u47$GT$4from17h388935eac042c7f0E
ffffff00002d28f0 T _ZN2ux10conversion68_$LT$impl$u20$core..convert..From$LT$u32$GT$$u20$for$u20$ux..u48$GT$4from17hd70ad5898cb50574E
ffffff00002d28f0 T _ZN2ux10conversion68_$LT$impl$u20$core..convert..From$LT$u32$GT$$u20$for$u20$ux..u49$GT$4from17hc6e8f34e26006ddeE
ffffff00002d28f0 T _ZN2ux10conversion68_$LT$impl$u20$core..convert..From$LT$u32$GT$$u20$for$u20$ux..u50$GT$4from17hc6ad87eefff3426fE
ffffff00002d28f0 T _ZN2ux10conversion68_$LT$impl$u20$core..convert..From$LT$u32$GT$$u20$for$u20$ux..u51$GT$4from17h9f56c6d1298a1b73E
ffffff00002d28f0 T _ZN2ux10conversion68_$LT$impl$u20$core..convert..From$LT$u32$GT$$u20$for$u20$ux..u52$GT$4from17h209ee7ed50fd01bfE
ffffff00002d28f0 T _ZN2ux10conversion68_$LT$impl$u20$core..convert..From$LT$u32$GT$$u20$for$u20$ux..u53$GT$4from17heb65f55a5bee3d8fE
ffffff00002d28f0 T _ZN2ux10conversion68_$LT$impl$u20$core..convert..From$LT$u32$GT$$u20$for$u20$ux..u54$GT$4from17h39546c79916bf8c1E
ffffff00002d28f0 T _ZN2ux10conversion68_$LT$impl$u20$core..convert..From$LT$u32$GT$$u20$for$u20$ux..u55$GT$4from17hab380371207a97a4E
ffffff00002d28f0 T _ZN2ux10conversion68_$LT$impl$u20$core..convert..From$LT$u32$GT$$u20$for$u20$ux..u56$GT$4from17h95e90bc2042e07e5E
ffffff00002d28f0 T _ZN2ux10conversion68_$LT$impl$u20$core..convert..From$LT$u32$GT$$u20$for$u20$ux..u57$GT$4from17h0067207bc11b7aa8E
ffffff00002d28f0 T _ZN2ux10conversion68_$LT$impl$u20$core..convert..From$LT$u32$GT$$u20$for$u20$ux..u58$GT$4from17hffe05e8eba1c407eE
ffffff00002d28f0 T _ZN2ux10conversion68_$LT$impl$u20$core..convert..From$LT$u32$GT$$u20$for$u20$ux..u59$GT$4from17h0eaf514201219e61E
ffffff00002d28f0 T _ZN2ux10conversion68_$LT$impl$u20$core..convert..From$LT$u32$GT$$u20$for$u20$ux..u60$GT$4from17hb5a4803abce7d8f4E
ffffff00002d28f0 T _ZN2ux10conversion68_$LT$impl$u20$core..convert..From$LT$u32$GT$$u20$for$u20$ux..u61$GT$4from17hd6812d0b0e464f4bE
ffffff00002d28f0 T _ZN2ux10conversion68_$LT$impl$u20$core..convert..From$LT$u32$GT$$u20$for$u20$ux..u62$GT$4from17h08253ba86321409eE
ffffff00002d28f0 T _ZN2ux10conversion68_$LT$impl$u20$core..convert..From$LT$u32$GT$$u20$for$u20$ux..u63$GT$4from17h0611afa60064255eE
ffffff00002d2800 T _ZN2ux10conversion68_$LT$impl$u20$core..convert..From$LT$ux..i10$GT$$u20$for$u20$i16$GT$4from17hbbdad5dd7e5d04edE
ffffff00002d2820 T _ZN2ux10conversion68_$LT$impl$u20$core..convert..From$LT$ux..i10$GT$$u20$for$u20$i32$GT$4from17h7852778ccb61ab84E
ffffff00002d2850 T _ZN2ux10conversion68_$LT$impl$u20$core..convert..From$LT$ux..i10$GT$$u20$for$u20$i64$GT$4from17hb015c0ce7ac819f8E
ffffff00002d2800 T _ZN2ux10conversion68_$LT$impl$u20$core..convert..From$LT$ux..i11$GT$$u20$for$u20$i16$GT$4from17h21aa6699cb78cf69E
ffffff00002d2820 T _ZN2ux10conversion68_$LT$impl$u20$core..convert..From$LT$ux..i11$GT$$u20$for$u20$i32$GT$4from17h4690a8adc5c6c36dE
ffffff00002d2850 T _ZN2ux10conversion68_$LT$impl$u20$core..convert..From$LT$ux..i11$GT$$u20$for$u20$i64$GT$4from17hb6647ce228314106E
ffffff00002d2800 T _ZN2ux10conversion68_$LT$impl$u20$core..convert..From$LT$ux..i12$GT$$u20$for$u20$i16$GT$4from17hd0661bbdfed2b2bcE
ffffff00002d2820 T _ZN2ux10conversion68_$LT$impl$u20$core..convert..From$LT$ux..i12$GT$$u20$for$u20$i32$GT$4from17hcb8e8ec3133d4eeaE
ffffff00002d2850 T _ZN2ux10conversion68_$LT$impl$u20$core..convert..From$LT$ux..i12$GT$$u20$for$u20$i64$GT$4from17hd344d471cd3d320eE
ffffff00002d2800 T _ZN2ux10conversion68_$LT$impl$u20$core..convert..From$LT$ux..i13$GT$$u20$for$u20$i16$GT$4from17hc9a97f4f9f9b875dE
ffffff00002d2820 T _ZN2ux10conversion68_$LT$impl$u20$core..convert..From$LT$ux..i13$GT$$u20$for$u20$i32$GT$4from17h8e5a3d480540e679E
ffffff00002d2850 T _ZN2ux10conversion68_$LT$impl$u20$core..convert..From$LT$ux..i13$GT$$u20$for$u20$i64$GT$4from17h6a26547ed0231fe7E
ffffff00002d2800 T _ZN2ux10conversion68_$LT$impl$u20$core..convert..From$LT$ux..i14$GT$$u20$for$u20$i16$GT$4from17h3517fd2c9faa4416E
ffffff00002d2820 T _ZN2ux10conversion68_$LT$impl$u20$core..convert..From$LT$ux..i14$GT$$u20$for$u20$i32$GT$4from17h8c192758376e1119E
ffffff00002d2850 T _ZN2ux10conversion68_$LT$impl$u20$core..convert..From$LT$ux..i14$GT$$u20$for$u20$i64$GT$4from17hc4baebe1e8965d15E
ffffff00002d2800 T _ZN2ux10conversion68_$LT$impl$u20$core..convert..From$LT$ux..i15$GT$$u20$for$u20$i16$GT$4from17h5ff9db269cb0e1d1E
ffffff00002d2820 T _ZN2ux10conversion68_$LT$impl$u20$core..convert..From$LT$ux..i15$GT$$u20$for$u20$i32$GT$4from17hd724e750767b3738E
ffffff00002d2850 T _ZN2ux10conversion68_$LT$impl$u20$core..convert..From$LT$ux..i15$GT$$u20$for$u20$i64$GT$4from17h8b88cf328da4352fE
ffffff00002d2830 T _ZN2ux10conversion68_$LT$impl$u20$core..convert..From$LT$ux..i17$GT$$u20$for$u20$i32$GT$4from17hd6c514ab92f5ef05E
ffffff00002d2860 T _ZN2ux10conversion68_$LT$impl$u20$core..convert..From$LT$ux..i17$GT$$u20$for$u20$i64$GT$4from17h5d5a5ac7d9feac41E
ffffff00002d2830 T _ZN2ux10conversion68_$LT$impl$u20$core..convert..From$LT$ux..i18$GT$$u20$for$u20$i32$GT$4from17h124b5efd29f71e9bE
ffffff00002d2860 T _ZN2ux10conversion68_$LT$impl$u20$core..convert..From$LT$ux..i18$GT$$u20$for$u20$i64$GT$4from17hab620c2de904afceE
ffffff00002d2830 T _ZN2ux10conversion68_$LT$impl$u20$core..convert..From$LT$ux..i19$GT$$u20$for$u20$i32$GT$4from17hbb1725b0ee4c085aE
ffffff00002d2860 T _ZN2ux10conversion68_$LT$impl$u20$core..convert..From$LT$ux..i19$GT$$u20$for$u20$i64$GT$4from17h165229da4ad0c98dE
ffffff00002d2830 T _ZN2ux10conversion68_$LT$impl$u20$core..convert..From$LT$ux..i20$GT$$u20$for$u20$i32$GT$4from17hb368a970d04abe21E
ffffff00002d2860 T _ZN2ux10conversion68_$LT$impl$u20$core..convert..From$LT$ux..i20$GT$$u20$for$u20$i64$GT$4from17h59d80d449086a970E
ffffff00002d2830 T _ZN2ux10conversion68_$LT$impl$u20$core..convert..From$LT$ux..i21$GT$$u20$for$u20$i32$GT$4from17hea3e2ed3b0e92b03E
ffffff00002d2860 T _ZN2ux10conversion68_$LT$impl$u20$core..convert..From$LT$ux..i21$GT$$u20$for$u20$i64$GT$4from17h3d54587498e5d736E
ffffff00002d2830 T _ZN2ux10conversion68_$LT$impl$u20$core..convert..From$LT$ux..i22$GT$$u20$for$u20$i32$GT$4from17h7f576a90a455f7beE
ffffff00002d2860 T _ZN2ux10conversion68_$LT$impl$u20$core..convert..From$LT$ux..i22$GT$$u20$for$u20$i64$GT$4from17h0af92164ead4adb2E
ffffff00002d2830 T _ZN2ux10conversion68_$LT$impl$u20$core..convert..From$LT$ux..i23$GT$$u20$for$u20$i32$GT$4from17ha6bd2b15b395e941E
ffffff00002d2860 T _ZN2ux10conversion68_$LT$impl$u20$core..convert..From$LT$ux..i23$GT$$u20$for$u20$i64$GT$4from17h456279bec7cb4c82E
ffffff00002d2830 T _ZN2ux10conversion68_$LT$impl$u20$core..convert..From$LT$ux..i24$GT$$u20$for$u20$i32$GT$4from17h52e8e4e09065f679E
ffffff00002d2860 T _ZN2ux10conversion68_$LT$impl$u20$core..convert..From$LT$ux..i24$GT$$u20$for$u20$i64$GT$4from17h8c378226945e1a07E
ffffff00002d2830 T _ZN2ux10conversion68_$LT$impl$u20$core..convert..From$LT$ux..i25$GT$$u20$for$u20$i32$GT$4from17hca76e137ce194417E
ffffff00002d2860 T _ZN2ux10conversion68_$LT$impl$u20$core..convert..From$LT$ux..i25$GT$$u20$for$u20$i64$GT$4from17h7f81dd8e4917acfdE
ffffff00002d2830 T _ZN2ux10conversion68_$LT$impl$u20$core..convert..From$LT$ux..i26$GT$$u20$for$u20$i32$GT$4from17h33b00802fec17215E
ffffff00002d2860 T _ZN2ux10conversion68_$LT$impl$u20$core..convert..From$LT$ux..i26$GT$$u20$for$u20$i64$GT$4from17hea5f7f17b0063719E
ffffff00002d2830 T _ZN2ux10conversion68_$LT$impl$u20$core..convert..From$LT$ux..i27$GT$$u20$for$u20$i32$GT$4from17hf656754e577c15b0E
ffffff00002d2860 T _ZN2ux10conversion68_$LT$impl$u20$core..convert..From$LT$ux..i27$GT$$u20$for$u20$i64$GT$4from17hbc69adedde2ee776E
ffffff00002d2830 T _ZN2ux10conversion68_$LT$impl$u20$core..convert..From$LT$ux..i28$GT$$u20$for$u20$i32$GT$4from17h46e721154be8eaa2E
ffffff00002d2860 T _ZN2ux10conversion68_$LT$impl$u20$core..convert..From$LT$ux..i28$GT$$u20$for$u20$i64$GT$4from17he17c6d1b0d533496E
ffffff00002d2830 T _ZN2ux10conversion68_$LT$impl$u20$core..convert..From$LT$ux..i29$GT$$u20$for$u20$i32$GT$4from17hea5a8b1c571e850bE
ffffff00002d2860 T _ZN2ux10conversion68_$LT$impl$u20$core..convert..From$LT$ux..i29$GT$$u20$for$u20$i64$GT$4from17hf2d671ba676558a3E
ffffff00002d2830 T _ZN2ux10conversion68_$LT$impl$u20$core..convert..From$LT$ux..i30$GT$$u20$for$u20$i32$GT$4from17h2a28cd6e54da6cd8E
ffffff00002d2860 T _ZN2ux10conversion68_$LT$impl$u20$core..convert..From$LT$ux..i30$GT$$u20$for$u20$i64$GT$4from17hd4c7a37f3d9f85e4E
ffffff00002d2830 T _ZN2ux10conversion68_$LT$impl$u20$core..convert..From$LT$ux..i31$GT$$u20$for$u20$i32$GT$4from17h4fc9cd511272cd5cE
ffffff00002d2860 T _ZN2ux10conversion68_$LT$impl$u20$core..convert..From$LT$ux..i31$GT$$u20$for$u20$i64$GT$4from17h79943dfd9f261492E
ffffff00002d2870 T _ZN2ux10conversion68_$LT$impl$u20$core..convert..From$LT$ux..i33$GT$$u20$for$u20$i64$GT$4from17hd06b6452e3a02830E
ffffff00002d2870 T _ZN2ux10conversion68_$LT$impl$u20$core..convert..From$LT$ux..i34$GT$$u20$for$u20$i64$GT$4from17hcb281a905d0fdbf2E
ffffff00002d2870 T _ZN2ux10conversion68_$LT$impl$u20$core..convert..From$LT$ux..i35$GT$$u20$for$u20$i64$GT$4from17h4cb087e27b5f546eE
ffffff00002d2870 T _ZN2ux10conversion68_$LT$impl$u20$core..convert..From$LT$ux..i36$GT$$u20$for$u20$i64$GT$4from17h03da9a0b61e7d6c8E
ffffff00002d2870 T _ZN2ux10conversion68_$LT$impl$u20$core..convert..From$LT$ux..i37$GT$$u20$for$u20$i64$GT$4from17hb1a84b02843dd1dcE
ffffff00002d2870 T _ZN2ux10conversion68_$LT$impl$u20$core..convert..From$LT$ux..i38$GT$$u20$for$u20$i64$GT$4from17hb835803dc1f3bcd3E
ffffff00002d2870 T _ZN2ux10conversion68_$LT$impl$u20$core..convert..From$LT$ux..i39$GT$$u20$for$u20$i64$GT$4from17h8fe4030dc039896cE
ffffff00002d2870 T _ZN2ux10conversion68_$LT$impl$u20$core..convert..From$LT$ux..i40$GT$$u20$for$u20$i64$GT$4from17h46fda4e98586cacbE
ffffff00002d2870 T _ZN2ux10conversion68_$LT$impl$u20$core..convert..From$LT$ux..i41$GT$$u20$for$u20$i64$GT$4from17h620af73505214baaE
ffffff00002d2870 T _ZN2ux10conversion68_$LT$impl$u20$core..convert..From$LT$ux..i42$GT$$u20$for$u20$i64$GT$4from17h30b01248f2f0a41fE
ffffff00002d2870 T _ZN2ux10conversion68_$LT$impl$u20$core..convert..From$LT$ux..i43$GT$$u20$for$u20$i64$GT$4from17he43ce426d131b735E
ffffff00002d2870 T _ZN2ux10conversion68_$LT$impl$u20$core..convert..From$LT$ux..i44$GT$$u20$for$u20$i64$GT$4from17h260500b3977d0e73E
ffffff00002d2870 T _ZN2ux10conversion68_$LT$impl$u20$core..convert..From$LT$ux..i45$GT$$u20$for$u20$i64$GT$4from17hb230bb3c81a27285E
ffffff00002d2870 T _ZN2ux10conversion68_$LT$impl$u20$core..convert..From$LT$ux..i46$GT$$u20$for$u20$i64$GT$4from17hf6e5bcd2e4c9c816E
ffffff00002d2870 T _ZN2ux10conversion68_$LT$impl$u20$core..convert..From$LT$ux..i47$GT$$u20$for$u20$i64$GT$4from17h9886045f69abea95E
ffffff00002d2870 T _ZN2ux10conversion68_$LT$impl$u20$core..convert..From$LT$ux..i48$GT$$u20$for$u20$i64$GT$4from17hcd1ed4ae101fc7d1E
ffffff00002d2870 T _ZN2ux10conversion68_$LT$impl$u20$core..convert..From$LT$ux..i49$GT$$u20$for$u20$i64$GT$4from17h73fc79105fb2f933E
ffffff00002d2870 T _ZN2ux10conversion68_$LT$impl$u20$core..convert..From$LT$ux..i50$GT$$u20$for$u20$i64$GT$4from17hcc1b1242ae8230aaE
ffffff00002d2870 T _ZN2ux10conversion68_$LT$impl$u20$core..convert..From$LT$ux..i51$GT$$u20$for$u20$i64$GT$4from17h46b7c0b057879bb3E
ffffff00002d2870 T _ZN2ux10conversion68_$LT$impl$u20$core..convert..From$LT$ux..i52$GT$$u20$for$u20$i64$GT$4from17h40c0396c9840932eE
ffffff00002d2870 T _ZN2ux10conversion68_$LT$impl$u20$core..convert..From$LT$ux..i53$GT$$u20$for$u20$i64$GT$4from17hed43f3eacd388103E
ffffff00002d2870 T _ZN2ux10conversion68_$LT$impl$u20$core..convert..From$LT$ux..i54$GT$$u20$for$u20$i64$GT$4from17hde99b9c8869e1ebaE
ffffff00002d2870 T _ZN2ux10conversion68_$LT$impl$u20$core..convert..From$LT$ux..i55$GT$$u20$for$u20$i64$GT$4from17h0a40694d31bae7b0E
ffffff00002d2870 T _ZN2ux10conversion68_$LT$impl$u20$core..convert..From$LT$ux..i56$GT$$u20$for$u20$i64$GT$4from17h186f0b6e8f28575aE
ffffff00002d2870 T _ZN2ux10conversion68_$LT$impl$u20$core..convert..From$LT$ux..i57$GT$$u20$for$u20$i64$GT$4from17hf670f54a8d94297dE
ffffff00002d2870 T _ZN2ux10conversion68_$LT$impl$u20$core..convert..From$LT$ux..i58$GT$$u20$for$u20$i64$GT$4from17hd5daecab579c2276E
ffffff00002d2870 T _ZN2ux10conversion68_$LT$impl$u20$core..convert..From$LT$ux..i59$GT$$u20$for$u20$i64$GT$4from17heb2c60a0b4500c37E
ffffff00002d2870 T _ZN2ux10conversion68_$LT$impl$u20$core..convert..From$LT$ux..i60$GT$$u20$for$u20$i64$GT$4from17hddfb76c517d629fdE
ffffff00002d2870 T _ZN2ux10conversion68_$LT$impl$u20$core..convert..From$LT$ux..i61$GT$$u20$for$u20$i64$GT$4from17hc0e5599c296aceceE
ffffff00002d2870 T _ZN2ux10conversion68_$LT$impl$u20$core..convert..From$LT$ux..i62$GT$$u20$for$u20$i64$GT$4from17h926d2675e8f1f84eE
ffffff00002d2870 T _ZN2ux10conversion68_$LT$impl$u20$core..convert..From$LT$ux..i63$GT$$u20$for$u20$i64$GT$4from17h22c816f116ccb1edE
ffffff00002d2750 T _ZN2ux10conversion68_$LT$impl$u20$core..convert..From$LT$ux..u1$GT$$u20$for$u20$bool$GT$4from17h2ca0162a724f3745E
ffffff00002d2800 T _ZN2ux10conversion68_$LT$impl$u20$core..convert..From$LT$ux..u10$GT$$u20$for$u20$u16$GT$4from17h484572167d99bdfdE
ffffff00002d27a0 T _ZN2ux10conversion68_$LT$impl$u20$core..convert..From$LT$ux..u10$GT$$u20$for$u20$u32$GT$4from17ha9ffdacbf2ec612aE
ffffff00002d27c0 T _ZN2ux10conversion68_$LT$impl$u20$core..convert..From$LT$ux..u10$GT$$u20$for$u20$u64$GT$4from17hffaba3b363cea289E
ffffff00002d2800 T _ZN2ux10conversion68_$LT$impl$u20$core..convert..From$LT$ux..u11$GT$$u20$for$u20$u16$GT$4from17hcb25883ce1b44713E
ffffff00002d27a0 T _ZN2ux10conversion68_$LT$impl$u20$core..convert..From$LT$ux..u11$GT$$u20$for$u20$u32$GT$4from17hbe36669d678ecff0E
ffffff00002d27c0 T _ZN2ux10conversion68_$LT$impl$u20$core..convert..From$LT$ux..u11$GT$$u20$for$u20$u64$GT$4from17h1754ddef10c066c9E
ffffff00002d2800 T _ZN2ux10conversion68_$LT$impl$u20$core..convert..From$LT$ux..u12$GT$$u20$for$u20$u16$GT$4from17ha73a1b4e3ca78428E
ffffff00002d27a0 T _ZN2ux10conversion68_$LT$impl$u20$core..convert..From$LT$ux..u12$GT$$u20$for$u20$u32$GT$4from17hb86498a29acd5962E
ffffff00002d27c0 T _ZN2ux10conversion68_$LT$impl$u20$core..convert..From$LT$ux..u12$GT$$u20$for$u20$u64$GT$4from17h12e0b021b0049ec0E
ffffff00002d2800 T _ZN2ux10conversion68_$LT$impl$u20$core..convert..From$LT$ux..u13$GT$$u20$for$u20$u16$GT$4from17h92ab569cd9f5fe2fE
ffffff00002d27a0 T _ZN2ux10conversion68_$LT$impl$u20$core..convert..From$LT$ux..u13$GT$$u20$for$u20$u32$GT$4from17h130565e0979d0a16E
ffffff00002d27c0 T _ZN2ux10conversion68_$LT$impl$u20$core..convert..From$LT$ux..u13$GT$$u20$for$u20$u64$GT$4from17haf17f37d7ae0e5d5E
ffffff00002d2800 T _ZN2ux10conversion68_$LT$impl$u20$core..convert..From$LT$ux..u14$GT$$u20$for$u20$u16$GT$4from17h26a5a3ec4f3d1e8aE
ffffff00002d27a0 T _ZN2ux10conversion68_$LT$impl$u20$core..convert..From$LT$ux..u14$GT$$u20$for$u20$u32$GT$4from17hc0d9a4f6a4bd12eeE
ffffff00002d27c0 T _ZN2ux10conversion68_$LT$impl$u20$core..convert..From$LT$ux..u14$GT$$u20$for$u20$u64$GT$4from17hd060ba185e3fadaaE
ffffff00002d2800 T _ZN2ux10conversion68_$LT$impl$u20$core..convert..From$LT$ux..u15$GT$$u20$for$u20$u16$GT$4from17h0e5fc109e8dd50b4E
ffffff00002d27a0 T _ZN2ux10conversion68_$LT$impl$u20$core..convert..From$LT$ux..u15$GT$$u20$for$u20$u32$GT$4from17h5b86b3d5a48182b4E
ffffff00002d27c0 T _ZN2ux10conversion68_$LT$impl$u20$core..convert..From$LT$ux..u15$GT$$u20$for$u20$u64$GT$4from17h31e59e872a29221cE
ffffff00002d2830 T _ZN2ux10conversion68_$LT$impl$u20$core..convert..From$LT$ux..u17$GT$$u20$for$u20$u32$GT$4from17h1698504324368bdfE
ffffff00002d27d0 T _ZN2ux10conversion68_$LT$impl$u20$core..convert..From$LT$ux..u17$GT$$u20$for$u20$u64$GT$4from17h5021590db667da29E
ffffff00002d2830 T _ZN2ux10conversion68_$LT$impl$u20$core..convert..From$LT$ux..u18$GT$$u20$for$u20$u32$GT$4from17h07b5f709d62f54a6E
ffffff00002d27d0 T _ZN2ux10conversion68_$LT$impl$u20$core..convert..From$LT$ux..u18$GT$$u20$for$u20$u64$GT$4from17h09bc90b91fd55714E
ffffff00002d2830 T _ZN2ux10conversion68_$LT$impl$u20$core..convert..From$LT$ux..u19$GT$$u20$for$u20$u32$GT$4from17hee5f813d979c8cf6E
ffffff00002d27d0 T _ZN2ux10conversion68_$LT$impl$u20$core..convert..From$LT$ux..u19$GT$$u20$for$u20$u64$GT$4from17h34feb4c2a9c6f8c1E
ffffff00002d2830 T _ZN2ux10conversion68_$LT$impl$u20$core..convert..From$LT$ux..u20$GT$$u20$for$u20$u32$GT$4from17h7aba0c944de8a19dE
ffffff00002d27d0 T _ZN2ux10conversion68_$LT$impl$u20$core..convert..From$LT$ux..u20$GT$$u20$for$u20$u64$GT$4from17haed8c3eab8166a84E
ffffff00002d2830 T _ZN2ux10conversion68_$LT$impl$u20$core..convert..From$LT$ux..u21$GT$$u20$for$u20$u32$GT$4from17hd08b18cf0f5a5142E
ffffff00002d27d0 T _ZN2ux10conversion68_$LT$impl$u20$core..convert..From$LT$ux..u21$GT$$u20$for$u20$u64$GT$4from17h94bdc027d98e90abE
ffffff00002d2830 T _ZN2ux10conversion68_$LT$impl$u20$core..convert..From$LT$ux..u22$GT$$u20$for$u20$u32$GT$4from17h06d04d496bc7f68eE
ffffff00002d27d0 T _ZN2ux10conversion68_$LT$impl$u20$core..convert..From$LT$ux..u22$GT$$u20$for$u20$u64$GT$4from17h00f0e1dcd59f70fcE
ffffff00002d2830 T _ZN2ux10conversion68_$LT$impl$u20$core..convert..From$LT$ux..u23$GT$$u20$for$u20$u32$GT$4from17hec831be9d3e6d101E
ffffff00002d27d0 T _ZN2ux10conversion68_$LT$impl$u20$core..convert..From$LT$ux..u23$GT$$u20$for$u20$u64$GT$4from17h02e9a78712bb1f2bE
ffffff00002d2830 T _ZN2ux10conversion68_$LT$impl$u20$core..convert..From$LT$ux..u24$GT$$u20$for$u20$u32$GT$4from17h8b2acaa8476ca00aE
ffffff00002d27d0 T _ZN2ux10conversion68_$LT$impl$u20$core..convert..From$LT$ux..u24$GT$$u20$for$u20$u64$GT$4from17hc34646d9f1863111E
ffffff00002d2830 T _ZN2ux10conversion68_$LT$impl$u20$core..convert..From$LT$ux..u25$GT$$u20$for$u20$u32$GT$4from17h30545aaea35021e0E
ffffff00002d27d0 T _ZN2ux10conversion68_$LT$impl$u20$core..convert..From$LT$ux..u25$GT$$u20$for$u20$u64$GT$4from17h111b01329a863c6cE
ffffff00002d2830 T _ZN2ux10conversion68_$LT$impl$u20$core..convert..From$LT$ux..u26$GT$$u20$for$u20$u32$GT$4from17hfe9da271cb593011E
ffffff00002d27d0 T _ZN2ux10conversion68_$LT$impl$u20$core..convert..From$LT$ux..u26$GT$$u20$for$u20$u64$GT$4from17h9ad298f0e105166fE
ffffff00002d2830 T _ZN2ux10conversion68_$LT$impl$u20$core..convert..From$LT$ux..u27$GT$$u20$for$u20$u32$GT$4from17h53fd3b513bf18d87E
ffffff00002d27d0 T _ZN2ux10conversion68_$LT$impl$u20$core..convert..From$LT$ux..u27$GT$$u20$for$u20$u64$GT$4from17h6b8e0333d4379a6aE
ffffff00002d2830 T _ZN2ux10conversion68_$LT$impl$u20$core..convert..From$LT$ux..u28$GT$$u20$for$u20$u32$GT$4from17h55f543427da279a8E
ffffff00002d27d0 T _ZN2ux10conversion68_$LT$impl$u20$core..convert..From$LT$ux..u28$GT$$u20$for$u20$u64$GT$4from17h0fe9f56081449419E
ffffff00002d2830 T _ZN2ux10conversion68_$LT$impl$u20$core..convert..From$LT$ux..u29$GT$$u20$for$u20$u32$GT$4from17h563bf32b4d248741E
ffffff00002d27d0 T _ZN2ux10conversion68_$LT$impl$u20$core..convert..From$LT$ux..u29$GT$$u20$for$u20$u64$GT$4from17h7c33d34193b299b7E
ffffff00002d2830 T _ZN2ux10conversion68_$LT$impl$u20$core..convert..From$LT$ux..u30$GT$$u20$for$u20$u32$GT$4from17h87db358023de4f50E
ffffff00002d27d0 T _ZN2ux10conversion68_$LT$impl$u20$core..convert..From$LT$ux..u30$GT$$u20$for$u20$u64$GT$4from17hed1c47bb49328d20E
ffffff00002d2830 T _ZN2ux10conversion68_$LT$impl$u20$core..convert..From$LT$ux..u31$GT$$u20$for$u20$u32$GT$4from17h40e5c011e737ce0bE
ffffff00002d27d0 T _ZN2ux10conversion68_$LT$impl$u20$core..convert..From$LT$ux..u31$GT$$u20$for$u20$u64$GT$4from17h062f1f85d81b5dceE
ffffff00002d2870 T _ZN2ux10conversion68_$LT$impl$u20$core..convert..From$LT$ux..u33$GT$$u20$for$u20$u64$GT$4from17hbfab1c6eb142e154E
ffffff00002d2870 T _ZN2ux10conversion68_$LT$impl$u20$core..convert..From$LT$ux..u34$GT$$u20$for$u20$u64$GT$4from17h317e79bddf82e27aE
ffffff00002d2870 T _ZN2ux10conversion68_$LT$impl$u20$core..convert..From$LT$ux..u35$GT$$u20$for$u20$u64$GT$4from17h19fc337dd6bd71fbE
ffffff00002d2870 T _ZN2ux10conversion68_$LT$impl$u20$core..convert..From$LT$ux..u36$GT$$u20$for$u20$u64$GT$4from17ha8686b1092154875E
ffffff00002d2870 T _ZN2ux10conversion68_$LT$impl$u20$core..convert..From$LT$ux..u37$GT$$u20$for$u20$u64$GT$4from17hf6f5d31e68a90d56E
ffffff00002d2870 T _ZN2ux10conversion68_$LT$impl$u20$core..convert..From$LT$ux..u38$GT$$u20$for$u20$u64$GT$4from17hd3fcbe3c577b8348E
ffffff00002d2870 T _ZN2ux10conversion68_$LT$impl$u20$core..convert..From$LT$ux..u39$GT$$u20$for$u20$u64$GT$4from17h89975eea1bbf1399E
ffffff00002d2870 T _ZN2ux10conversion68_$LT$impl$u20$core..convert..From$LT$ux..u40$GT$$u20$for$u20$u64$GT$4from17h68df918fe84cd161E
ffffff00002d2870 T _ZN2ux10conversion68_$LT$impl$u20$core..convert..From$LT$ux..u41$GT$$u20$for$u20$u64$GT$4from17hd03e8592d71ff31fE
ffffff00002d2870 T _ZN2ux10conversion68_$LT$impl$u20$core..convert..From$LT$ux..u42$GT$$u20$for$u20$u64$GT$4from17h9836d8d72e9a4f07E
ffffff00002d2870 T _ZN2ux10conversion68_$LT$impl$u20$core..convert..From$LT$ux..u43$GT$$u20$for$u20$u64$GT$4from17h5880c87c044686feE
ffffff00002d2870 T _ZN2ux10conversion68_$LT$impl$u20$core..convert..From$LT$ux..u44$GT$$u20$for$u20$u64$GT$4from17h425badd3000201fbE
ffffff00002d2870 T _ZN2ux10conversion68_$LT$impl$u20$core..convert..From$LT$ux..u45$GT$$u20$for$u20$u64$GT$4from17h7a692e21905e4133E
ffffff00002d2870 T _ZN2ux10conversion68_$LT$impl$u20$core..convert..From$LT$ux..u46$GT$$u20$for$u20$u64$GT$4from17h5547fd8d64592623E
ffffff00002d2870 T _ZN2ux10conversion68_$LT$impl$u20$core..convert..From$LT$ux..u47$GT$$u20$for$u20$u64$GT$4from17h93d92c8041315a4bE
ffffff00002d2870 T _ZN2ux10conversion68_$LT$impl$u20$core..convert..From$LT$ux..u48$GT$$u20$for$u20$u64$GT$4from17h16b6e6a70a32fdadE
ffffff00002d2870 T _ZN2ux10conversion68_$LT$impl$u20$core..convert..From$LT$ux..u49$GT$$u20$for$u20$u64$GT$4from17hec249a46f7786b81E
ffffff00002d2870 T _ZN2ux10conversion68_$LT$impl$u20$core..convert..From$LT$ux..u50$GT$$u20$for$u20$u64$GT$4from17h5e2817c9809f4477E
ffffff00002d2870 T _ZN2ux10conversion68_$LT$impl$u20$core..convert..From$LT$ux..u51$GT$$u20$for$u20$u64$GT$4from17h4fb84cdca48546beE
ffffff00002d2870 T _ZN2ux10conversion68_$LT$impl$u20$core..convert..From$LT$ux..u52$GT$$u20$for$u20$u64$GT$4from17h3524aca0127dd883E
ffffff00002d2870 T _ZN2ux10conversion68_$LT$impl$u20$core..convert..From$LT$ux..u53$GT$$u20$for$u20$u64$GT$4from17h552874aef66d8395E
ffffff00002d2870 T _ZN2ux10conversion68_$LT$impl$u20$core..convert..From$LT$ux..u54$GT$$u20$for$u20$u64$GT$4from17h8777ba503140382dE
ffffff00002d2870 T _ZN2ux10conversion68_$LT$impl$u20$core..convert..From$LT$ux..u55$GT$$u20$for$u20$u64$GT$4from17h44ba525621688639E
ffffff00002d2870 T _ZN2ux10conversion68_$LT$impl$u20$core..convert..From$LT$ux..u56$GT$$u20$for$u20$u64$GT$4from17h58ec1299ef404655E
ffffff00002d2870 T _ZN2ux10conversion68_$LT$impl$u20$core..convert..From$LT$ux..u57$GT$$u20$for$u20$u64$GT$4from17hc5ad9316f496b4bbE
ffffff00002d2870 T _ZN2ux10conversion68_$LT$impl$u20$core..convert..From$LT$ux..u58$GT$$u20$for$u20$u64$GT$4from17hb3a7720114fd7c5aE
ffffff00002d2870 T _ZN2ux10conversion68_$LT$impl$u20$core..convert..From$LT$ux..u59$GT$$u20$for$u20$u64$GT$4from17h4bbe3307b797e105E
ffffff00002d2870 T _ZN2ux10conversion68_$LT$impl$u20$core..convert..From$LT$ux..u60$GT$$u20$for$u20$u64$GT$4from17h0d1210d436958124E
ffffff00002d2870 T _ZN2ux10conversion68_$LT$impl$u20$core..convert..From$LT$ux..u61$GT$$u20$for$u20$u64$GT$4from17h2d4a57bd7fc46045E
ffffff00002d2870 T _ZN2ux10conversion68_$LT$impl$u20$core..convert..From$LT$ux..u62$GT$$u20$for$u20$u64$GT$4from17h2c8d6cca1a716e2bE
ffffff00002d2870 T _ZN2ux10conversion68_$LT$impl$u20$core..convert..From$LT$ux..u63$GT$$u20$for$u20$u64$GT$4from17h79b2d4d7c1d3573fE
ffffff00002d2960 T _ZN2ux10conversion70_$LT$impl$u20$core..convert..From$LT$ux..i2$GT$$u20$for$u20$ux..i3$GT$4from17h162a8b420508232fE
ffffff00002d2960 T _ZN2ux10conversion70_$LT$impl$u20$core..convert..From$LT$ux..i2$GT$$u20$for$u20$ux..i4$GT$4from17h657a5bd137c39f8fE
ffffff00002d2960 T _ZN2ux10conversion70_$LT$impl$u20$core..convert..From$LT$ux..i2$GT$$u20$for$u20$ux..i5$GT$4from17h1594d2af7ea915d2E
ffffff00002d2960 T _ZN2ux10conversion70_$LT$impl$u20$core..convert..From$LT$ux..i2$GT$$u20$for$u20$ux..i6$GT$4from17h8d8cb8f52328638dE
ffffff00002d2960 T _ZN2ux10conversion70_$LT$impl$u20$core..convert..From$LT$ux..i2$GT$$u20$for$u20$ux..i7$GT$4from17h5d3917450a9bc3e5E
ffffff00002d2900 T _ZN2ux10conversion70_$LT$impl$u20$core..convert..From$LT$ux..i2$GT$$u20$for$u20$ux..i9$GT$4from17h119387293f90b8b9E
ffffff00002d2960 T _ZN2ux10conversion70_$LT$impl$u20$core..convert..From$LT$ux..i3$GT$$u20$for$u20$ux..i4$GT$4from17hfc13c059da347661E
ffffff00002d2960 T _ZN2ux10conversion70_$LT$impl$u20$core..convert..From$LT$ux..i3$GT$$u20$for$u20$ux..i5$GT$4from17ha080c00f1548fc94E
ffffff00002d2960 T _ZN2ux10conversion70_$LT$impl$u20$core..convert..From$LT$ux..i3$GT$$u20$for$u20$ux..i6$GT$4from17hfe5a0c455378d82eE
ffffff00002d2960 T _ZN2ux10conversion70_$LT$impl$u20$core..convert..From$LT$ux..i3$GT$$u20$for$u20$ux..i7$GT$4from17hed5d104e55b68a69E
ffffff00002d2900 T _ZN2ux10conversion70_$LT$impl$u20$core..convert..From$LT$ux..i3$GT$$u20$for$u20$ux..i9$GT$4from17h86ec612f19225fc9E
ffffff00002d2960 T _ZN2ux10conversion70_$LT$impl$u20$core..convert..From$LT$ux..i4$GT$$u20$for$u20$ux..i5$GT$4from17he24a80e80866e952E
ffffff00002d2960 T _ZN2ux10conversion70_$LT$impl$u20$core..convert..From$LT$ux..i4$GT$$u20$for$u20$ux..i6$GT$4from17hc7f5f8f2ad18e1c4E
ffffff00002d2960 T _ZN2ux10conversion70_$LT$impl$u20$core..convert..From$LT$ux..i4$GT$$u20$for$u20$ux..i7$GT$4from17h378906290e9bcd7bE
ffffff00002d2900 T _ZN2ux10conversion70_$LT$impl$u20$core..convert..From$LT$ux..i4$GT$$u20$for$u20$ux..i9$GT$4from17he8b924ad0fadab28E
ffffff00002d2960 T _ZN2ux10conversion70_$LT$impl$u20$core..convert..From$LT$ux..i5$GT$$u20$for$u20$ux..i6$GT$4from17h7035d2d1db3576b8E
ffffff00002d2960 T _ZN2ux10conversion70_$LT$impl$u20$core..convert..From$LT$ux..i5$GT$$u20$for$u20$ux..i7$GT$4from17h5da884816175ed06E
ffffff00002d2900 T _ZN2ux10conversion70_$LT$impl$u20$core..convert..From$LT$ux..i5$GT$$u20$for$u20$ux..i9$GT$4from17hbc2d02cb2e1faa18E
ffffff00002d2960 T _ZN2ux10conversion70_$LT$impl$u20$core..convert..From$LT$ux..i6$GT$$u20$for$u20$ux..i7$GT$4from17hf1012ce63ae6a96fE
ffffff00002d2900 T _ZN2ux10conversion70_$LT$impl$u20$core..convert..From$LT$ux..i6$GT$$u20$for$u20$ux..i9$GT$4from17h906ee872a875b460E
ffffff00002d2900 T _ZN2ux10conversion70_$LT$impl$u20$core..convert..From$LT$ux..i7$GT$$u20$for$u20$ux..i9$GT$4from17h2359bacd5f9aa2e3E
ffffff00002d2960 T _ZN2ux10conversion70_$LT$impl$u20$core..convert..From$LT$ux..u2$GT$$u20$for$u20$ux..u3$GT$4from17h51694bba11c58fe7E
ffffff00002d2960 T _ZN2ux10conversion70_$LT$impl$u20$core..convert..From$LT$ux..u2$GT$$u20$for$u20$ux..u4$GT$4from17hbe1c9225208dcf7eE
ffffff00002d2960 T _ZN2ux10conversion70_$LT$impl$u20$core..convert..From$LT$ux..u2$GT$$u20$for$u20$ux..u5$GT$4from17h4232356e074a03daE
ffffff00002d2960 T _ZN2ux10conversion70_$LT$impl$u20$core..convert..From$LT$ux..u2$GT$$u20$for$u20$ux..u6$GT$4from17h19d5536490798404E
ffffff00002d2960 T _ZN2ux10conversion70_$LT$impl$u20$core..convert..From$LT$ux..u2$GT$$u20$for$u20$ux..u7$GT$4from17h017bc06832ab0d84E
ffffff00002d28a0 T _ZN2ux10conversion70_$LT$impl$u20$core..convert..From$LT$ux..u2$GT$$u20$for$u20$ux..u9$GT$4from17hec488574af89fc26E
ffffff00002d2960 T _ZN2ux10conversion70_$LT$impl$u20$core..convert..From$LT$ux..u3$GT$$u20$for$u20$ux..u4$GT$4from17h6fca3d3f435be5dfE
ffffff00002d2960 T _ZN2ux10conversion70_$LT$impl$u20$core..convert..From$LT$ux..u3$GT$$u20$for$u20$ux..u5$GT$4from17h2261e0a7b5cd10a6E
ffffff00002d2960 T _ZN2ux10conversion70_$LT$impl$u20$core..convert..From$LT$ux..u3$GT$$u20$for$u20$ux..u6$GT$4from17h3ba0756cef8b6ca3E
ffffff00002d2960 T _ZN2ux10conversion70_$LT$impl$u20$core..convert..From$LT$ux..u3$GT$$u20$for$u20$ux..u7$GT$4from17h64da76416397fa39E
ffffff00002d28a0 T _ZN2ux10conversion70_$LT$impl$u20$core..convert..From$LT$ux..u3$GT$$u20$for$u20$ux..u9$GT$4from17h6b1615b5d053afd1E
ffffff00002d2960 T _ZN2ux10conversion70_$LT$impl$u20$core..convert..From$LT$ux..u4$GT$$u20$for$u20$ux..u5$GT$4from17ha45431db75f956b5E
ffffff00002d2960 T _ZN2ux10conversion70_$LT$impl$u20$core..convert..From$LT$ux..u4$GT$$u20$for$u20$ux..u6$GT$4from17h12e3efd1dc7b9eacE
ffffff00002d2960 T _ZN2ux10conversion70_$LT$impl$u20$core..convert..From$LT$ux..u4$GT$$u20$for$u20$ux..u7$GT$4from17hd5cc95f96cf99adbE
ffffff00002d28a0 T _ZN2ux10conversion70_$LT$impl$u20$core..convert..From$LT$ux..u4$GT$$u20$for$u20$ux..u9$GT$4from17h1bf2ebe4847e3bc0E
ffffff00002d2960 T _ZN2ux10conversion70_$LT$impl$u20$core..convert..From$LT$ux..u5$GT$$u20$for$u20$ux..u6$GT$4from17h8f9fe50776a0913bE
ffffff00002d2960 T _ZN2ux10conversion70_$LT$impl$u20$core..convert..From$LT$ux..u5$GT$$u20$for$u20$ux..u7$GT$4from17h89e77e3efc22f83fE
ffffff00002d28a0 T _ZN2ux10conversion70_$LT$impl$u20$core..convert..From$LT$ux..u5$GT$$u20$for$u20$ux..u9$GT$4from17h9428fb066ba7426dE
ffffff00002d2960 T _ZN2ux10conversion70_$LT$impl$u20$core..convert..From$LT$ux..u6$GT$$u20$for$u20$ux..u7$GT$4from17h25c2fc85991e3413E
ffffff00002d28a0 T _ZN2ux10conversion70_$LT$impl$u20$core..convert..From$LT$ux..u6$GT$$u20$for$u20$ux..u9$GT$4from17h70f4ee6cb735883eE
ffffff00002d28a0 T _ZN2ux10conversion70_$LT$impl$u20$core..convert..From$LT$ux..u7$GT$$u20$for$u20$ux..u9$GT$4from17h1257e075383d0bf4E
ffffff00002d2900 T _ZN2ux10conversion71_$LT$impl$u20$core..convert..From$LT$ux..i2$GT$$u20$for$u20$ux..i10$GT$4from17h5a4375348287d410E
ffffff00002d2900 T _ZN2ux10conversion71_$LT$impl$u20$core..convert..From$LT$ux..i2$GT$$u20$for$u20$ux..i11$GT$4from17h9dab5ff58d311077E
ffffff00002d2900 T _ZN2ux10conversion71_$LT$impl$u20$core..convert..From$LT$ux..i2$GT$$u20$for$u20$ux..i12$GT$4from17hf7d5f2a21d289abdE
ffffff00002d2900 T _ZN2ux10conversion71_$LT$impl$u20$core..convert..From$LT$ux..i2$GT$$u20$for$u20$ux..i13$GT$4from17had3358bc26288ba2E
ffffff00002d2900 T _ZN2ux10conversion71_$LT$impl$u20$core..convert..From$LT$ux..i2$GT$$u20$for$u20$ux..i14$GT$4from17h05fe73f8c9c6c31fE
ffffff00002d2900 T _ZN2ux10conversion71_$LT$impl$u20$core..convert..From$LT$ux..i2$GT$$u20$for$u20$ux..i15$GT$4from17h2e027ca937ed9aa1E
ffffff00002d2910 T _ZN2ux10conversion71_$LT$impl$u20$core..convert..From$LT$ux..i2$GT$$u20$for$u20$ux..i17$GT$4from17h91b1abc13a0fa7e1E
ffffff00002d2910 T _ZN2ux10conversion71_$LT$impl$u20$core..convert..From$LT$ux..i2$GT$$u20$for$u20$ux..i18$GT$4from17ha6b531eecca4d08dE
ffffff00002d2910 T _ZN2ux10conversion71_$LT$impl$u20$core..convert..From$LT$ux..i2$GT$$u20$for$u20$ux..i19$GT$4from17hd1469ef44bdd3845E
ffffff00002d2910 T _ZN2ux10conversion71_$LT$impl$u20$core..convert..From$LT$ux..i2$GT$$u20$for$u20$ux..i20$GT$4from17h32256182090e6cebE
ffffff00002d2910 T _ZN2ux10conversion71_$LT$impl$u20$core..convert..From$LT$ux..i2$GT$$u20$for$u20$ux..i21$GT$4from17h9d09ae19a803d79bE
ffffff00002d2910 T _ZN2ux10conversion71_$LT$impl$u20$core..convert..From$LT$ux..i2$GT$$u20$for$u20$ux..i22$GT$4from17hd627b2fd4ee5a584E
ffffff00002d2910 T _ZN2ux10conversion71_$LT$impl$u20$core..convert..From$LT$ux..i2$GT$$u20$for$u20$ux..i23$GT$4from17h58589a19c7d65bb6E
ffffff00002d2910 T _ZN2ux10conversion71_$LT$impl$u20$core..convert..From$LT$ux..i2$GT$$u20$for$u20$ux..i24$GT$4from17hb73699ad2f988cf6E
ffffff00002d2910 T _ZN2ux10conversion71_$LT$impl$u20$core..convert..From$LT$ux..i2$GT$$u20$for$u20$ux..i25$GT$4from17h4fee05a869b16357E
ffffff00002d2910 T _ZN2ux10conversion71_$LT$impl$u20$core..convert..From$LT$ux..i2$GT$$u20$for$u20$ux..i26$GT$4from17h1b80622fe7c6f011E
ffffff00002d2910 T _ZN2ux10conversion71_$LT$impl$u20$core..convert..From$LT$ux..i2$GT$$u20$for$u20$ux..i27$GT$4from17h64a722df7ce3822aE
ffffff00002d2910 T _ZN2ux10conversion71_$LT$impl$u20$core..convert..From$LT$ux..i2$GT$$u20$for$u20$ux..i28$GT$4from17hbcb0372dcf7167ddE
ffffff00002d2910 T _ZN2ux10conversion71_$LT$impl$u20$core..convert..From$LT$ux..i2$GT$$u20$for$u20$ux..i29$GT$4from17h31c6ca6a6f2ecefaE
ffffff00002d2910 T _ZN2ux10conversion71_$LT$impl$u20$core..convert..From$LT$ux..i2$GT$$u20$for$u20$ux..i30$GT$4from17hd7699b26ba91112dE
ffffff00002d2910 T _ZN2ux10conversion71_$LT$impl$u20$core..convert..From$LT$ux..i2$GT$$u20$for$u20$ux..i31$GT$4from17h44cff49e580982f5E
ffffff00002d2920 T _ZN2ux10conversion71_$LT$impl$u20$core..convert..From$LT$ux..i2$GT$$u20$for$u20$ux..i33$GT$4from17hc90f076b55922fb9E
ffffff00002d2920 T _ZN2ux10conversion71_$LT$impl$u20$core..convert..From$LT$ux..i2$GT$$u20$for$u20$ux..i34$GT$4from17h2b97f847f00b9b7aE
ffffff00002d2920 T _ZN2ux10conversion71_$LT$impl$u20$core..convert..From$LT$ux..i2$GT$$u20$for$u20$ux..i35$GT$4from17h12d1d592be9f05aeE
ffffff00002d2920 T _ZN2ux10conversion71_$LT$impl$u20$core..convert..From$LT$ux..i2$GT$$u20$for$u20$ux..i36$GT$4from17hfa81abf1996e64a6E
ffffff00002d2920 T _ZN2ux10conversion71_$LT$impl$u20$core..convert..From$LT$ux..i2$GT$$u20$for$u20$ux..i37$GT$4from17h104cfd60118c7854E
ffffff00002d2920 T _ZN2ux10conversion71_$LT$impl$u20$core..convert..From$LT$ux..i2$GT$$u20$for$u20$ux..i38$GT$4from17h2637b030f8a040f5E
ffffff00002d2920 T _ZN2ux10conversion71_$LT$impl$u20$core..convert..From$LT$ux..i2$GT$$u20$for$u20$ux..i39$GT$4from17he3080edc3120af82E
ffffff00002d2920 T _ZN2ux10conversion71_$LT$impl$u20$core..convert..From$LT$ux..i2$GT$$u20$for$u20$ux..i40$GT$4from17haa8e7f0ab9e8c4c3E
ffffff00002d2920 T _ZN2ux10conversion71_$LT$impl$u20$core..convert..From$LT$ux..i2$GT$$u20$for$u20$ux..i41$GT$4from17hb4cc27ffdb3b88e7E
ffffff00002d2920 T _ZN2ux10conversion71_$LT$impl$u20$core..convert..From$LT$ux..i2$GT$$u20$for$u20$ux..i42$GT$4from17ha4fdcc2e5a267364E
ffffff00002d2920 T _ZN2ux10conversion71_$LT$impl$u20$core..convert..From$LT$ux..i2$GT$$u20$for$u20$ux..i43$GT$4from17h4b94e7f453c5a758E
ffffff00002d2920 T _ZN2ux10conversion71_$LT$impl$u20$core..convert..From$LT$ux..i2$GT$$u20$for$u20$ux..i44$GT$4from17h9ce057db9b988503E
ffffff00002d2920 T _ZN2ux10conversion71_$LT$impl$u20$core..convert..From$LT$ux..i2$GT$$u20$for$u20$ux..i45$GT$4from17h56756fc1965411aaE
ffffff00002d2920 T _ZN2ux10conversion71_$LT$impl$u20$core..convert..From$LT$ux..i2$GT$$u20$for$u20$ux..i46$GT$4from17h1736d8c7eedc33ceE
ffffff00002d2920 T _ZN2ux10conversion71_$LT$impl$u20$core..convert..From$LT$ux..i2$GT$$u20$for$u20$ux..i47$GT$4from17h5108bdbeeeb5579dE
ffffff00002d2920 T _ZN2ux10conversion71_$LT$impl$u20$core..convert..From$LT$ux..i2$GT$$u20$for$u20$ux..i48$GT$4from17h4d62110de01c95dcE
ffffff00002d2920 T _ZN2ux10conversion71_$LT$impl$u20$core..convert..From$LT$ux..i2$GT$$u20$for$u20$ux..i49$GT$4from17hf87dd2dcf00aadb1E
ffffff00002d2920 T _ZN2ux10conversion71_$LT$impl$u20$core..convert..From$LT$ux..i2$GT$$u20$for$u20$ux..i50$GT$4from17hcb608ca418aac5f5E
ffffff00002d2920 T _ZN2ux10conversion71_$LT$impl$u20$core..convert..From$LT$ux..i2$GT$$u20$for$u20$ux..i51$GT$4from17h5b66a39a08fda953E
ffffff00002d2920 T _ZN2ux10conversion71_$LT$impl$u20$core..convert..From$LT$ux..i2$GT$$u20$for$u20$ux..i52$GT$4from17h5157ea503bb287a7E
ffffff00002d2920 T _ZN2ux10conversion71_$LT$impl$u20$core..convert..From$LT$ux..i2$GT$$u20$for$u20$ux..i53$GT$4from17hc4b148cb9682bfe3E
ffffff00002d2920 T _ZN2ux10conversion71_$LT$impl$u20$core..convert..From$LT$ux..i2$GT$$u20$for$u20$ux..i54$GT$4from17h7108e254cbfbd739E
ffffff00002d2920 T _ZN2ux10conversion71_$LT$impl$u20$core..convert..From$LT$ux..i2$GT$$u20$for$u20$ux..i55$GT$4from17h30681c0598f06201E
ffffff00002d2920 T _ZN2ux10conversion71_$LT$impl$u20$core..convert..From$LT$ux..i2$GT$$u20$for$u20$ux..i56$GT$4from17hc4733c2614dbc51eE
ffffff00002d2920 T _ZN2ux10conversion71_$LT$impl$u20$core..convert..From$LT$ux..i2$GT$$u20$for$u20$ux..i57$GT$4from17h17e61b45b70154fdE
ffffff00002d2920 T _ZN2ux10conversion71_$LT$impl$u20$core..convert..From$LT$ux..i2$GT$$u20$for$u20$ux..i58$GT$4from17he17c3fda941d511eE
ffffff00002d2920 T _ZN2ux10conversion71_$LT$impl$u20$core..convert..From$LT$ux..i2$GT$$u20$for$u20$ux..i59$GT$4from17hce071e18146fe609E
ffffff00002d2920 T _ZN2ux10conversion71_$LT$impl$u20$core..convert..From$LT$ux..i2$GT$$u20$for$u20$ux..i60$GT$4from17hf9b67307376316e2E
ffffff00002d2920 T _ZN2ux10conversion71_$LT$impl$u20$core..convert..From$LT$ux..i2$GT$$u20$for$u20$ux..i61$GT$4from17hddf7f8c95ffaea78E
ffffff00002d2920 T _ZN2ux10conversion71_$LT$impl$u20$core..convert..From$LT$ux..i2$GT$$u20$for$u20$ux..i62$GT$4from17hada7405afffe28e5E
ffffff00002d2920 T _ZN2ux10conversion71_$LT$impl$u20$core..convert..From$LT$ux..i2$GT$$u20$for$u20$ux..i63$GT$4from17h644aae74276096f7E
ffffff00002d2900 T _ZN2ux10conversion71_$LT$impl$u20$core..convert..From$LT$ux..i3$GT$$u20$for$u20$ux..i10$GT$4from17hbfe61c468368aeffE
ffffff00002d2900 T _ZN2ux10conversion71_$LT$impl$u20$core..convert..From$LT$ux..i3$GT$$u20$for$u20$ux..i11$GT$4from17h0f3dbe5c3565e67cE
ffffff00002d2900 T _ZN2ux10conversion71_$LT$impl$u20$core..convert..From$LT$ux..i3$GT$$u20$for$u20$ux..i12$GT$4from17h978375459d6f6835E
ffffff00002d2900 T _ZN2ux10conversion71_$LT$impl$u20$core..convert..From$LT$ux..i3$GT$$u20$for$u20$ux..i13$GT$4from17hf542e92d3f8c07c0E
ffffff00002d2900 T _ZN2ux10conversion71_$LT$impl$u20$core..convert..From$LT$ux..i3$GT$$u20$for$u20$ux..i14$GT$4from17hf35bfe2ef1aabf13E
ffffff00002d2900 T _ZN2ux10conversion71_$LT$impl$u20$core..convert..From$LT$ux..i3$GT$$u20$for$u20$ux..i15$GT$4from17h4293c2fd65270cc3E
ffffff00002d2910 T _ZN2ux10conversion71_$LT$impl$u20$core..convert..From$LT$ux..i3$GT$$u20$for$u20$ux..i17$GT$4from17hbee75a9ddef6fc6eE
ffffff00002d2910 T _ZN2ux10conversion71_$LT$impl$u20$core..convert..From$LT$ux..i3$GT$$u20$for$u20$ux..i18$GT$4from17h074a6cea4608b13eE
ffffff00002d2910 T _ZN2ux10conversion71_$LT$impl$u20$core..convert..From$LT$ux..i3$GT$$u20$for$u20$ux..i19$GT$4from17h74c409e31aeb61fcE
ffffff00002d2910 T _ZN2ux10conversion71_$LT$impl$u20$core..convert..From$LT$ux..i3$GT$$u20$for$u20$ux..i20$GT$4from17h36edce4c991f9b03E
ffffff00002d2910 T _ZN2ux10conversion71_$LT$impl$u20$core..convert..From$LT$ux..i3$GT$$u20$for$u20$ux..i21$GT$4from17h0be538cefe163f61E
ffffff00002d2910 T _ZN2ux10conversion71_$LT$impl$u20$core..convert..From$LT$ux..i3$GT$$u20$for$u20$ux..i22$GT$4from17h18b813f7ccc5720eE
ffffff00002d2910 T _ZN2ux10conversion71_$LT$impl$u20$core..convert..From$LT$ux..i3$GT$$u20$for$u20$ux..i23$GT$4from17hcf937334e2356a36E
ffffff00002d2910 T _ZN2ux10conversion71_$LT$impl$u20$core..convert..From$LT$ux..i3$GT$$u20$for$u20$ux..i24$GT$4from17h794bb7856c7001a7E
ffffff00002d2910 T _ZN2ux10conversion71_$LT$impl$u20$core..convert..From$LT$ux..i3$GT$$u20$for$u20$ux..i25$GT$4from17hf93acfdc104f38dfE
ffffff00002d2910 T _ZN2ux10conversion71_$LT$impl$u20$core..convert..From$LT$ux..i3$GT$$u20$for$u20$ux..i26$GT$4from17h04e4a5d1e0c197e1E
ffffff00002d2910 T _ZN2ux10conversion71_$LT$impl$u20$core..convert..From$LT$ux..i3$GT$$u20$for$u20$ux..i27$GT$4from17h1d7686fbf281541cE
ffffff00002d2910 T _ZN2ux10conversion71_$LT$impl$u20$core..convert..From$LT$ux..i3$GT$$u20$for$u20$ux..i28$GT$4from17h270617a9ab256f38E
ffffff00002d2910 T _ZN2ux10conversion71_$LT$impl$u20$core..convert..From$LT$ux..i3$GT$$u20$for$u20$ux..i29$GT$4from17h65b36b5574fcdf6aE
ffffff00002d2910 T _ZN2ux10conversion71_$LT$impl$u20$core..convert..From$LT$ux..i3$GT$$u20$for$u20$ux..i30$GT$4from17h1f2c1da8ff1c66c9E
ffffff00002d2910 T _ZN2ux10conversion71_$LT$impl$u20$core..convert..From$LT$ux..i3$GT$$u20$for$u20$ux..i31$GT$4from17h8692911c87ec27c3E
ffffff00002d2920 T _ZN2ux10conversion71_$LT$impl$u20$core..convert..From$LT$ux..i3$GT$$u20$for$u20$ux..i33$GT$4from17hc4033828b19f66cdE
ffffff00002d2920 T _ZN2ux10conversion71_$LT$impl$u20$core..convert..From$LT$ux..i3$GT$$u20$for$u20$ux..i34$GT$4from17h9c973c9dae4cdd8fE
ffffff00002d2920 T _ZN2ux10conversion71_$LT$impl$u20$core..convert..From$LT$ux..i3$GT$$u20$for$u20$ux..i35$GT$4from17h7a0cb5da71421942E
ffffff00002d2920 T _ZN2ux10conversion71_$LT$impl$u20$core..convert..From$LT$ux..i3$GT$$u20$for$u20$ux..i36$GT$4from17h4dd8a21daceecc96E
ffffff00002d2920 T _ZN2ux10conversion71_$LT$impl$u20$core..convert..From$LT$ux..i3$GT$$u20$for$u20$ux..i37$GT$4from17h5425062ec9ac375dE
ffffff00002d2920 T _ZN2ux10conversion71_$LT$impl$u20$core..convert..From$LT$ux..i3$GT$$u20$for$u20$ux..i38$GT$4from17h04b62f68e8a2d166E
ffffff00002d2920 T _ZN2ux10conversion71_$LT$impl$u20$core..convert..From$LT$ux..i3$GT$$u20$for$u20$ux..i39$GT$4from17h443e86b169494e77E
ffffff00002d2920 T _ZN2ux10conversion71_$LT$impl$u20$core..convert..From$LT$ux..i3$GT$$u20$for$u20$ux..i40$GT$4from17h3c5af5c0f6c3ac04E
ffffff00002d2920 T _ZN2ux10conversion71_$LT$impl$u20$core..convert..From$LT$ux..i3$GT$$u20$for$u20$ux..i41$GT$4from17hda21c4a2a8a34e27E
ffffff00002d2920 T _ZN2ux10conversion71_$LT$impl$u20$core..convert..From$LT$ux..i3$GT$$u20$for$u20$ux..i42$GT$4from17h8ffbd2e73b4fc701E
ffffff00002d2920 T _ZN2ux10conversion71_$LT$impl$u20$core..convert..From$LT$ux..i3$GT$$u20$for$u20$ux..i43$GT$4from17h135117e9387ced74E
ffffff00002d2920 T _ZN2ux10conversion71_$LT$impl$u20$core..convert..From$LT$ux..i3$GT$$u20$for$u20$ux..i44$GT$4from17h73173a5196ce9f85E
ffffff00002d2920 T _ZN2ux10conversion71_$LT$impl$u20$core..convert..From$LT$ux..i3$GT$$u20$for$u20$ux..i45$GT$4from17h8dc8f306607c8c87E
ffffff00002d2920 T _ZN2ux10conversion71_$LT$impl$u20$core..convert..From$LT$ux..i3$GT$$u20$for$u20$ux..i46$GT$4from17h99c13825709c6030E
ffffff00002d2920 T _ZN2ux10conversion71_$LT$impl$u20$core..convert..From$LT$ux..i3$GT$$u20$for$u20$ux..i47$GT$4from17h73e2ab4c148ada56E
ffffff00002d2920 T _ZN2ux10conversion71_$LT$impl$u20$core..convert..From$LT$ux..i3$GT$$u20$for$u20$ux..i48$GT$4from17h1be706234f7d4001E
ffffff00002d2920 T _ZN2ux10conversion71_$LT$impl$u20$core..convert..From$LT$ux..i3$GT$$u20$for$u20$ux..i49$GT$4from17h5adc755bd66263f4E
ffffff00002d2920 T _ZN2ux10conversion71_$LT$impl$u20$core..convert..From$LT$ux..i3$GT$$u20$for$u20$ux..i50$GT$4from17hb48b31ec7c032296E
ffffff00002d2920 T _ZN2ux10conversion71_$LT$impl$u20$core..convert..From$LT$ux..i3$GT$$u20$for$u20$ux..i51$GT$4from17hc84b25a6aca650adE
ffffff00002d2920 T _ZN2ux10conversion71_$LT$impl$u20$core..convert..From$LT$ux..i3$GT$$u20$for$u20$ux..i52$GT$4from17h3b8244dfcf9a5182E
ffffff00002d2920 T _ZN2ux10conversion71_$LT$impl$u20$core..convert..From$LT$ux..i3$GT$$u20$for$u20$ux..i53$GT$4from17h414871e7b73fedecE
ffffff00002d2920 T _ZN2ux10conversion71_$LT$impl$u20$core..convert..From$LT$ux..i3$GT$$u20$for$u20$ux..i54$GT$4from17h9ec1fdcc4bb47d7aE
ffffff00002d2920 T _ZN2ux10conversion71_$LT$impl$u20$core..convert..From$LT$ux..i3$GT$$u20$for$u20$ux..i55$GT$4from17h76fce082584e220aE
ffffff00002d2920 T _ZN2ux10conversion71_$LT$impl$u20$core..convert..From$LT$ux..i3$GT$$u20$for$u20$ux..i56$GT$4from17h37a4d4f1edc471d2E
ffffff00002d2920 T _ZN2ux10conversion71_$LT$impl$u20$core..convert..From$LT$ux..i3$GT$$u20$for$u20$ux..i57$GT$4from17hdc060b9d96afa42fE
ffffff00002d2920 T _ZN2ux10conversion71_$LT$impl$u20$core..convert..From$LT$ux..i3$GT$$u20$for$u20$ux..i58$GT$4from17h09877f010fa86ecbE
ffffff00002d2920 T _ZN2ux10conversion71_$LT$impl$u20$core..convert..From$LT$ux..i3$GT$$u20$for$u20$ux..i59$GT$4from17h7f98fadf3034dd88E
ffffff00002d2920 T _ZN2ux10conversion71_$LT$impl$u20$core..convert..From$LT$ux..i3$GT$$u20$for$u20$ux..i60$GT$4from17h1e31c40812f14e59E
ffffff00002d2920 T _ZN2ux10conversion71_$LT$impl$u20$core..convert..From$LT$ux..i3$GT$$u20$for$u20$ux..i61$GT$4from17hb47ce35285812317E
ffffff00002d2920 T _ZN2ux10conversion71_$LT$impl$u20$core..convert..From$LT$ux..i3$GT$$u20$for$u20$ux..i62$GT$4from17hced2831eabfef5a9E
ffffff00002d2920 T _ZN2ux10conversion71_$LT$impl$u20$core..convert..From$LT$ux..i3$GT$$u20$for$u20$ux..i63$GT$4from17h8026cb4471a8d924E
ffffff00002d2900 T _ZN2ux10conversion71_$LT$impl$u20$core..convert..From$LT$ux..i4$GT$$u20$for$u20$ux..i10$GT$4from17hfad4feb0623da7beE
ffffff00002d2900 T _ZN2ux10conversion71_$LT$impl$u20$core..convert..From$LT$ux..i4$GT$$u20$for$u20$ux..i11$GT$4from17h949818692d0b37cfE
ffffff00002d2900 T _ZN2ux10conversion71_$LT$impl$u20$core..convert..From$LT$ux..i4$GT$$u20$for$u20$ux..i12$GT$4from17h49a685eec2eb009eE
ffffff00002d2900 T _ZN2ux10conversion71_$LT$impl$u20$core..convert..From$LT$ux..i4$GT$$u20$for$u20$ux..i13$GT$4from17h14d56b79b119eea4E
ffffff00002d2900 T _ZN2ux10conversion71_$LT$impl$u20$core..convert..From$LT$ux..i4$GT$$u20$for$u20$ux..i14$GT$4from17h7e81384e8ca84ca8E
ffffff00002d2900 T _ZN2ux10conversion71_$LT$impl$u20$core..convert..From$LT$ux..i4$GT$$u20$for$u20$ux..i15$GT$4from17hdebec19632a39bdeE
ffffff00002d2910 T _ZN2ux10conversion71_$LT$impl$u20$core..convert..From$LT$ux..i4$GT$$u20$for$u20$ux..i17$GT$4from17ha4c8ab0f52fc8d2dE
ffffff00002d2910 T _ZN2ux10conversion71_$LT$impl$u20$core..convert..From$LT$ux..i4$GT$$u20$for$u20$ux..i18$GT$4from17h262798c12317f118E
ffffff00002d2910 T _ZN2ux10conversion71_$LT$impl$u20$core..convert..From$LT$ux..i4$GT$$u20$for$u20$ux..i19$GT$4from17h9aa0498f4b6a266eE
ffffff00002d2910 T _ZN2ux10conversion71_$LT$impl$u20$core..convert..From$LT$ux..i4$GT$$u20$for$u20$ux..i20$GT$4from17hb11cfeedfa36784fE
ffffff00002d2910 T _ZN2ux10conversion71_$LT$impl$u20$core..convert..From$LT$ux..i4$GT$$u20$for$u20$ux..i21$GT$4from17h6efe85de17e71652E
ffffff00002d2910 T _ZN2ux10conversion71_$LT$impl$u20$core..convert..From$LT$ux..i4$GT$$u20$for$u20$ux..i22$GT$4from17hb284cd12588fff4aE
ffffff00002d2910 T _ZN2ux10conversion71_$LT$impl$u20$core..convert..From$LT$ux..i4$GT$$u20$for$u20$ux..i23$GT$4from17hdc5c82bec5e93a7eE
ffffff00002d2910 T _ZN2ux10conversion71_$LT$impl$u20$core..convert..From$LT$ux..i4$GT$$u20$for$u20$ux..i24$GT$4from17h8681221bd2e9a10dE
ffffff00002d2910 T _ZN2ux10conversion71_$LT$impl$u20$core..convert..From$LT$ux..i4$GT$$u20$for$u20$ux..i25$GT$4from17h57978ef0ad024f75E
ffffff00002d2910 T _ZN2ux10conversion71_$LT$impl$u20$core..convert..From$LT$ux..i4$GT$$u20$for$u20$ux..i26$GT$4from17hbf5f5fb82562ea2dE
ffffff00002d2910 T _ZN2ux10conversion71_$LT$impl$u20$core..convert..From$LT$ux..i4$GT$$u20$for$u20$ux..i27$GT$4from17hccbb0fe1c85fd831E
ffffff00002d2910 T _ZN2ux10conversion71_$LT$impl$u20$core..convert..From$LT$ux..i4$GT$$u20$for$u20$ux..i28$GT$4from17h359e216e8af7f752E
ffffff00002d2910 T _ZN2ux10conversion71_$LT$impl$u20$core..convert..From$LT$ux..i4$GT$$u20$for$u20$ux..i29$GT$4from17h94fa03df363ae08aE
ffffff00002d2910 T _ZN2ux10conversion71_$LT$impl$u20$core..convert..From$LT$ux..i4$GT$$u20$for$u20$ux..i30$GT$4from17hf0405a1a677be532E
ffffff00002d2910 T _ZN2ux10conversion71_$LT$impl$u20$core..convert..From$LT$ux..i4$GT$$u20$for$u20$ux..i31$GT$4from17h7913496f31c2facaE
ffffff00002d2920 T _ZN2ux10conversion71_$LT$impl$u20$core..convert..From$LT$ux..i4$GT$$u20$for$u20$ux..i33$GT$4from17h236012155325cb04E
ffffff00002d2920 T _ZN2ux10conversion71_$LT$impl$u20$core..convert..From$LT$ux..i4$GT$$u20$for$u20$ux..i34$GT$4from17hee587a170c201fbbE
ffffff00002d2920 T _ZN2ux10conversion71_$LT$impl$u20$core..convert..From$LT$ux..i4$GT$$u20$for$u20$ux..i35$GT$4from17h69413015d73d2c28E
ffffff00002d2920 T _ZN2ux10conversion71_$LT$impl$u20$core..convert..From$LT$ux..i4$GT$$u20$for$u20$ux..i36$GT$4from17h9bbe42de66b4cbeeE
ffffff00002d2920 T _ZN2ux10conversion71_$LT$impl$u20$core..convert..From$LT$ux..i4$GT$$u20$for$u20$ux..i37$GT$4from17h9dc9eab5af4698d7E
ffffff00002d2920 T _ZN2ux10conversion71_$LT$impl$u20$core..convert..From$LT$ux..i4$GT$$u20$for$u20$ux..i38$GT$4from17hdd4b116926f4788fE
ffffff00002d2920 T _ZN2ux10conversion71_$LT$impl$u20$core..convert..From$LT$ux..i4$GT$$u20$for$u20$ux..i39$GT$4from17h029cbc5e1e5e5722E
ffffff00002d2920 T _ZN2ux10conversion71_$LT$impl$u20$core..convert..From$LT$ux..i4$GT$$u20$for$u20$ux..i40$GT$4from17haeb0f1cffc17cb30E
ffffff00002d2920 T _ZN2ux10conversion71_$LT$impl$u20$core..convert..From$LT$ux..i4$GT$$u20$for$u20$ux..i41$GT$4from17h36de3dc5dbd6668dE
ffffff00002d2920 T _ZN2ux10conversion71_$LT$impl$u20$core..convert..From$LT$ux..i4$GT$$u20$for$u20$ux..i42$GT$4from17h9dfa40acbf4ebbfbE
ffffff00002d2920 T _ZN2ux10conversion71_$LT$impl$u20$core..convert..From$LT$ux..i4$GT$$u20$for$u20$ux..i43$GT$4from17hc417ae4bc0d2225fE
ffffff00002d2920 T _ZN2ux10conversion71_$LT$impl$u20$core..convert..From$LT$ux..i4$GT$$u20$for$u20$ux..i44$GT$4from17habb487549ff833e3E
ffffff00002d2920 T _ZN2ux10conversion71_$LT$impl$u20$core..convert..From$LT$ux..i4$GT$$u20$for$u20$ux..i45$GT$4from17h22dba0b864bbf8b5E
ffffff00002d2920 T _ZN2ux10conversion71_$LT$impl$u20$core..convert..From$LT$ux..i4$GT$$u20$for$u20$ux..i46$GT$4from17hcbfd30330aa7d1f6E
ffffff00002d2920 T _ZN2ux10conversion71_$LT$impl$u20$core..convert..From$LT$ux..i4$GT$$u20$for$u20$ux..i47$GT$4from17h53ecc63ffdc149e6E
ffffff00002d2920 T _ZN2ux10conversion71_$LT$impl$u20$core..convert..From$LT$ux..i4$GT$$u20$for$u20$ux..i48$GT$4from17hcc53ca315edcfd7cE
ffffff00002d2920 T _ZN2ux10conversion71_$LT$impl$u20$core..convert..From$LT$ux..i4$GT$$u20$for$u20$ux..i49$GT$4from17h18a7e41680f1088dE
ffffff00002d2920 T _ZN2ux10conversion71_$LT$impl$u20$core..convert..From$LT$ux..i4$GT$$u20$for$u20$ux..i50$GT$4from17h28b17a17fc50b47dE
ffffff00002d2920 T _ZN2ux10conversion71_$LT$impl$u20$core..convert..From$LT$ux..i4$GT$$u20$for$u20$ux..i51$GT$4from17h92d28201187646ecE
ffffff00002d2920 T _ZN2ux10conversion71_$LT$impl$u20$core..convert..From$LT$ux..i4$GT$$u20$for$u20$ux..i52$GT$4from17hcde5cb8b761e982bE
ffffff00002d2920 T _ZN2ux10conversion71_$LT$impl$u20$core..convert..From$LT$ux..i4$GT$$u20$for$u20$ux..i53$GT$4from17h61997904bfb74ba0E
ffffff00002d2920 T _ZN2ux10conversion71_$LT$impl$u20$core..convert..From$LT$ux..i4$GT$$u20$for$u20$ux..i54$GT$4from17h22d62c26c96de303E
ffffff00002d2920 T _ZN2ux10conversion71_$LT$impl$u20$core..convert..From$LT$ux..i4$GT$$u20$for$u20$ux..i55$GT$4from17h43c832cae0fb800eE
ffffff00002d2920 T _ZN2ux10conversion71_$LT$impl$u20$core..convert..From$LT$ux..i4$GT$$u20$for$u20$ux..i56$GT$4from17h25ed9a307e4f5658E
ffffff00002d2920 T _ZN2ux10conversion71_$LT$impl$u20$core..convert..From$LT$ux..i4$GT$$u20$for$u20$ux..i57$GT$4from17ha92a77fc19076e81E
ffffff00002d2920 T _ZN2ux10conversion71_$LT$impl$u20$core..convert..From$LT$ux..i4$GT$$u20$for$u20$ux..i58$GT$4from17heea6f28bcc73654cE
ffffff00002d2920 T _ZN2ux10conversion71_$LT$impl$u20$core..convert..From$LT$ux..i4$GT$$u20$for$u20$ux..i59$GT$4from17hcffaade198c6770eE
ffffff00002d2920 T _ZN2ux10conversion71_$LT$impl$u20$core..convert..From$LT$ux..i4$GT$$u20$for$u20$ux..i60$GT$4from17h8f08749c2bdc345eE
ffffff00002d2920 T _ZN2ux10conversion71_$LT$impl$u20$core..convert..From$LT$ux..i4$GT$$u20$for$u20$ux..i61$GT$4from17h0ff61fab7b045312E
ffffff00002d2920 T _ZN2ux10conversion71_$LT$impl$u20$core..convert..From$LT$ux..i4$GT$$u20$for$u20$ux..i62$GT$4from17h470360b8591a7ebbE
ffffff00002d2920 T _ZN2ux10conversion71_$LT$impl$u20$core..convert..From$LT$ux..i4$GT$$u20$for$u20$ux..i63$GT$4from17h2e374004e40667c4E
ffffff00002d2900 T _ZN2ux10conversion71_$LT$impl$u20$core..convert..From$LT$ux..i5$GT$$u20$for$u20$ux..i10$GT$4from17h14b5d80ae7bc3cb8E
ffffff00002d2900 T _ZN2ux10conversion71_$LT$impl$u20$core..convert..From$LT$ux..i5$GT$$u20$for$u20$ux..i11$GT$4from17hc77aa1065312edfdE
ffffff00002d2900 T _ZN2ux10conversion71_$LT$impl$u20$core..convert..From$LT$ux..i5$GT$$u20$for$u20$ux..i12$GT$4from17h646d9ee09fd59c03E
ffffff00002d2900 T _ZN2ux10conversion71_$LT$impl$u20$core..convert..From$LT$ux..i5$GT$$u20$for$u20$ux..i13$GT$4from17h42416bcb595712d8E
ffffff00002d2900 T _ZN2ux10conversion71_$LT$impl$u20$core..convert..From$LT$ux..i5$GT$$u20$for$u20$ux..i14$GT$4from17h8abbe2a66458f86eE
ffffff00002d2900 T _ZN2ux10conversion71_$LT$impl$u20$core..convert..From$LT$ux..i5$GT$$u20$for$u20$ux..i15$GT$4from17hacff060d78cc9c21E
ffffff00002d2910 T _ZN2ux10conversion71_$LT$impl$u20$core..convert..From$LT$ux..i5$GT$$u20$for$u20$ux..i17$GT$4from17h202462253e2bb2a2E
ffffff00002d2910 T _ZN2ux10conversion71_$LT$impl$u20$core..convert..From$LT$ux..i5$GT$$u20$for$u20$ux..i18$GT$4from17h4919ee4a80a1ac47E
ffffff00002d2910 T _ZN2ux10conversion71_$LT$impl$u20$core..convert..From$LT$ux..i5$GT$$u20$for$u20$ux..i19$GT$4from17h56fde8ee6082232bE
ffffff00002d2910 T _ZN2ux10conversion71_$LT$impl$u20$core..convert..From$LT$ux..i5$GT$$u20$for$u20$ux..i20$GT$4from17hac4b54cf67e1a708E
ffffff00002d2910 T _ZN2ux10conversion71_$LT$impl$u20$core..convert..From$LT$ux..i5$GT$$u20$for$u20$ux..i21$GT$4from17h7fc0d7bcd4b512a9E
ffffff00002d2910 T _ZN2ux10conversion71_$LT$impl$u20$core..convert..From$LT$ux..i5$GT$$u20$for$u20$ux..i22$GT$4from17hba18e776be40fc9dE
ffffff00002d2910 T _ZN2ux10conversion71_$LT$impl$u20$core..convert..From$LT$ux..i5$GT$$u20$for$u20$ux..i23$GT$4from17hd10538f11b168d9cE
ffffff00002d2910 T _ZN2ux10conversion71_$LT$impl$u20$core..convert..From$LT$ux..i5$GT$$u20$for$u20$ux..i24$GT$4from17h806796185c53559cE
ffffff00002d2910 T _ZN2ux10conversion71_$LT$impl$u20$core..convert..From$LT$ux..i5$GT$$u20$for$u20$ux..i25$GT$4from17h988f9c1a2912e508E
ffffff00002d2910 T _ZN2ux10conversion71_$LT$impl$u20$core..convert..From$LT$ux..i5$GT$$u20$for$u20$ux..i26$GT$4from17hc1dd2ea880c90804E
ffffff00002d2910 T _ZN2ux10conversion71_$LT$impl$u20$core..convert..From$LT$ux..i5$GT$$u20$for$u20$ux..i27$GT$4from17hb03dcd7858cf49a6E
ffffff00002d2910 T _ZN2ux10conversion71_$LT$impl$u20$core..convert..From$LT$ux..i5$GT$$u20$for$u20$ux..i28$GT$4from17hc4141ca4846e77ffE
ffffff00002d2910 T _ZN2ux10conversion71_$LT$impl$u20$core..convert..From$LT$ux..i5$GT$$u20$for$u20$ux..i29$GT$4from17h28c1e1ccd064f5ccE
ffffff00002d2910 T _ZN2ux10conversion71_$LT$impl$u20$core..convert..From$LT$ux..i5$GT$$u20$for$u20$ux..i30$GT$4from17hbddc2bdaee3f1a59E
ffffff00002d2910 T _ZN2ux10conversion71_$LT$impl$u20$core..convert..From$LT$ux..i5$GT$$u20$for$u20$ux..i31$GT$4from17h59fdde17608fd098E
ffffff00002d2920 T _ZN2ux10conversion71_$LT$impl$u20$core..convert..From$LT$ux..i5$GT$$u20$for$u20$ux..i33$GT$4from17hb7dff9e11b21fd32E
ffffff00002d2920 T _ZN2ux10conversion71_$LT$impl$u20$core..convert..From$LT$ux..i5$GT$$u20$for$u20$ux..i34$GT$4from17h982f828a6140bc02E
ffffff00002d2920 T _ZN2ux10conversion71_$LT$impl$u20$core..convert..From$LT$ux..i5$GT$$u20$for$u20$ux..i35$GT$4from17hff5bf4c80df27f72E
ffffff00002d2920 T _ZN2ux10conversion71_$LT$impl$u20$core..convert..From$LT$ux..i5$GT$$u20$for$u20$ux..i36$GT$4from17h14168904d5fb154fE
ffffff00002d2920 T _ZN2ux10conversion71_$LT$impl$u20$core..convert..From$LT$ux..i5$GT$$u20$for$u20$ux..i37$GT$4from17h1c407d22293fa1e8E
ffffff00002d2920 T _ZN2ux10conversion71_$LT$impl$u20$core..convert..From$LT$ux..i5$GT$$u20$for$u20$ux..i38$GT$4from17h6e91cabf78aa75f9E
ffffff00002d2920 T _ZN2ux10conversion71_$LT$impl$u20$core..convert..From$LT$ux..i5$GT$$u20$for$u20$ux..i39$GT$4from17hc2c049717dfd5fbdE
ffffff00002d2920 T _ZN2ux10conversion71_$LT$impl$u20$core..convert..From$LT$ux..i5$GT$$u20$for$u20$ux..i40$GT$4from17hbd07eeb05d58eb6fE
ffffff00002d2920 T _ZN2ux10conversion71_$LT$impl$u20$core..convert..From$LT$ux..i5$GT$$u20$for$u20$ux..i41$GT$4from17h679a031ec5ee0765E
ffffff00002d2920 T _ZN2ux10conversion71_$LT$impl$u20$core..convert..From$LT$ux..i5$GT$$u20$for$u20$ux..i42$GT$4from17h826d93d593c9a0e8E
ffffff00002d2920 T _ZN2ux10conversion71_$LT$impl$u20$core..convert..From$LT$ux..i5$GT$$u20$for$u20$ux..i43$GT$4from17h729e9b96da31b61cE
ffffff00002d2920 T _ZN2ux10conversion71_$LT$impl$u20$core..convert..From$LT$ux..i5$GT$$u20$for$u20$ux..i44$GT$4from17h67871cd9cda7beadE
ffffff00002d2920 T _ZN2ux10conversion71_$LT$impl$u20$core..convert..From$LT$ux..i5$GT$$u20$for$u20$ux..i45$GT$4from17h31e80d47d8204683E
ffffff00002d2920 T _ZN2ux10conversion71_$LT$impl$u20$core..convert..From$LT$ux..i5$GT$$u20$for$u20$ux..i46$GT$4from17h96bcc0d0fef04521E
ffffff00002d2920 T _ZN2ux10conversion71_$LT$impl$u20$core..convert..From$LT$ux..i5$GT$$u20$for$u20$ux..i47$GT$4from17h3997f4ffb4f82d7dE
ffffff00002d2920 T _ZN2ux10conversion71_$LT$impl$u20$core..convert..From$LT$ux..i5$GT$$u20$for$u20$ux..i48$GT$4from17h64ef756f4011b105E
ffffff00002d2920 T _ZN2ux10conversion71_$LT$impl$u20$core..convert..From$LT$ux..i5$GT$$u20$for$u20$ux..i49$GT$4from17h184e0ba2f247976fE
ffffff00002d2920 T _ZN2ux10conversion71_$LT$impl$u20$core..convert..From$LT$ux..i5$GT$$u20$for$u20$ux..i50$GT$4from17hd2733b898621a3d6E
ffffff00002d2920 T _ZN2ux10conversion71_$LT$impl$u20$core..convert..From$LT$ux..i5$GT$$u20$for$u20$ux..i51$GT$4from17h976e07a20697b277E
ffffff00002d2920 T _ZN2ux10conversion71_$LT$impl$u20$core..convert..From$LT$ux..i5$GT$$u20$for$u20$ux..i52$GT$4from17h3cf2c116e9e0e7c5E
ffffff00002d2920 T _ZN2ux10conversion71_$LT$impl$u20$core..convert..From$LT$ux..i5$GT$$u20$for$u20$ux..i53$GT$4from17hb5e0154eb4d980f1E
ffffff00002d2920 T _ZN2ux10conversion71_$LT$impl$u20$core..convert..From$LT$ux..i5$GT$$u20$for$u20$ux..i54$GT$4from17h9d5da0ed24514bc4E
ffffff00002d2920 T _ZN2ux10conversion71_$LT$impl$u20$core..convert..From$LT$ux..i5$GT$$u20$for$u20$ux..i55$GT$4from17h657c7abe48d5d4a5E
ffffff00002d2920 T _ZN2ux10conversion71_$LT$impl$u20$core..convert..From$LT$ux..i5$GT$$u20$for$u20$ux..i56$GT$4from17hf783edfde3a2f63eE
ffffff00002d2920 T _ZN2ux10conversion71_$LT$impl$u20$core..convert..From$LT$ux..i5$GT$$u20$for$u20$ux..i57$GT$4from17hd970cd4b90d9c246E
ffffff00002d2920 T _ZN2ux10conversion71_$LT$impl$u20$core..convert..From$LT$ux..i5$GT$$u20$for$u20$ux..i58$GT$4from17he1db6dded2a76ea7E
ffffff00002d2920 T _ZN2ux10conversion71_$LT$impl$u20$core..convert..From$LT$ux..i5$GT$$u20$for$u20$ux..i59$GT$4from17h00ada059b0e46dbbE
ffffff00002d2920 T _ZN2ux10conversion71_$LT$impl$u20$core..convert..From$LT$ux..i5$GT$$u20$for$u20$ux..i60$GT$4from17h44065b62d2ad9269E
ffffff00002d2920 T _ZN2ux10conversion71_$LT$impl$u20$core..convert..From$LT$ux..i5$GT$$u20$for$u20$ux..i61$GT$4from17h57d107021c899f3dE
ffffff00002d2920 T _ZN2ux10conversion71_$LT$impl$u20$core..convert..From$LT$ux..i5$GT$$u20$for$u20$ux..i62$GT$4from17hc79a3944e90bde74E
ffffff00002d2920 T _ZN2ux10conversion71_$LT$impl$u20$core..convert..From$LT$ux..i5$GT$$u20$for$u20$ux..i63$GT$4from17hc71bff022160e1e8E
ffffff00002d2900 T _ZN2ux10conversion71_$LT$impl$u20$core..convert..From$LT$ux..i6$GT$$u20$for$u20$ux..i10$GT$4from17hf69c3a53fc76518bE
ffffff00002d2900 T _ZN2ux10conversion71_$LT$impl$u20$core..convert..From$LT$ux..i6$GT$$u20$for$u20$ux..i11$GT$4from17haa5abbd7f5ece163E
ffffff00002d2900 T _ZN2ux10conversion71_$LT$impl$u20$core..convert..From$LT$ux..i6$GT$$u20$for$u20$ux..i12$GT$4from17he7e388cf8dc79723E
ffffff00002d2900 T _ZN2ux10conversion71_$LT$impl$u20$core..convert..From$LT$ux..i6$GT$$u20$for$u20$ux..i13$GT$4from17h45164f2d4844573bE
ffffff00002d2900 T _ZN2ux10conversion71_$LT$impl$u20$core..convert..From$LT$ux..i6$GT$$u20$for$u20$ux..i14$GT$4from17h2d28451bbce23323E
ffffff00002d2900 T _ZN2ux10conversion71_$LT$impl$u20$core..convert..From$LT$ux..i6$GT$$u20$for$u20$ux..i15$GT$4from17hdfeb12fa6266d38fE
ffffff00002d2910 T _ZN2ux10conversion71_$LT$impl$u20$core..convert..From$LT$ux..i6$GT$$u20$for$u20$ux..i17$GT$4from17h9a84863eacaa843eE
ffffff00002d2910 T _ZN2ux10conversion71_$LT$impl$u20$core..convert..From$LT$ux..i6$GT$$u20$for$u20$ux..i18$GT$4from17hfa309fe12779d7fdE
ffffff00002d2910 T _ZN2ux10conversion71_$LT$impl$u20$core..convert..From$LT$ux..i6$GT$$u20$for$u20$ux..i19$GT$4from17h735722d5d52653f8E
ffffff00002d2910 T _ZN2ux10conversion71_$LT$impl$u20$core..convert..From$LT$ux..i6$GT$$u20$for$u20$ux..i20$GT$4from17hc1f038721c838974E
ffffff00002d2910 T _ZN2ux10conversion71_$LT$impl$u20$core..convert..From$LT$ux..i6$GT$$u20$for$u20$ux..i21$GT$4from17h55654112c33a86ecE
ffffff00002d2910 T _ZN2ux10conversion71_$LT$impl$u20$core..convert..From$LT$ux..i6$GT$$u20$for$u20$ux..i22$GT$4from17h86fa1a28e3c8d57eE
ffffff00002d2910 T _ZN2ux10conversion71_$LT$impl$u20$core..convert..From$LT$ux..i6$GT$$u20$for$u20$ux..i23$GT$4from17he24e7ead295dc309E
ffffff00002d2910 T _ZN2ux10conversion71_$LT$impl$u20$core..convert..From$LT$ux..i6$GT$$u20$for$u20$ux..i24$GT$4from17hf32c72650210d425E
ffffff00002d2910 T _ZN2ux10conversion71_$LT$impl$u20$core..convert..From$LT$ux..i6$GT$$u20$for$u20$ux..i25$GT$4from17h016548472bd71f5cE
ffffff00002d2910 T _ZN2ux10conversion71_$LT$impl$u20$core..convert..From$LT$ux..i6$GT$$u20$for$u20$ux..i26$GT$4from17h6404ba478ac98f58E
ffffff00002d2910 T _ZN2ux10conversion71_$LT$impl$u20$core..convert..From$LT$ux..i6$GT$$u20$for$u20$ux..i27$GT$4from17h58c9edbbf405b7d6E
ffffff00002d2910 T _ZN2ux10conversion71_$LT$impl$u20$core..convert..From$LT$ux..i6$GT$$u20$for$u20$ux..i28$GT$4from17h8c63f883406e9d68E
ffffff00002d2910 T _ZN2ux10conversion71_$LT$impl$u20$core..convert..From$LT$ux..i6$GT$$u20$for$u20$ux..i29$GT$4from17hb4faf6289f9fba00E
ffffff00002d2910 T _ZN2ux10conversion71_$LT$impl$u20$core..convert..From$LT$ux..i6$GT$$u20$for$u20$ux..i30$GT$4from17h3dc6a419e7a3b919E
ffffff00002d2910 T _ZN2ux10conversion71_$LT$impl$u20$core..convert..From$LT$ux..i6$GT$$u20$for$u20$ux..i31$GT$4from17ha73135d1f5f926c5E
ffffff00002d2920 T _ZN2ux10conversion71_$LT$impl$u20$core..convert..From$LT$ux..i6$GT$$u20$for$u20$ux..i33$GT$4from17h3a53f96c2df378abE
ffffff00002d2920 T _ZN2ux10conversion71_$LT$impl$u20$core..convert..From$LT$ux..i6$GT$$u20$for$u20$ux..i34$GT$4from17h288a12cfa67ac90dE
ffffff00002d2920 T _ZN2ux10conversion71_$LT$impl$u20$core..convert..From$LT$ux..i6$GT$$u20$for$u20$ux..i35$GT$4from17h0797006a2f48be6eE
ffffff00002d2920 T _ZN2ux10conversion71_$LT$impl$u20$core..convert..From$LT$ux..i6$GT$$u20$for$u20$ux..i36$GT$4from17h1c321f0de3f7cde3E
ffffff00002d2920 T _ZN2ux10conversion71_$LT$impl$u20$core..convert..From$LT$ux..i6$GT$$u20$for$u20$ux..i37$GT$4from17hf6877bc1982e70d2E
ffffff00002d2920 T _ZN2ux10conversion71_$LT$impl$u20$core..convert..From$LT$ux..i6$GT$$u20$for$u20$ux..i38$GT$4from17h5566c29d050f99b0E
ffffff00002d2920 T _ZN2ux10conversion71_$LT$impl$u20$core..convert..From$LT$ux..i6$GT$$u20$for$u20$ux..i39$GT$4from17h10150d89e6712291E
ffffff00002d2920 T _ZN2ux10conversion71_$LT$impl$u20$core..convert..From$LT$ux..i6$GT$$u20$for$u20$ux..i40$GT$4from17h99201fdf9e686ad9E
ffffff00002d2920 T _ZN2ux10conversion71_$LT$impl$u20$core..convert..From$LT$ux..i6$GT$$u20$for$u20$ux..i41$GT$4from17h1a38d15cdae164cdE
ffffff00002d2920 T _ZN2ux10conversion71_$LT$impl$u20$core..convert..From$LT$ux..i6$GT$$u20$for$u20$ux..i42$GT$4from17h25aaa7a51c59b7bbE
ffffff00002d2920 T _ZN2ux10conversion71_$LT$impl$u20$core..convert..From$LT$ux..i6$GT$$u20$for$u20$ux..i43$GT$4from17h553f43ab7a917388E
ffffff00002d2920 T _ZN2ux10conversion71_$LT$impl$u20$core..convert..From$LT$ux..i6$GT$$u20$for$u20$ux..i44$GT$4from17h4f46094d0999b3d3E
ffffff00002d2920 T _ZN2ux10conversion71_$LT$impl$u20$core..convert..From$LT$ux..i6$GT$$u20$for$u20$ux..i45$GT$4from17hb21bd8493c0f1a7aE
ffffff00002d2920 T _ZN2ux10conversion71_$LT$impl$u20$core..convert..From$LT$ux..i6$GT$$u20$for$u20$ux..i46$GT$4from17h1af2e41e7136cb67E
ffffff00002d2920 T _ZN2ux10conversion71_$LT$impl$u20$core..convert..From$LT$ux..i6$GT$$u20$for$u20$ux..i47$GT$4from17h9f509012d5e4fa7bE
ffffff00002d2920 T _ZN2ux10conversion71_$LT$impl$u20$core..convert..From$LT$ux..i6$GT$$u20$for$u20$ux..i48$GT$4from17haf59ba6303969e27E
ffffff00002d2920 T _ZN2ux10conversion71_$LT$impl$u20$core..convert..From$LT$ux..i6$GT$$u20$for$u20$ux..i49$GT$4from17h3dd97d6de16e7372E
ffffff00002d2920 T _ZN2ux10conversion71_$LT$impl$u20$core..convert..From$LT$ux..i6$GT$$u20$for$u20$ux..i50$GT$4from17h159891b1599287b1E
ffffff00002d2920 T _ZN2ux10conversion71_$LT$impl$u20$core..convert..From$LT$ux..i6$GT$$u20$for$u20$ux..i51$GT$4from17h944729b277051345E
ffffff00002d2920 T _ZN2ux10conversion71_$LT$impl$u20$core..convert..From$LT$ux..i6$GT$$u20$for$u20$ux..i52$GT$4from17h7fdfce2566f66b9fE
ffffff00002d2920 T _ZN2ux10conversion71_$LT$impl$u20$core..convert..From$LT$ux..i6$GT$$u20$for$u20$ux..i53$GT$4from17hbcd2a66c8a146f69E
ffffff00002d2920 T _ZN2ux10conversion71_$LT$impl$u20$core..convert..From$LT$ux..i6$GT$$u20$for$u20$ux..i54$GT$4from17ha8e451e8788a4380E
ffffff00002d2920 T _ZN2ux10conversion71_$LT$impl$u20$core..convert..From$LT$ux..i6$GT$$u20$for$u20$ux..i55$GT$4from17h5ff1028f7ab9f136E
ffffff00002d2920 T _ZN2ux10conversion71_$LT$impl$u20$core..convert..From$LT$ux..i6$GT$$u20$for$u20$ux..i56$GT$4from17h82eacb8fba55a852E
ffffff00002d2920 T _ZN2ux10conversion71_$LT$impl$u20$core..convert..From$LT$ux..i6$GT$$u20$for$u20$ux..i57$GT$4from17h5ab4441de4cb0407E
ffffff00002d2920 T _ZN2ux10conversion71_$LT$impl$u20$core..convert..From$LT$ux..i6$GT$$u20$for$u20$ux..i58$GT$4from17h6aac87e10ad4014dE
ffffff00002d2920 T _ZN2ux10conversion71_$LT$impl$u20$core..convert..From$LT$ux..i6$GT$$u20$for$u20$ux..i59$GT$4from17h2f71310a0f9d1459E
ffffff00002d2920 T _ZN2ux10conversion71_$LT$impl$u20$core..convert..From$LT$ux..i6$GT$$u20$for$u20$ux..i60$GT$4from17h31ab1cf4eee6078fE
ffffff00002d2920 T _ZN2ux10conversion71_$LT$impl$u20$core..convert..From$LT$ux..i6$GT$$u20$for$u20$ux..i61$GT$4from17h0c70c1d0becbc129E
ffffff00002d2920 T _ZN2ux10conversion71_$LT$impl$u20$core..convert..From$LT$ux..i6$GT$$u20$for$u20$ux..i62$GT$4from17h4ade654aabdd74ceE
ffffff00002d2920 T _ZN2ux10conversion71_$LT$impl$u20$core..convert..From$LT$ux..i6$GT$$u20$for$u20$ux..i63$GT$4from17hf4375009f5bb2569E
ffffff00002d2900 T _ZN2ux10conversion71_$LT$impl$u20$core..convert..From$LT$ux..i7$GT$$u20$for$u20$ux..i10$GT$4from17h568cb8d028043ff8E
ffffff00002d2900 T _ZN2ux10conversion71_$LT$impl$u20$core..convert..From$LT$ux..i7$GT$$u20$for$u20$ux..i11$GT$4from17h8611473a3a1fab32E
ffffff00002d2900 T _ZN2ux10conversion71_$LT$impl$u20$core..convert..From$LT$ux..i7$GT$$u20$for$u20$ux..i12$GT$4from17hf01796239a99becbE
ffffff00002d2900 T _ZN2ux10conversion71_$LT$impl$u20$core..convert..From$LT$ux..i7$GT$$u20$for$u20$ux..i13$GT$4from17h3f192f9ce152ff40E
ffffff00002d2900 T _ZN2ux10conversion71_$LT$impl$u20$core..convert..From$LT$ux..i7$GT$$u20$for$u20$ux..i14$GT$4from17h1c44065ba1fa1f18E
ffffff00002d2900 T _ZN2ux10conversion71_$LT$impl$u20$core..convert..From$LT$ux..i7$GT$$u20$for$u20$ux..i15$GT$4from17hcd5c40e08d0752afE
ffffff00002d2910 T _ZN2ux10conversion71_$LT$impl$u20$core..convert..From$LT$ux..i7$GT$$u20$for$u20$ux..i17$GT$4from17hbeb6ca54f8599197E
ffffff00002d2910 T _ZN2ux10conversion71_$LT$impl$u20$core..convert..From$LT$ux..i7$GT$$u20$for$u20$ux..i18$GT$4from17h784cd48012c2d418E
ffffff00002d2910 T _ZN2ux10conversion71_$LT$impl$u20$core..convert..From$LT$ux..i7$GT$$u20$for$u20$ux..i19$GT$4from17hb0a2b69090b8ede6E
ffffff00002d2910 T _ZN2ux10conversion71_$LT$impl$u20$core..convert..From$LT$ux..i7$GT$$u20$for$u20$ux..i20$GT$4from17hedcded0b311d0c84E
ffffff00002d2910 T _ZN2ux10conversion71_$LT$impl$u20$core..convert..From$LT$ux..i7$GT$$u20$for$u20$ux..i21$GT$4from17habf47aa3dcee3900E
ffffff00002d2910 T _ZN2ux10conversion71_$LT$impl$u20$core..convert..From$LT$ux..i7$GT$$u20$for$u20$ux..i22$GT$4from17haef8fdf34d2a6817E
ffffff00002d2910 T _ZN2ux10conversion71_$LT$impl$u20$core..convert..From$LT$ux..i7$GT$$u20$for$u20$ux..i23$GT$4from17h7d5e3fb4d433113aE
ffffff00002d2910 T _ZN2ux10conversion71_$LT$impl$u20$core..convert..From$LT$ux..i7$GT$$u20$for$u20$ux..i24$GT$4from17h9c97c1d1fb71b4cbE
ffffff00002d2910 T _ZN2ux10conversion71_$LT$impl$u20$core..convert..From$LT$ux..i7$GT$$u20$for$u20$ux..i25$GT$4from17h3a3631a5d873c3b5E
ffffff00002d2910 T _ZN2ux10conversion71_$LT$impl$u20$core..convert..From$LT$ux..i7$GT$$u20$for$u20$ux..i26$GT$4from17h8983e68e2a3a022fE
ffffff00002d2910 T _ZN2ux10conversion71_$LT$impl$u20$core..convert..From$LT$ux..i7$GT$$u20$for$u20$ux..i27$GT$4from17hc61514e4a701b8b7E
ffffff00002d2910 T _ZN2ux10conversion71_$LT$impl$u20$core..convert..From$LT$ux..i7$GT$$u20$for$u20$ux..i28$GT$4from17hbe01044de68fbee8E
ffffff00002d2910 T _ZN2ux10conversion71_$LT$impl$u20$core..convert..From$LT$ux..i7$GT$$u20$for$u20$ux..i29$GT$4from17h8c8d30c0d713fc80E
ffffff00002d2910 T _ZN2ux10conversion71_$LT$impl$u20$core..convert..From$LT$ux..i7$GT$$u20$for$u20$ux..i30$GT$4from17h39c355d59cb9391aE
ffffff00002d2910 T _ZN2ux10conversion71_$LT$impl$u20$core..convert..From$LT$ux..i7$GT$$u20$for$u20$ux..i31$GT$4from17hb4f08034616d2c02E
ffffff00002d2920 T _ZN2ux10conversion71_$LT$impl$u20$core..convert..From$LT$ux..i7$GT$$u20$for$u20$ux..i33$GT$4from17h92bb57a8b75b8f24E
ffffff00002d2920 T _ZN2ux10conversion71_$LT$impl$u20$core..convert..From$LT$ux..i7$GT$$u20$for$u20$ux..i34$GT$4from17hda8693d8ea4e4ec6E
ffffff00002d2920 T _ZN2ux10conversion71_$LT$impl$u20$core..convert..From$LT$ux..i7$GT$$u20$for$u20$ux..i35$GT$4from17h7db6e084dca9985eE
ffffff00002d2920 T _ZN2ux10conversion71_$LT$impl$u20$core..convert..From$LT$ux..i7$GT$$u20$for$u20$ux..i36$GT$4from17hd7bc348281dcf073E
ffffff00002d2920 T _ZN2ux10conversion71_$LT$impl$u20$core..convert..From$LT$ux..i7$GT$$u20$for$u20$ux..i37$GT$4from17h2d2a52ff9c6ae63fE
ffffff00002d2920 T _ZN2ux10conversion71_$LT$impl$u20$core..convert..From$LT$ux..i7$GT$$u20$for$u20$ux..i38$GT$4from17h5b2d31b376660f4fE
ffffff00002d2920 T _ZN2ux10conversion71_$LT$impl$u20$core..convert..From$LT$ux..i7$GT$$u20$for$u20$ux..i39$GT$4from17h7004e45238b4a8e9E
ffffff00002d2920 T _ZN2ux10conversion71_$LT$impl$u20$core..convert..From$LT$ux..i7$GT$$u20$for$u20$ux..i40$GT$4from17h089fb3cec67a1ef4E
ffffff00002d2920 T _ZN2ux10conversion71_$LT$impl$u20$core..convert..From$LT$ux..i7$GT$$u20$for$u20$ux..i41$GT$4from17h9ebf15acba9c930fE
ffffff00002d2920 T _ZN2ux10conversion71_$LT$impl$u20$core..convert..From$LT$ux..i7$GT$$u20$for$u20$ux..i42$GT$4from17hac3710072d007c30E
ffffff00002d2920 T _ZN2ux10conversion71_$LT$impl$u20$core..convert..From$LT$ux..i7$GT$$u20$for$u20$ux..i43$GT$4from17hfe08c9e74b4f1012E
ffffff00002d2920 T _ZN2ux10conversion71_$LT$impl$u20$core..convert..From$LT$ux..i7$GT$$u20$for$u20$ux..i44$GT$4from17h2b64823ebcb0eb50E
ffffff00002d2920 T _ZN2ux10conversion71_$LT$impl$u20$core..convert..From$LT$ux..i7$GT$$u20$for$u20$ux..i45$GT$4from17hfa0690dc81d9e128E
ffffff00002d2920 T _ZN2ux10conversion71_$LT$impl$u20$core..convert..From$LT$ux..i7$GT$$u20$for$u20$ux..i46$GT$4from17h541632a438946318E
ffffff00002d2920 T _ZN2ux10conversion71_$LT$impl$u20$core..convert..From$LT$ux..i7$GT$$u20$for$u20$ux..i47$GT$4from17h54e00febdb76aa1eE
ffffff00002d2920 T _ZN2ux10conversion71_$LT$impl$u20$core..convert..From$LT$ux..i7$GT$$u20$for$u20$ux..i48$GT$4from17h03c581845d30ad65E
ffffff00002d2920 T _ZN2ux10conversion71_$LT$impl$u20$core..convert..From$LT$ux..i7$GT$$u20$for$u20$ux..i49$GT$4from17hd3c4895f080f228bE
ffffff00002d2920 T _ZN2ux10conversion71_$LT$impl$u20$core..convert..From$LT$ux..i7$GT$$u20$for$u20$ux..i50$GT$4from17h1f923d463d3581e1E
ffffff00002d2920 T _ZN2ux10conversion71_$LT$impl$u20$core..convert..From$LT$ux..i7$GT$$u20$for$u20$ux..i51$GT$4from17h23c53428782e9db4E
ffffff00002d2920 T _ZN2ux10conversion71_$LT$impl$u20$core..convert..From$LT$ux..i7$GT$$u20$for$u20$ux..i52$GT$4from17h37bbf89997f8fe3cE
ffffff00002d2920 T _ZN2ux10conversion71_$LT$impl$u20$core..convert..From$LT$ux..i7$GT$$u20$for$u20$ux..i53$GT$4from17h9388d8ac9bad3c84E
ffffff00002d2920 T _ZN2ux10conversion71_$LT$impl$u20$core..convert..From$LT$ux..i7$GT$$u20$for$u20$ux..i54$GT$4from17h61039cf6d4a916b5E
ffffff00002d2920 T _ZN2ux10conversion71_$LT$impl$u20$core..convert..From$LT$ux..i7$GT$$u20$for$u20$ux..i55$GT$4from17h630f3e387478d77cE
ffffff00002d2920 T _ZN2ux10conversion71_$LT$impl$u20$core..convert..From$LT$ux..i7$GT$$u20$for$u20$ux..i56$GT$4from17h998c9d308a3ff4ccE
ffffff00002d2920 T _ZN2ux10conversion71_$LT$impl$u20$core..convert..From$LT$ux..i7$GT$$u20$for$u20$ux..i57$GT$4from17hd0e830ce88b7b8a2E
ffffff00002d2920 T _ZN2ux10conversion71_$LT$impl$u20$core..convert..From$LT$ux..i7$GT$$u20$for$u20$ux..i58$GT$4from17h484b7ccb100965edE
ffffff00002d2920 T _ZN2ux10conversion71_$LT$impl$u20$core..convert..From$LT$ux..i7$GT$$u20$for$u20$ux..i59$GT$4from17h9fde031bd62ea117E
ffffff00002d2920 T _ZN2ux10conversion71_$LT$impl$u20$core..convert..From$LT$ux..i7$GT$$u20$for$u20$ux..i60$GT$4from17h97a05beebe11f8cdE
ffffff00002d2920 T _ZN2ux10conversion71_$LT$impl$u20$core..convert..From$LT$ux..i7$GT$$u20$for$u20$ux..i61$GT$4from17haf4a213055ae8fe5E
ffffff00002d2920 T _ZN2ux10conversion71_$LT$impl$u20$core..convert..From$LT$ux..i7$GT$$u20$for$u20$ux..i62$GT$4from17h7016574f2458d658E
ffffff00002d2920 T _ZN2ux10conversion71_$LT$impl$u20$core..convert..From$LT$ux..i7$GT$$u20$for$u20$ux..i63$GT$4from17h8b7a61583fe09399E
ffffff00002d2970 T _ZN2ux10conversion71_$LT$impl$u20$core..convert..From$LT$ux..i9$GT$$u20$for$u20$ux..i10$GT$4from17h385365f8b8913580E
ffffff00002d2970 T _ZN2ux10conversion71_$LT$impl$u20$core..convert..From$LT$ux..i9$GT$$u20$for$u20$ux..i11$GT$4from17hee7315b35498bb38E
ffffff00002d2970 T _ZN2ux10conversion71_$LT$impl$u20$core..convert..From$LT$ux..i9$GT$$u20$for$u20$ux..i12$GT$4from17h8a4dc1764a2012c1E
ffffff00002d2970 T _ZN2ux10conversion71_$LT$impl$u20$core..convert..From$LT$ux..i9$GT$$u20$for$u20$ux..i13$GT$4from17h9f0e702511b597b4E
ffffff00002d2970 T _ZN2ux10conversion71_$LT$impl$u20$core..convert..From$LT$ux..i9$GT$$u20$for$u20$ux..i14$GT$4from17h179b11dde56d3110E
ffffff00002d2970 T _ZN2ux10conversion71_$LT$impl$u20$core..convert..From$LT$ux..i9$GT$$u20$for$u20$ux..i15$GT$4from17hbf1c88ef3e037bc0E
ffffff00002d2930 T _ZN2ux10conversion71_$LT$impl$u20$core..convert..From$LT$ux..i9$GT$$u20$for$u20$ux..i17$GT$4from17hed6840d05cba1ffaE
ffffff00002d2930 T _ZN2ux10conversion71_$LT$impl$u20$core..convert..From$LT$ux..i9$GT$$u20$for$u20$ux..i18$GT$4from17hbaae56f8e480fa74E
ffffff00002d2930 T _ZN2ux10conversion71_$LT$impl$u20$core..convert..From$LT$ux..i9$GT$$u20$for$u20$ux..i19$GT$4from17h1e66a0c670e8e42fE
ffffff00002d2930 T _ZN2ux10conversion71_$LT$impl$u20$core..convert..From$LT$ux..i9$GT$$u20$for$u20$ux..i20$GT$4from17h9ae528d344dd9394E
ffffff00002d2930 T _ZN2ux10conversion71_$LT$impl$u20$core..convert..From$LT$ux..i9$GT$$u20$for$u20$ux..i21$GT$4from17hcb53c070feb770bbE
ffffff00002d2930 T _ZN2ux10conversion71_$LT$impl$u20$core..convert..From$LT$ux..i9$GT$$u20$for$u20$ux..i22$GT$4from17hc6186c6ae3dc28b2E
ffffff00002d2930 T _ZN2ux10conversion71_$LT$impl$u20$core..convert..From$LT$ux..i9$GT$$u20$for$u20$ux..i23$GT$4from17hcda2b8c6c9f46fa1E
ffffff00002d2930 T _ZN2ux10conversion71_$LT$impl$u20$core..convert..From$LT$ux..i9$GT$$u20$for$u20$ux..i24$GT$4from17hcb6c87a92050ea56E
ffffff00002d2930 T _ZN2ux10conversion71_$LT$impl$u20$core..convert..From$LT$ux..i9$GT$$u20$for$u20$ux..i25$GT$4from17hfb1e176e43486095E
ffffff00002d2930 T _ZN2ux10conversion71_$LT$impl$u20$core..convert..From$LT$ux..i9$GT$$u20$for$u20$ux..i26$GT$4from17hd934e51b3e102633E
ffffff00002d2930 T _ZN2ux10conversion71_$LT$impl$u20$core..convert..From$LT$ux..i9$GT$$u20$for$u20$ux..i27$GT$4from17h1389b0881427becaE
ffffff00002d2930 T _ZN2ux10conversion71_$LT$impl$u20$core..convert..From$LT$ux..i9$GT$$u20$for$u20$ux..i28$GT$4from17h086deef453067d8cE
ffffff00002d2930 T _ZN2ux10conversion71_$LT$impl$u20$core..convert..From$LT$ux..i9$GT$$u20$for$u20$ux..i29$GT$4from17h25ee198aa689c201E
ffffff00002d2930 T _ZN2ux10conversion71_$LT$impl$u20$core..convert..From$LT$ux..i9$GT$$u20$for$u20$ux..i30$GT$4from17h910d14cc73dee301E
ffffff00002d2930 T _ZN2ux10conversion71_$LT$impl$u20$core..convert..From$LT$ux..i9$GT$$u20$for$u20$ux..i31$GT$4from17hf324e5c35c9fd0baE
ffffff00002d2940 T _ZN2ux10conversion71_$LT$impl$u20$core..convert..From$LT$ux..i9$GT$$u20$for$u20$ux..i33$GT$4from17hf12569f1c14349a1E
ffffff00002d2940 T _ZN2ux10conversion71_$LT$impl$u20$core..convert..From$LT$ux..i9$GT$$u20$for$u20$ux..i34$GT$4from17hf1764bb12dbfdf12E
ffffff00002d2940 T _ZN2ux10conversion71_$LT$impl$u20$core..convert..From$LT$ux..i9$GT$$u20$for$u20$ux..i35$GT$4from17h7dfa3a4058b5e8b4E
ffffff00002d2940 T _ZN2ux10conversion71_$LT$impl$u20$core..convert..From$LT$ux..i9$GT$$u20$for$u20$ux..i36$GT$4from17h26e490e7846b977eE
ffffff00002d2940 T _ZN2ux10conversion71_$LT$impl$u20$core..convert..From$LT$ux..i9$GT$$u20$for$u20$ux..i37$GT$4from17hbd08c83360a95270E
ffffff00002d2940 T _ZN2ux10conversion71_$LT$impl$u20$core..convert..From$LT$ux..i9$GT$$u20$for$u20$ux..i38$GT$4from17h0612d20327fdd7cdE
ffffff00002d2940 T _ZN2ux10conversion71_$LT$impl$u20$core..convert..From$LT$ux..i9$GT$$u20$for$u20$ux..i39$GT$4from17h54e7eb1ba7a8c017E
ffffff00002d2940 T _ZN2ux10conversion71_$LT$impl$u20$core..convert..From$LT$ux..i9$GT$$u20$for$u20$ux..i40$GT$4from17h967b791cf83dc7ecE
ffffff00002d2940 T _ZN2ux10conversion71_$LT$impl$u20$core..convert..From$LT$ux..i9$GT$$u20$for$u20$ux..i41$GT$4from17h9ef18248c354d335E
ffffff00002d2940 T _ZN2ux10conversion71_$LT$impl$u20$core..convert..From$LT$ux..i9$GT$$u20$for$u20$ux..i42$GT$4from17h8c36cc20feff5efaE
ffffff00002d2940 T _ZN2ux10conversion71_$LT$impl$u20$core..convert..From$LT$ux..i9$GT$$u20$for$u20$ux..i43$GT$4from17hd6a3140357f6f049E
ffffff00002d2940 T _ZN2ux10conversion71_$LT$impl$u20$core..convert..From$LT$ux..i9$GT$$u20$for$u20$ux..i44$GT$4from17hfaa98505d86eca22E
ffffff00002d2940 T _ZN2ux10conversion71_$LT$impl$u20$core..convert..From$LT$ux..i9$GT$$u20$for$u20$ux..i45$GT$4from17hceaeee4369ee1a9aE
ffffff00002d2940 T _ZN2ux10conversion71_$LT$impl$u20$core..convert..From$LT$ux..i9$GT$$u20$for$u20$ux..i46$GT$4from17ha44df68294f65605E
ffffff00002d2940 T _ZN2ux10conversion71_$LT$impl$u20$core..convert..From$LT$ux..i9$GT$$u20$for$u20$ux..i47$GT$4from17h8765e3ffcea7b212E
ffffff00002d2940 T _ZN2ux10conversion71_$LT$impl$u20$core..convert..From$LT$ux..i9$GT$$u20$for$u20$ux..i48$GT$4from17h2c18e46a89bd7111E
ffffff00002d2940 T _ZN2ux10conversion71_$LT$impl$u20$core..convert..From$LT$ux..i9$GT$$u20$for$u20$ux..i49$GT$4from17h7eef035a5c9b8a68E
ffffff00002d2940 T _ZN2ux10conversion71_$LT$impl$u20$core..convert..From$LT$ux..i9$GT$$u20$for$u20$ux..i50$GT$4from17h90f13964bcae4e0aE
ffffff00002d2940 T _ZN2ux10conversion71_$LT$impl$u20$core..convert..From$LT$ux..i9$GT$$u20$for$u20$ux..i51$GT$4from17h30f8cb299dd02ac6E
ffffff00002d2940 T _ZN2ux10conversion71_$LT$impl$u20$core..convert..From$LT$ux..i9$GT$$u20$for$u20$ux..i52$GT$4from17he8927a745c9d46beE
ffffff00002d2940 T _ZN2ux10conversion71_$LT$impl$u20$core..convert..From$LT$ux..i9$GT$$u20$for$u20$ux..i53$GT$4from17h514b73a547e5c12aE
ffffff00002d2940 T _ZN2ux10conversion71_$LT$impl$u20$core..convert..From$LT$ux..i9$GT$$u20$for$u20$ux..i54$GT$4from17h3eedddea773caf77E
ffffff00002d2940 T _ZN2ux10conversion71_$LT$impl$u20$core..convert..From$LT$ux..i9$GT$$u20$for$u20$ux..i55$GT$4from17hfdfabf424d9801aeE
ffffff00002d2940 T _ZN2ux10conversion71_$LT$impl$u20$core..convert..From$LT$ux..i9$GT$$u20$for$u20$ux..i56$GT$4from17h09e29867bd293538E
ffffff00002d2940 T _ZN2ux10conversion71_$LT$impl$u20$core..convert..From$LT$ux..i9$GT$$u20$for$u20$ux..i57$GT$4from17h102e5404bbed8a4aE
ffffff00002d2940 T _ZN2ux10conversion71_$LT$impl$u20$core..convert..From$LT$ux..i9$GT$$u20$for$u20$ux..i58$GT$4from17h014c4ae0773b4921E
ffffff00002d2940 T _ZN2ux10conversion71_$LT$impl$u20$core..convert..From$LT$ux..i9$GT$$u20$for$u20$ux..i59$GT$4from17h207688affcd8b438E
ffffff00002d2940 T _ZN2ux10conversion71_$LT$impl$u20$core..convert..From$LT$ux..i9$GT$$u20$for$u20$ux..i60$GT$4from17h86ef677051750d24E
ffffff00002d2940 T _ZN2ux10conversion71_$LT$impl$u20$core..convert..From$LT$ux..i9$GT$$u20$for$u20$ux..i61$GT$4from17he8837c8427329d5bE
ffffff00002d2940 T _ZN2ux10conversion71_$LT$impl$u20$core..convert..From$LT$ux..i9$GT$$u20$for$u20$ux..i62$GT$4from17h369844b3d7ce1f16E
ffffff00002d2940 T _ZN2ux10conversion71_$LT$impl$u20$core..convert..From$LT$ux..i9$GT$$u20$for$u20$ux..i63$GT$4from17h8885415592dc84baE
ffffff00002d28a0 T _ZN2ux10conversion71_$LT$impl$u20$core..convert..From$LT$ux..u2$GT$$u20$for$u20$ux..u10$GT$4from17h5e37ffb1044db470E
ffffff00002d28a0 T _ZN2ux10conversion71_$LT$impl$u20$core..convert..From$LT$ux..u2$GT$$u20$for$u20$ux..u11$GT$4from17h3514a06c0ebc4127E
ffffff00002d28a0 T _ZN2ux10conversion71_$LT$impl$u20$core..convert..From$LT$ux..u2$GT$$u20$for$u20$ux..u12$GT$4from17hc469bd5dca2a1933E
ffffff00002d28a0 T _ZN2ux10conversion71_$LT$impl$u20$core..convert..From$LT$ux..u2$GT$$u20$for$u20$ux..u13$GT$4from17h29e6329feb351348E
ffffff00002d28a0 T _ZN2ux10conversion71_$LT$impl$u20$core..convert..From$LT$ux..u2$GT$$u20$for$u20$ux..u14$GT$4from17h2f9d9e558767cd25E
ffffff00002d28a0 T _ZN2ux10conversion71_$LT$impl$u20$core..convert..From$LT$ux..u2$GT$$u20$for$u20$ux..u15$GT$4from17h734fb9a779bc1de7E
ffffff00002d28b0 T _ZN2ux10conversion71_$LT$impl$u20$core..convert..From$LT$ux..u2$GT$$u20$for$u20$ux..u17$GT$4from17hbdaff03026d5388eE
ffffff00002d28b0 T _ZN2ux10conversion71_$LT$impl$u20$core..convert..From$LT$ux..u2$GT$$u20$for$u20$ux..u18$GT$4from17h7d6df59b1794626fE
ffffff00002d28b0 T _ZN2ux10conversion71_$LT$impl$u20$core..convert..From$LT$ux..u2$GT$$u20$for$u20$ux..u19$GT$4from17h8c47d374e5fbab42E
ffffff00002d28b0 T _ZN2ux10conversion71_$LT$impl$u20$core..convert..From$LT$ux..u2$GT$$u20$for$u20$ux..u20$GT$4from17h966bf033cfdf19efE
ffffff00002d28b0 T _ZN2ux10conversion71_$LT$impl$u20$core..convert..From$LT$ux..u2$GT$$u20$for$u20$ux..u21$GT$4from17h11b490089750db59E
ffffff00002d28b0 T _ZN2ux10conversion71_$LT$impl$u20$core..convert..From$LT$ux..u2$GT$$u20$for$u20$ux..u22$GT$4from17hfda04fa4346fa9f0E
ffffff00002d28b0 T _ZN2ux10conversion71_$LT$impl$u20$core..convert..From$LT$ux..u2$GT$$u20$for$u20$ux..u23$GT$4from17hc2827476b481b1f0E
ffffff00002d28b0 T _ZN2ux10conversion71_$LT$impl$u20$core..convert..From$LT$ux..u2$GT$$u20$for$u20$ux..u24$GT$4from17h33adc442d2f125b0E
ffffff00002d28b0 T _ZN2ux10conversion71_$LT$impl$u20$core..convert..From$LT$ux..u2$GT$$u20$for$u20$ux..u25$GT$4from17h1a70ebe55f23d217E
ffffff00002d28b0 T _ZN2ux10conversion71_$LT$impl$u20$core..convert..From$LT$ux..u2$GT$$u20$for$u20$ux..u26$GT$4from17hae417c4c70ab8337E
ffffff00002d28b0 T _ZN2ux10conversion71_$LT$impl$u20$core..convert..From$LT$ux..u2$GT$$u20$for$u20$ux..u27$GT$4from17h3ffd92fdf7a2edd9E
ffffff00002d28b0 T _ZN2ux10conversion71_$LT$impl$u20$core..convert..From$LT$ux..u2$GT$$u20$for$u20$ux..u28$GT$4from17h7057d8cd1b383408E
ffffff00002d28b0 T _ZN2ux10conversion71_$LT$impl$u20$core..convert..From$LT$ux..u2$GT$$u20$for$u20$ux..u29$GT$4from17h4b9b2d3766bded47E
ffffff00002d28b0 T _ZN2ux10conversion71_$LT$impl$u20$core..convert..From$LT$ux..u2$GT$$u20$for$u20$ux..u30$GT$4from17hcdb62fc42b21c039E
ffffff00002d28b0 T _ZN2ux10conversion71_$LT$impl$u20$core..convert..From$LT$ux..u2$GT$$u20$for$u20$ux..u31$GT$4from17h2564d2174f755bcaE
ffffff00002d28c0 T _ZN2ux10conversion71_$LT$impl$u20$core..convert..From$LT$ux..u2$GT$$u20$for$u20$ux..u33$GT$4from17hf0fbaaf84c74f751E
ffffff00002d28c0 T _ZN2ux10conversion71_$LT$impl$u20$core..convert..From$LT$ux..u2$GT$$u20$for$u20$ux..u34$GT$4from17h90aba4403fec126dE
ffffff00002d28c0 T _ZN2ux10conversion71_$LT$impl$u20$core..convert..From$LT$ux..u2$GT$$u20$for$u20$ux..u35$GT$4from17h4339a765cf6e0db1E
ffffff00002d28c0 T _ZN2ux10conversion71_$LT$impl$u20$core..convert..From$LT$ux..u2$GT$$u20$for$u20$ux..u36$GT$4from17he82b57d5a5ced08fE
ffffff00002d28c0 T _ZN2ux10conversion71_$LT$impl$u20$core..convert..From$LT$ux..u2$GT$$u20$for$u20$ux..u37$GT$4from17hb9fa622973d06edcE
ffffff00002d28c0 T _ZN2ux10conversion71_$LT$impl$u20$core..convert..From$LT$ux..u2$GT$$u20$for$u20$ux..u38$GT$4from17hdcd8e4b81bbb46c2E
ffffff00002d28c0 T _ZN2ux10conversion71_$LT$impl$u20$core..convert..From$LT$ux..u2$GT$$u20$for$u20$ux..u39$GT$4from17hd1f5b01c0e435c21E
ffffff00002d28c0 T _ZN2ux10conversion71_$LT$impl$u20$core..convert..From$LT$ux..u2$GT$$u20$for$u20$ux..u40$GT$4from17ha2a190a3598ee332E
ffffff00002d28c0 T _ZN2ux10conversion71_$LT$impl$u20$core..convert..From$LT$ux..u2$GT$$u20$for$u20$ux..u41$GT$4from17h312c18d7b31b5e61E
ffffff00002d28c0 T _ZN2ux10conversion71_$LT$impl$u20$core..convert..From$LT$ux..u2$GT$$u20$for$u20$ux..u42$GT$4from17h624e43cb79932bbeE
ffffff00002d28c0 T _ZN2ux10conversion71_$LT$impl$u20$core..convert..From$LT$ux..u2$GT$$u20$for$u20$ux..u43$GT$4from17hf2202cfd7facd0f0E
ffffff00002d28c0 T _ZN2ux10conversion71_$LT$impl$u20$core..convert..From$LT$ux..u2$GT$$u20$for$u20$ux..u44$GT$4from17h2f2960485a3a0236E
ffffff00002d28c0 T _ZN2ux10conversion71_$LT$impl$u20$core..convert..From$LT$ux..u2$GT$$u20$for$u20$ux..u45$GT$4from17h864af1a8c4cdd85dE
ffffff00002d28c0 T _ZN2ux10conversion71_$LT$impl$u20$core..convert..From$LT$ux..u2$GT$$u20$for$u20$ux..u46$GT$4from17h94a827b924894f51E
ffffff00002d28c0 T _ZN2ux10conversion71_$LT$impl$u20$core..convert..From$LT$ux..u2$GT$$u20$for$u20$ux..u47$GT$4from17hc1521ab6ce644c20E
ffffff00002d28c0 T _ZN2ux10conversion71_$LT$impl$u20$core..convert..From$LT$ux..u2$GT$$u20$for$u20$ux..u48$GT$4from17h1f751ff8583b4f4dE
ffffff00002d28c0 T _ZN2ux10conversion71_$LT$impl$u20$core..convert..From$LT$ux..u2$GT$$u20$for$u20$ux..u49$GT$4from17hdfb8cb4e3ddb7279E
ffffff00002d28c0 T _ZN2ux10conversion71_$LT$impl$u20$core..convert..From$LT$ux..u2$GT$$u20$for$u20$ux..u50$GT$4from17h08abc951b9f98b96E
ffffff00002d28c0 T _ZN2ux10conversion71_$LT$impl$u20$core..convert..From$LT$ux..u2$GT$$u20$for$u20$ux..u51$GT$4from17h5476cfc67df272fcE
ffffff00002d28c0 T _ZN2ux10conversion71_$LT$impl$u20$core..convert..From$LT$ux..u2$GT$$u20$for$u20$ux..u52$GT$4from17h1a5a81605a9dfab1E
ffffff00002d28c0 T _ZN2ux10conversion71_$LT$impl$u20$core..convert..From$LT$ux..u2$GT$$u20$for$u20$ux..u53$GT$4from17h6d7b1d64ae9194e7E
ffffff00002d28c0 T _ZN2ux10conversion71_$LT$impl$u20$core..convert..From$LT$ux..u2$GT$$u20$for$u20$ux..u54$GT$4from17hb4225a9240458659E
ffffff00002d28c0 T _ZN2ux10conversion71_$LT$impl$u20$core..convert..From$LT$ux..u2$GT$$u20$for$u20$ux..u55$GT$4from17h118b23c5976f7753E
ffffff00002d28c0 T _ZN2ux10conversion71_$LT$impl$u20$core..convert..From$LT$ux..u2$GT$$u20$for$u20$ux..u56$GT$4from17he3c6a7d4b104b295E
ffffff00002d28c0 T _ZN2ux10conversion71_$LT$impl$u20$core..convert..From$LT$ux..u2$GT$$u20$for$u20$ux..u57$GT$4from17h0bd18dbcaf7de512E
ffffff00002d28c0 T _ZN2ux10conversion71_$LT$impl$u20$core..convert..From$LT$ux..u2$GT$$u20$for$u20$ux..u58$GT$4from17h9775365cd514dcccE
ffffff00002d28c0 T _ZN2ux10conversion71_$LT$impl$u20$core..convert..From$LT$ux..u2$GT$$u20$for$u20$ux..u59$GT$4from17h3ec084263589f87eE
ffffff00002d28c0 T _ZN2ux10conversion71_$LT$impl$u20$core..convert..From$LT$ux..u2$GT$$u20$for$u20$ux..u60$GT$4from17h4bcd19e4dabc6e4dE
ffffff00002d28c0 T _ZN2ux10conversion71_$LT$impl$u20$core..convert..From$LT$ux..u2$GT$$u20$for$u20$ux..u61$GT$4from17h00d2af835cf73ad4E
ffffff00002d28c0 T _ZN2ux10conversion71_$LT$impl$u20$core..convert..From$LT$ux..u2$GT$$u20$for$u20$ux..u62$GT$4from17heb1eb16cdc7ebea9E
ffffff00002d28c0 T _ZN2ux10conversion71_$LT$impl$u20$core..convert..From$LT$ux..u2$GT$$u20$for$u20$ux..u63$GT$4from17h59bfbbc347dc1ae7E
ffffff00002d28a0 T _ZN2ux10conversion71_$LT$impl$u20$core..convert..From$LT$ux..u3$GT$$u20$for$u20$ux..u10$GT$4from17hb007e38e3873dcb4E
ffffff00002d28a0 T _ZN2ux10conversion71_$LT$impl$u20$core..convert..From$LT$ux..u3$GT$$u20$for$u20$ux..u11$GT$4from17hc1364049496edcb5E
ffffff00002d28a0 T _ZN2ux10conversion71_$LT$impl$u20$core..convert..From$LT$ux..u3$GT$$u20$for$u20$ux..u12$GT$4from17hab3521bbad88192fE
ffffff00002d28a0 T _ZN2ux10conversion71_$LT$impl$u20$core..convert..From$LT$ux..u3$GT$$u20$for$u20$ux..u13$GT$4from17h57a093b027e7f6c9E
ffffff00002d28a0 T _ZN2ux10conversion71_$LT$impl$u20$core..convert..From$LT$ux..u3$GT$$u20$for$u20$ux..u14$GT$4from17h7b8aa123ad7c5ffbE
ffffff00002d28a0 T _ZN2ux10conversion71_$LT$impl$u20$core..convert..From$LT$ux..u3$GT$$u20$for$u20$ux..u15$GT$4from17hb06e4eca3d5ed0cbE
ffffff00002d28b0 T _ZN2ux10conversion71_$LT$impl$u20$core..convert..From$LT$ux..u3$GT$$u20$for$u20$ux..u17$GT$4from17h0ace909f0192d678E
ffffff00002d28b0 T _ZN2ux10conversion71_$LT$impl$u20$core..convert..From$LT$ux..u3$GT$$u20$for$u20$ux..u18$GT$4from17hcfdf19836bfce2b8E
ffffff00002d28b0 T _ZN2ux10conversion71_$LT$impl$u20$core..convert..From$LT$ux..u3$GT$$u20$for$u20$ux..u19$GT$4from17hce9b66b5cf675f2cE
ffffff00002d28b0 T _ZN2ux10conversion71_$LT$impl$u20$core..convert..From$LT$ux..u3$GT$$u20$for$u20$ux..u20$GT$4from17h44e7e3a8d723912bE
ffffff00002d28b0 T _ZN2ux10conversion71_$LT$impl$u20$core..convert..From$LT$ux..u3$GT$$u20$for$u20$ux..u21$GT$4from17h6e7217db401f40dcE
ffffff00002d28b0 T _ZN2ux10conversion71_$LT$impl$u20$core..convert..From$LT$ux..u3$GT$$u20$for$u20$ux..u22$GT$4from17hcf9c8b0e5a69dbc3E
ffffff00002d28b0 T _ZN2ux10conversion71_$LT$impl$u20$core..convert..From$LT$ux..u3$GT$$u20$for$u20$ux..u23$GT$4from17h832dcf7554b509cfE
ffffff00002d28b0 T _ZN2ux10conversion71_$LT$impl$u20$core..convert..From$LT$ux..u3$GT$$u20$for$u20$ux..u24$GT$4from17hca1c82266e0fa9deE
ffffff00002d28b0 T _ZN2ux10conversion71_$LT$impl$u20$core..convert..From$LT$ux..u3$GT$$u20$for$u20$ux..u25$GT$4from17hd7805fe2996e1b82E
ffffff00002d28b0 T _ZN2ux10conversion71_$LT$impl$u20$core..convert..From$LT$ux..u3$GT$$u20$for$u20$ux..u26$GT$4from17h29489bbda66d6c9eE
ffffff00002d28b0 T _ZN2ux10conversion71_$LT$impl$u20$core..convert..From$LT$ux..u3$GT$$u20$for$u20$ux..u27$GT$4from17h88fcb9e48994cb65E
ffffff00002d28b0 T _ZN2ux10conversion71_$LT$impl$u20$core..convert..From$LT$ux..u3$GT$$u20$for$u20$ux..u28$GT$4from17h33c51fd31e43cb17E
ffffff00002d28b0 T _ZN2ux10conversion71_$LT$impl$u20$core..convert..From$LT$ux..u3$GT$$u20$for$u20$ux..u29$GT$4from17hd99a9ac62603cc58E
ffffff00002d28b0 T _ZN2ux10conversion71_$LT$impl$u20$core..convert..From$LT$ux..u3$GT$$u20$for$u20$ux..u30$GT$4from17hdca6e224761889d1E
ffffff00002d28b0 T _ZN2ux10conversion71_$LT$impl$u20$core..convert..From$LT$ux..u3$GT$$u20$for$u20$ux..u31$GT$4from17haf9c22824e9d3806E
ffffff00002d28c0 T _ZN2ux10conversion71_$LT$impl$u20$core..convert..From$LT$ux..u3$GT$$u20$for$u20$ux..u33$GT$4from17h199c30deadcd1aa5E
ffffff00002d28c0 T _ZN2ux10conversion71_$LT$impl$u20$core..convert..From$LT$ux..u3$GT$$u20$for$u20$ux..u34$GT$4from17ha07d4e3177e8c458E
ffffff00002d28c0 T _ZN2ux10conversion71_$LT$impl$u20$core..convert..From$LT$ux..u3$GT$$u20$for$u20$ux..u35$GT$4from17h1520650d283001ddE
ffffff00002d28c0 T _ZN2ux10conversion71_$LT$impl$u20$core..convert..From$LT$ux..u3$GT$$u20$for$u20$ux..u36$GT$4from17hd412754e7eb152d9E
ffffff00002d28c0 T _ZN2ux10conversion71_$LT$impl$u20$core..convert..From$LT$ux..u3$GT$$u20$for$u20$ux..u37$GT$4from17h2493ac76282d48f1E
ffffff00002d28c0 T _ZN2ux10conversion71_$LT$impl$u20$core..convert..From$LT$ux..u3$GT$$u20$for$u20$ux..u38$GT$4from17hdbdd04fee1343ff4E
ffffff00002d28c0 T _ZN2ux10conversion71_$LT$impl$u20$core..convert..From$LT$ux..u3$GT$$u20$for$u20$ux..u39$GT$4from17h7a5f9715657b8ff9E
ffffff00002d28c0 T _ZN2ux10conversion71_$LT$impl$u20$core..convert..From$LT$ux..u3$GT$$u20$for$u20$ux..u40$GT$4from17h86dc7b13b37c8d93E
ffffff00002d28c0 T _ZN2ux10conversion71_$LT$impl$u20$core..convert..From$LT$ux..u3$GT$$u20$for$u20$ux..u41$GT$4from17h7cc0a7a885ba291cE
ffffff00002d28c0 T _ZN2ux10conversion71_$LT$impl$u20$core..convert..From$LT$ux..u3$GT$$u20$for$u20$ux..u42$GT$4from17h04bed03061ca148bE
ffffff00002d28c0 T _ZN2ux10conversion71_$LT$impl$u20$core..convert..From$LT$ux..u3$GT$$u20$for$u20$ux..u43$GT$4from17hee2272c50c4501f4E
ffffff00002d28c0 T _ZN2ux10conversion71_$LT$impl$u20$core..convert..From$LT$ux..u3$GT$$u20$for$u20$ux..u44$GT$4from17h0b429a709f58993eE
ffffff00002d28c0 T _ZN2ux10conversion71_$LT$impl$u20$core..convert..From$LT$ux..u3$GT$$u20$for$u20$ux..u45$GT$4from17h8b4867802cccc8ecE
ffffff00002d28c0 T _ZN2ux10conversion71_$LT$impl$u20$core..convert..From$LT$ux..u3$GT$$u20$for$u20$ux..u46$GT$4from17h801802b0eef0bbaaE
ffffff00002d28c0 T _ZN2ux10conversion71_$LT$impl$u20$core..convert..From$LT$ux..u3$GT$$u20$for$u20$ux..u47$GT$4from17h2ffa3e8b46c1ec0bE
ffffff00002d28c0 T _ZN2ux10conversion71_$LT$impl$u20$core..convert..From$LT$ux..u3$GT$$u20$for$u20$ux..u48$GT$4from17h559979e7fe5df806E
ffffff00002d28c0 T _ZN2ux10conversion71_$LT$impl$u20$core..convert..From$LT$ux..u3$GT$$u20$for$u20$ux..u49$GT$4from17h14d6eb2f55759c0bE
ffffff00002d28c0 T _ZN2ux10conversion71_$LT$impl$u20$core..convert..From$LT$ux..u3$GT$$u20$for$u20$ux..u50$GT$4from17hf20edc425b9d63d4E
ffffff00002d28c0 T _ZN2ux10conversion71_$LT$impl$u20$core..convert..From$LT$ux..u3$GT$$u20$for$u20$ux..u51$GT$4from17had7a52c2c859da85E
ffffff00002d28c0 T _ZN2ux10conversion71_$LT$impl$u20$core..convert..From$LT$ux..u3$GT$$u20$for$u20$ux..u52$GT$4from17hcd3b14e92ce04622E
ffffff00002d28c0 T _ZN2ux10conversion71_$LT$impl$u20$core..convert..From$LT$ux..u3$GT$$u20$for$u20$ux..u53$GT$4from17h63f324e8db9df9edE
ffffff00002d28c0 T _ZN2ux10conversion71_$LT$impl$u20$core..convert..From$LT$ux..u3$GT$$u20$for$u20$ux..u54$GT$4from17h03b6c04c3995615aE
ffffff00002d28c0 T _ZN2ux10conversion71_$LT$impl$u20$core..convert..From$LT$ux..u3$GT$$u20$for$u20$ux..u55$GT$4from17h24616159f8b368e7E
ffffff00002d28c0 T _ZN2ux10conversion71_$LT$impl$u20$core..convert..From$LT$ux..u3$GT$$u20$for$u20$ux..u56$GT$4from17h2842ea6575600a3aE
ffffff00002d28c0 T _ZN2ux10conversion71_$LT$impl$u20$core..convert..From$LT$ux..u3$GT$$u20$for$u20$ux..u57$GT$4from17h81e73b2aafa01383E
ffffff00002d28c0 T _ZN2ux10conversion71_$LT$impl$u20$core..convert..From$LT$ux..u3$GT$$u20$for$u20$ux..u58$GT$4from17h03c18595da4be1eeE
ffffff00002d28c0 T _ZN2ux10conversion71_$LT$impl$u20$core..convert..From$LT$ux..u3$GT$$u20$for$u20$ux..u59$GT$4from17h9fe71d490912c296E
ffffff00002d28c0 T _ZN2ux10conversion71_$LT$impl$u20$core..convert..From$LT$ux..u3$GT$$u20$for$u20$ux..u60$GT$4from17h988492e79b34e265E
ffffff00002d28c0 T _ZN2ux10conversion71_$LT$impl$u20$core..convert..From$LT$ux..u3$GT$$u20$for$u20$ux..u61$GT$4from17h39bfcdd2a3aea7edE
ffffff00002d28c0 T _ZN2ux10conversion71_$LT$impl$u20$core..convert..From$LT$ux..u3$GT$$u20$for$u20$ux..u62$GT$4from17h3898403dcda5f541E
ffffff00002d28c0 T _ZN2ux10conversion71_$LT$impl$u20$core..convert..From$LT$ux..u3$GT$$u20$for$u20$ux..u63$GT$4from17heafd101d8051bc83E
ffffff00002d28a0 T _ZN2ux10conversion71_$LT$impl$u20$core..convert..From$LT$ux..u4$GT$$u20$for$u20$ux..u10$GT$4from17he3c58335425f01c2E
ffffff00002d28a0 T _ZN2ux10conversion71_$LT$impl$u20$core..convert..From$LT$ux..u4$GT$$u20$for$u20$ux..u11$GT$4from17hafbddd04469bfbc7E
ffffff00002d28a0 T _ZN2ux10conversion71_$LT$impl$u20$core..convert..From$LT$ux..u4$GT$$u20$for$u20$ux..u12$GT$4from17h4c680d4d81f59c86E
ffffff00002d28a0 T _ZN2ux10conversion71_$LT$impl$u20$core..convert..From$LT$ux..u4$GT$$u20$for$u20$ux..u13$GT$4from17h760827ae5d6eb573E
ffffff00002d28a0 T _ZN2ux10conversion71_$LT$impl$u20$core..convert..From$LT$ux..u4$GT$$u20$for$u20$ux..u14$GT$4from17hae27c76c0fac6467E
ffffff00002d28a0 T _ZN2ux10conversion71_$LT$impl$u20$core..convert..From$LT$ux..u4$GT$$u20$for$u20$ux..u15$GT$4from17hd913f08d3205ce51E
ffffff00002d28b0 T _ZN2ux10conversion71_$LT$impl$u20$core..convert..From$LT$ux..u4$GT$$u20$for$u20$ux..u17$GT$4from17h824a357a3554ff87E
ffffff00002d28b0 T _ZN2ux10conversion71_$LT$impl$u20$core..convert..From$LT$ux..u4$GT$$u20$for$u20$ux..u18$GT$4from17h394e04b1c9bfccc9E
ffffff00002d28b0 T _ZN2ux10conversion71_$LT$impl$u20$core..convert..From$LT$ux..u4$GT$$u20$for$u20$ux..u19$GT$4from17hb32823af817a5c45E
ffffff00002d28b0 T _ZN2ux10conversion71_$LT$impl$u20$core..convert..From$LT$ux..u4$GT$$u20$for$u20$ux..u20$GT$4from17h1b246c6650796026E
ffffff00002d28b0 T _ZN2ux10conversion71_$LT$impl$u20$core..convert..From$LT$ux..u4$GT$$u20$for$u20$ux..u21$GT$4from17h1c5be0be994a11d9E
ffffff00002d28b0 T _ZN2ux10conversion71_$LT$impl$u20$core..convert..From$LT$ux..u4$GT$$u20$for$u20$ux..u22$GT$4from17h7235a27c9650cafeE
ffffff00002d28b0 T _ZN2ux10conversion71_$LT$impl$u20$core..convert..From$LT$ux..u4$GT$$u20$for$u20$ux..u23$GT$4from17h9420ddc53b465f69E
ffffff00002d28b0 T _ZN2ux10conversion71_$LT$impl$u20$core..convert..From$LT$ux..u4$GT$$u20$for$u20$ux..u24$GT$4from17h092409ae8cecb443E
ffffff00002d28b0 T _ZN2ux10conversion71_$LT$impl$u20$core..convert..From$LT$ux..u4$GT$$u20$for$u20$ux..u25$GT$4from17h3492876d6c73f1acE
ffffff00002d28b0 T _ZN2ux10conversion71_$LT$impl$u20$core..convert..From$LT$ux..u4$GT$$u20$for$u20$ux..u26$GT$4from17h8445039ec081ae74E
ffffff00002d28b0 T _ZN2ux10conversion71_$LT$impl$u20$core..convert..From$LT$ux..u4$GT$$u20$for$u20$ux..u27$GT$4from17h27de659eb46545ffE
ffffff00002d28b0 T _ZN2ux10conversion71_$LT$impl$u20$core..convert..From$LT$ux..u4$GT$$u20$for$u20$ux..u28$GT$4from17h210995b44993fb32E
ffffff00002d28b0 T _ZN2ux10conversion71_$LT$impl$u20$core..convert..From$LT$ux..u4$GT$$u20$for$u20$ux..u29$GT$4from17h34111e106771883dE
ffffff00002d28b0 T _ZN2ux10conversion71_$LT$impl$u20$core..convert..From$LT$ux..u4$GT$$u20$for$u20$ux..u30$GT$4from17hff90cba90f74fcaaE
ffffff00002d28b0 T _ZN2ux10conversion71_$LT$impl$u20$core..convert..From$LT$ux..u4$GT$$u20$for$u20$ux..u31$GT$4from17h3294d183a427bfbfE
ffffff00002d28c0 T _ZN2ux10conversion71_$LT$impl$u20$core..convert..From$LT$ux..u4$GT$$u20$for$u20$ux..u33$GT$4from17h33c5e90f9d8d7bc6E
ffffff00002d28c0 T _ZN2ux10conversion71_$LT$impl$u20$core..convert..From$LT$ux..u4$GT$$u20$for$u20$ux..u34$GT$4from17h171fc17e38c53422E
ffffff00002d28c0 T _ZN2ux10conversion71_$LT$impl$u20$core..convert..From$LT$ux..u4$GT$$u20$for$u20$ux..u35$GT$4from17h678dd2f99136935bE
ffffff00002d28c0 T _ZN2ux10conversion71_$LT$impl$u20$core..convert..From$LT$ux..u4$GT$$u20$for$u20$ux..u36$GT$4from17hedca4fe1333bb3ebE
ffffff00002d28c0 T _ZN2ux10conversion71_$LT$impl$u20$core..convert..From$LT$ux..u4$GT$$u20$for$u20$ux..u37$GT$4from17hed0ab4064e52b490E
ffffff00002d28c0 T _ZN2ux10conversion71_$LT$impl$u20$core..convert..From$LT$ux..u4$GT$$u20$for$u20$ux..u38$GT$4from17hb9d5097b63cd5224E
ffffff00002d28c0 T _ZN2ux10conversion71_$LT$impl$u20$core..convert..From$LT$ux..u4$GT$$u20$for$u20$ux..u39$GT$4from17had22226eae56e8b3E
ffffff00002d28c0 T _ZN2ux10conversion71_$LT$impl$u20$core..convert..From$LT$ux..u4$GT$$u20$for$u20$ux..u40$GT$4from17h3638f88aaa4c6828E
ffffff00002d28c0 T _ZN2ux10conversion71_$LT$impl$u20$core..convert..From$LT$ux..u4$GT$$u20$for$u20$ux..u41$GT$4from17h8fca953686b8be81E
ffffff00002d28c0 T _ZN2ux10conversion71_$LT$impl$u20$core..convert..From$LT$ux..u4$GT$$u20$for$u20$ux..u42$GT$4from17h86f436ca84ad5011E
ffffff00002d28c0 T _ZN2ux10conversion71_$LT$impl$u20$core..convert..From$LT$ux..u4$GT$$u20$for$u20$ux..u43$GT$4from17h0e0be6ae44a6c065E
ffffff00002d28c0 T _ZN2ux10conversion71_$LT$impl$u20$core..convert..From$LT$ux..u4$GT$$u20$for$u20$ux..u44$GT$4from17h2e318d7a0e3862c8E
ffffff00002d28c0 T _ZN2ux10conversion71_$LT$impl$u20$core..convert..From$LT$ux..u4$GT$$u20$for$u20$ux..u45$GT$4from17ha17f6c621133b219E
ffffff00002d28c0 T _ZN2ux10conversion71_$LT$impl$u20$core..convert..From$LT$ux..u4$GT$$u20$for$u20$ux..u46$GT$4from17h6ebed61e82ef67b3E
ffffff00002d28c0 T _ZN2ux10conversion71_$LT$impl$u20$core..convert..From$LT$ux..u4$GT$$u20$for$u20$ux..u47$GT$4from17h01bbab9f5ca926ccE
ffffff00002d28c0 T _ZN2ux10conversion71_$LT$impl$u20$core..convert..From$LT$ux..u4$GT$$u20$for$u20$ux..u48$GT$4from17h6d16ea239f8dc8e3E
ffffff00002d28c0 T _ZN2ux10conversion71_$LT$impl$u20$core..convert..From$LT$ux..u4$GT$$u20$for$u20$ux..u49$GT$4from17h03b46d475a3c46b9E
ffffff00002d28c0 T _ZN2ux10conversion71_$LT$impl$u20$core..convert..From$LT$ux..u4$GT$$u20$for$u20$ux..u50$GT$4from17haae7454fade7f4c7E
ffffff00002d28c0 T _ZN2ux10conversion71_$LT$impl$u20$core..convert..From$LT$ux..u4$GT$$u20$for$u20$ux..u51$GT$4from17h07801f1fcfc83eb7E
ffffff00002d28c0 T _ZN2ux10conversion71_$LT$impl$u20$core..convert..From$LT$ux..u4$GT$$u20$for$u20$ux..u52$GT$4from17h0f567aabe04d7bc1E
ffffff00002d28c0 T _ZN2ux10conversion71_$LT$impl$u20$core..convert..From$LT$ux..u4$GT$$u20$for$u20$ux..u53$GT$4from17h2858a0c29fd900cfE
ffffff00002d28c0 T _ZN2ux10conversion71_$LT$impl$u20$core..convert..From$LT$ux..u4$GT$$u20$for$u20$ux..u54$GT$4from17h15168e5ddbb9a493E
ffffff00002d28c0 T _ZN2ux10conversion71_$LT$impl$u20$core..convert..From$LT$ux..u4$GT$$u20$for$u20$ux..u55$GT$4from17h71bd3c25c7def1b0E
ffffff00002d28c0 T _ZN2ux10conversion71_$LT$impl$u20$core..convert..From$LT$ux..u4$GT$$u20$for$u20$ux..u56$GT$4from17h68c2cf7e4597b16fE
ffffff00002d28c0 T _ZN2ux10conversion71_$LT$impl$u20$core..convert..From$LT$ux..u4$GT$$u20$for$u20$ux..u57$GT$4from17h188549ffd1dfa89cE
ffffff00002d28c0 T _ZN2ux10conversion71_$LT$impl$u20$core..convert..From$LT$ux..u4$GT$$u20$for$u20$ux..u58$GT$4from17h89e4d12e0bcc976eE
ffffff00002d28c0 T _ZN2ux10conversion71_$LT$impl$u20$core..convert..From$LT$ux..u4$GT$$u20$for$u20$ux..u59$GT$4from17h4f192a7cccd8d4e6E
ffffff00002d28c0 T _ZN2ux10conversion71_$LT$impl$u20$core..convert..From$LT$ux..u4$GT$$u20$for$u20$ux..u60$GT$4from17h2ea1c532ea94643aE
ffffff00002d28c0 T _ZN2ux10conversion71_$LT$impl$u20$core..convert..From$LT$ux..u4$GT$$u20$for$u20$ux..u61$GT$4from17h0e3d43ddf52a8782E
ffffff00002d28c0 T _ZN2ux10conversion71_$LT$impl$u20$core..convert..From$LT$ux..u4$GT$$u20$for$u20$ux..u62$GT$4from17h5445b09aadc8db0aE
ffffff00002d28c0 T _ZN2ux10conversion71_$LT$impl$u20$core..convert..From$LT$ux..u4$GT$$u20$for$u20$ux..u63$GT$4from17hfd0ca9184ec23524E
ffffff00002d28a0 T _ZN2ux10conversion71_$LT$impl$u20$core..convert..From$LT$ux..u5$GT$$u20$for$u20$ux..u10$GT$4from17ha8bf44d9634bb50eE
ffffff00002d28a0 T _ZN2ux10conversion71_$LT$impl$u20$core..convert..From$LT$ux..u5$GT$$u20$for$u20$ux..u11$GT$4from17h47c9c93b50d3ca5cE
ffffff00002d28a0 T _ZN2ux10conversion71_$LT$impl$u20$core..convert..From$LT$ux..u5$GT$$u20$for$u20$ux..u12$GT$4from17hf6f557e874313b67E
ffffff00002d28a0 T _ZN2ux10conversion71_$LT$impl$u20$core..convert..From$LT$ux..u5$GT$$u20$for$u20$ux..u13$GT$4from17hcbf940f52a645d91E
ffffff00002d28a0 T _ZN2ux10conversion71_$LT$impl$u20$core..convert..From$LT$ux..u5$GT$$u20$for$u20$ux..u14$GT$4from17h33ea320b0c950243E
ffffff00002d28a0 T _ZN2ux10conversion71_$LT$impl$u20$core..convert..From$LT$ux..u5$GT$$u20$for$u20$ux..u15$GT$4from17hecd5ff748b81782fE
ffffff00002d28b0 T _ZN2ux10conversion71_$LT$impl$u20$core..convert..From$LT$ux..u5$GT$$u20$for$u20$ux..u17$GT$4from17h410f1dba39030ba4E
ffffff00002d28b0 T _ZN2ux10conversion71_$LT$impl$u20$core..convert..From$LT$ux..u5$GT$$u20$for$u20$ux..u18$GT$4from17h1ffa60e742be7fb3E
ffffff00002d28b0 T _ZN2ux10conversion71_$LT$impl$u20$core..convert..From$LT$ux..u5$GT$$u20$for$u20$ux..u19$GT$4from17h299671da7f9db9e0E
ffffff00002d28b0 T _ZN2ux10conversion71_$LT$impl$u20$core..convert..From$LT$ux..u5$GT$$u20$for$u20$ux..u20$GT$4from17hb8cf5686cbf99b63E
ffffff00002d28b0 T _ZN2ux10conversion71_$LT$impl$u20$core..convert..From$LT$ux..u5$GT$$u20$for$u20$ux..u21$GT$4from17h3a67b10585d3ab73E
ffffff00002d28b0 T _ZN2ux10conversion71_$LT$impl$u20$core..convert..From$LT$ux..u5$GT$$u20$for$u20$ux..u22$GT$4from17hef79d6bd3fa627a2E
ffffff00002d28b0 T _ZN2ux10conversion71_$LT$impl$u20$core..convert..From$LT$ux..u5$GT$$u20$for$u20$ux..u23$GT$4from17ha2d4654281a6e6bbE
ffffff00002d28b0 T _ZN2ux10conversion71_$LT$impl$u20$core..convert..From$LT$ux..u5$GT$$u20$for$u20$ux..u24$GT$4from17ha63454e0990b5b36E
ffffff00002d28b0 T _ZN2ux10conversion71_$LT$impl$u20$core..convert..From$LT$ux..u5$GT$$u20$for$u20$ux..u25$GT$4from17hfd166ff594b26f12E
ffffff00002d28b0 T _ZN2ux10conversion71_$LT$impl$u20$core..convert..From$LT$ux..u5$GT$$u20$for$u20$ux..u26$GT$4from17h649d9fc565dc7148E
ffffff00002d28b0 T _ZN2ux10conversion71_$LT$impl$u20$core..convert..From$LT$ux..u5$GT$$u20$for$u20$ux..u27$GT$4from17h4fa910e963719dadE
ffffff00002d28b0 T _ZN2ux10conversion71_$LT$impl$u20$core..convert..From$LT$ux..u5$GT$$u20$for$u20$ux..u28$GT$4from17h08ff02c80881773eE
ffffff00002d28b0 T _ZN2ux10conversion71_$LT$impl$u20$core..convert..From$LT$ux..u5$GT$$u20$for$u20$ux..u29$GT$4from17h115ec03f18763f8aE
ffffff00002d28b0 T _ZN2ux10conversion71_$LT$impl$u20$core..convert..From$LT$ux..u5$GT$$u20$for$u20$ux..u30$GT$4from17h7d9b4512e2c52fbdE
ffffff00002d28b0 T _ZN2ux10conversion71_$LT$impl$u20$core..convert..From$LT$ux..u5$GT$$u20$for$u20$ux..u31$GT$4from17ha4ffa45e0e266e0fE
ffffff00002d28c0 T _ZN2ux10conversion71_$LT$impl$u20$core..convert..From$LT$ux..u5$GT$$u20$for$u20$ux..u33$GT$4from17h1edd24e067c176e6E
ffffff00002d28c0 T _ZN2ux10conversion71_$LT$impl$u20$core..convert..From$LT$ux..u5$GT$$u20$for$u20$ux..u34$GT$4from17h8d5b66e9cd7a014cE
ffffff00002d28c0 T _ZN2ux10conversion71_$LT$impl$u20$core..convert..From$LT$ux..u5$GT$$u20$for$u20$ux..u35$GT$4from17h053976262a8b13b0E
ffffff00002d28c0 T _ZN2ux10conversion71_$LT$impl$u20$core..convert..From$LT$ux..u5$GT$$u20$for$u20$ux..u36$GT$4from17h030dd28e4ed27cafE
ffffff00002d28c0 T _ZN2ux10conversion71_$LT$impl$u20$core..convert..From$LT$ux..u5$GT$$u20$for$u20$ux..u37$GT$4from17hc297eb455cf8d059E
ffffff00002d28c0 T _ZN2ux10conversion71_$LT$impl$u20$core..convert..From$LT$ux..u5$GT$$u20$for$u20$ux..u38$GT$4from17h09eb40a5d5e113dfE
ffffff00002d28c0 T _ZN2ux10conversion71_$LT$impl$u20$core..convert..From$LT$ux..u5$GT$$u20$for$u20$ux..u39$GT$4from17h7afd3a9b9e101909E
ffffff00002d28c0 T _ZN2ux10conversion71_$LT$impl$u20$core..convert..From$LT$ux..u5$GT$$u20$for$u20$ux..u40$GT$4from17h4a4a488de3d56678E
ffffff00002d28c0 T _ZN2ux10conversion71_$LT$impl$u20$core..convert..From$LT$ux..u5$GT$$u20$for$u20$ux..u41$GT$4from17hb167b5514ffb5996E
ffffff00002d28c0 T _ZN2ux10conversion71_$LT$impl$u20$core..convert..From$LT$ux..u5$GT$$u20$for$u20$ux..u42$GT$4from17h5f8639561de369a4E
ffffff00002d28c0 T _ZN2ux10conversion71_$LT$impl$u20$core..convert..From$LT$ux..u5$GT$$u20$for$u20$ux..u43$GT$4from17h32be4e62e93b7e1dE
ffffff00002d28c0 T _ZN2ux10conversion71_$LT$impl$u20$core..convert..From$LT$ux..u5$GT$$u20$for$u20$ux..u44$GT$4from17h066a34a188a3facaE
ffffff00002d28c0 T _ZN2ux10conversion71_$LT$impl$u20$core..convert..From$LT$ux..u5$GT$$u20$for$u20$ux..u45$GT$4from17h51667cc9fcf5286bE
ffffff00002d28c0 T _ZN2ux10conversion71_$LT$impl$u20$core..convert..From$LT$ux..u5$GT$$u20$for$u20$ux..u46$GT$4from17ha48147b1c9ec1012E
ffffff00002d28c0 T _ZN2ux10conversion71_$LT$impl$u20$core..convert..From$LT$ux..u5$GT$$u20$for$u20$ux..u47$GT$4from17h59266a01af9e4cb0E
ffffff00002d28c0 T _ZN2ux10conversion71_$LT$impl$u20$core..convert..From$LT$ux..u5$GT$$u20$for$u20$ux..u48$GT$4from17hbffe485591dc28a2E
ffffff00002d28c0 T _ZN2ux10conversion71_$LT$impl$u20$core..convert..From$LT$ux..u5$GT$$u20$for$u20$ux..u49$GT$4from17hb24bb6dbdfcc62c7E
ffffff00002d28c0 T _ZN2ux10conversion71_$LT$impl$u20$core..convert..From$LT$ux..u5$GT$$u20$for$u20$ux..u50$GT$4from17h8ead6e3271f2f6bbE
ffffff00002d28c0 T _ZN2ux10conversion71_$LT$impl$u20$core..convert..From$LT$ux..u5$GT$$u20$for$u20$ux..u51$GT$4from17hf7d93d4b78999a05E
ffffff00002d28c0 T _ZN2ux10conversion71_$LT$impl$u20$core..convert..From$LT$ux..u5$GT$$u20$for$u20$ux..u52$GT$4from17h43a3c210347c0832E
ffffff00002d28c0 T _ZN2ux10conversion71_$LT$impl$u20$core..convert..From$LT$ux..u5$GT$$u20$for$u20$ux..u53$GT$4from17h08e930c5451a73e8E
ffffff00002d28c0 T _ZN2ux10conversion71_$LT$impl$u20$core..convert..From$LT$ux..u5$GT$$u20$for$u20$ux..u54$GT$4from17hca51329aee428330E
ffffff00002d28c0 T _ZN2ux10conversion71_$LT$impl$u20$core..convert..From$LT$ux..u5$GT$$u20$for$u20$ux..u55$GT$4from17h7d12af2a627d7accE
ffffff00002d28c0 T _ZN2ux10conversion71_$LT$impl$u20$core..convert..From$LT$ux..u5$GT$$u20$for$u20$ux..u56$GT$4from17h1f019a49e720b336E
ffffff00002d28c0 T _ZN2ux10conversion71_$LT$impl$u20$core..convert..From$LT$ux..u5$GT$$u20$for$u20$ux..u57$GT$4from17h00b043042c0ba7b2E
ffffff00002d28c0 T _ZN2ux10conversion71_$LT$impl$u20$core..convert..From$LT$ux..u5$GT$$u20$for$u20$ux..u58$GT$4from17hca38d48b67b7ecb9E
ffffff00002d28c0 T _ZN2ux10conversion71_$LT$impl$u20$core..convert..From$LT$ux..u5$GT$$u20$for$u20$ux..u59$GT$4from17h0ff4ef2e37c2d4fdE
ffffff00002d28c0 T _ZN2ux10conversion71_$LT$impl$u20$core..convert..From$LT$ux..u5$GT$$u20$for$u20$ux..u60$GT$4from17hefd5bca11904fc8dE
ffffff00002d28c0 T _ZN2ux10conversion71_$LT$impl$u20$core..convert..From$LT$ux..u5$GT$$u20$for$u20$ux..u61$GT$4from17h0a61268e24a7d1fcE
ffffff00002d28c0 T _ZN2ux10conversion71_$LT$impl$u20$core..convert..From$LT$ux..u5$GT$$u20$for$u20$ux..u62$GT$4from17h87d22403c9e7e256E
ffffff00002d28c0 T _ZN2ux10conversion71_$LT$impl$u20$core..convert..From$LT$ux..u5$GT$$u20$for$u20$ux..u63$GT$4from17h4eb7e6cb1d3496cdE
ffffff00002d28a0 T _ZN2ux10conversion71_$LT$impl$u20$core..convert..From$LT$ux..u6$GT$$u20$for$u20$ux..u10$GT$4from17h5f32d69f7ffb9aecE
ffffff00002d28a0 T _ZN2ux10conversion71_$LT$impl$u20$core..convert..From$LT$ux..u6$GT$$u20$for$u20$ux..u11$GT$4from17h787f0f6f1ead99d9E
ffffff00002d28a0 T _ZN2ux10conversion71_$LT$impl$u20$core..convert..From$LT$ux..u6$GT$$u20$for$u20$ux..u12$GT$4from17hb9821d0accb680b8E
ffffff00002d28a0 T _ZN2ux10conversion71_$LT$impl$u20$core..convert..From$LT$ux..u6$GT$$u20$for$u20$ux..u13$GT$4from17h5747ff32bbfb0d05E
ffffff00002d28a0 T _ZN2ux10conversion71_$LT$impl$u20$core..convert..From$LT$ux..u6$GT$$u20$for$u20$ux..u14$GT$4from17h7fc8c3b54e308d91E
ffffff00002d28a0 T _ZN2ux10conversion71_$LT$impl$u20$core..convert..From$LT$ux..u6$GT$$u20$for$u20$ux..u15$GT$4from17h30ed170ef22c5ff9E
ffffff00002d28b0 T _ZN2ux10conversion71_$LT$impl$u20$core..convert..From$LT$ux..u6$GT$$u20$for$u20$ux..u17$GT$4from17h7b08067cefcffb43E
ffffff00002d28b0 T _ZN2ux10conversion71_$LT$impl$u20$core..convert..From$LT$ux..u6$GT$$u20$for$u20$ux..u18$GT$4from17h15da5fbcdd8f4485E
ffffff00002d28b0 T _ZN2ux10conversion71_$LT$impl$u20$core..convert..From$LT$ux..u6$GT$$u20$for$u20$ux..u19$GT$4from17h3959b4605ad42761E
ffffff00002d28b0 T _ZN2ux10conversion71_$LT$impl$u20$core..convert..From$LT$ux..u6$GT$$u20$for$u20$ux..u20$GT$4from17h68f827409598ee5bE
ffffff00002d28b0 T _ZN2ux10conversion71_$LT$impl$u20$core..convert..From$LT$ux..u6$GT$$u20$for$u20$ux..u21$GT$4from17h92a729c49ac5ad53E
ffffff00002d28b0 T _ZN2ux10conversion71_$LT$impl$u20$core..convert..From$LT$ux..u6$GT$$u20$for$u20$ux..u22$GT$4from17h20bb0fc866871f0aE
ffffff00002d28b0 T _ZN2ux10conversion71_$LT$impl$u20$core..convert..From$LT$ux..u6$GT$$u20$for$u20$ux..u23$GT$4from17h63eaf2a264169c1dE
ffffff00002d28b0 T _ZN2ux10conversion71_$LT$impl$u20$core..convert..From$LT$ux..u6$GT$$u20$for$u20$ux..u24$GT$4from17h08a437c3bcb795b1E
ffffff00002d28b0 T _ZN2ux10conversion71_$LT$impl$u20$core..convert..From$LT$ux..u6$GT$$u20$for$u20$ux..u25$GT$4from17hf86c10682c91c8b3E
ffffff00002d28b0 T _ZN2ux10conversion71_$LT$impl$u20$core..convert..From$LT$ux..u6$GT$$u20$for$u20$ux..u26$GT$4from17ha9b363cfbaf82411E
ffffff00002d28b0 T _ZN2ux10conversion71_$LT$impl$u20$core..convert..From$LT$ux..u6$GT$$u20$for$u20$ux..u27$GT$4from17ha0b0baa96fd89fbdE
ffffff00002d28b0 T _ZN2ux10conversion71_$LT$impl$u20$core..convert..From$LT$ux..u6$GT$$u20$for$u20$ux..u28$GT$4from17hac2609ee42989d5eE
ffffff00002d28b0 T _ZN2ux10conversion71_$LT$impl$u20$core..convert..From$LT$ux..u6$GT$$u20$for$u20$ux..u29$GT$4from17h48c17ff222dfa0adE
ffffff00002d28b0 T _ZN2ux10conversion71_$LT$impl$u20$core..convert..From$LT$ux..u6$GT$$u20$for$u20$ux..u30$GT$4from17hfd32f4acc5718328E
ffffff00002d28b0 T _ZN2ux10conversion71_$LT$impl$u20$core..convert..From$LT$ux..u6$GT$$u20$for$u20$ux..u31$GT$4from17he0633ba26ad58c46E
ffffff00002d28c0 T _ZN2ux10conversion71_$LT$impl$u20$core..convert..From$LT$ux..u6$GT$$u20$for$u20$ux..u33$GT$4from17hddedda207993cb51E
ffffff00002d28c0 T _ZN2ux10conversion71_$LT$impl$u20$core..convert..From$LT$ux..u6$GT$$u20$for$u20$ux..u34$GT$4from17h3a56716f666bf705E
ffffff00002d28c0 T _ZN2ux10conversion71_$LT$impl$u20$core..convert..From$LT$ux..u6$GT$$u20$for$u20$ux..u35$GT$4from17h1200dbb99b10a531E
ffffff00002d28c0 T _ZN2ux10conversion71_$LT$impl$u20$core..convert..From$LT$ux..u6$GT$$u20$for$u20$ux..u36$GT$4from17h048a52f6a912d218E
ffffff00002d28c0 T _ZN2ux10conversion71_$LT$impl$u20$core..convert..From$LT$ux..u6$GT$$u20$for$u20$ux..u37$GT$4from17h33387402b3f3e591E
ffffff00002d28c0 T _ZN2ux10conversion71_$LT$impl$u20$core..convert..From$LT$ux..u6$GT$$u20$for$u20$ux..u38$GT$4from17h36fe4a1542f9b62eE
ffffff00002d28c0 T _ZN2ux10conversion71_$LT$impl$u20$core..convert..From$LT$ux..u6$GT$$u20$for$u20$ux..u39$GT$4from17h2ab3fb6d72e88d30E
ffffff00002d28c0 T _ZN2ux10conversion71_$LT$impl$u20$core..convert..From$LT$ux..u6$GT$$u20$for$u20$ux..u40$GT$4from17h0fdba44af8651c94E
ffffff00002d28c0 T _ZN2ux10conversion71_$LT$impl$u20$core..convert..From$LT$ux..u6$GT$$u20$for$u20$ux..u41$GT$4from17h09dc90bca4f2bef1E
ffffff00002d28c0 T _ZN2ux10conversion71_$LT$impl$u20$core..convert..From$LT$ux..u6$GT$$u20$for$u20$ux..u42$GT$4from17hbdc47c8d5c4505d9E
ffffff00002d28c0 T _ZN2ux10conversion71_$LT$impl$u20$core..convert..From$LT$ux..u6$GT$$u20$for$u20$ux..u43$GT$4from17h12974d7918c9d95eE
ffffff00002d28c0 T _ZN2ux10conversion71_$LT$impl$u20$core..convert..From$LT$ux..u6$GT$$u20$for$u20$ux..u44$GT$4from17h168573c7a48a99caE
ffffff00002d28c0 T _ZN2ux10conversion71_$LT$impl$u20$core..convert..From$LT$ux..u6$GT$$u20$for$u20$ux..u45$GT$4from17h063b7a2bf4394965E
ffffff00002d28c0 T _ZN2ux10conversion71_$LT$impl$u20$core..convert..From$LT$ux..u6$GT$$u20$for$u20$ux..u46$GT$4from17hb248b77682e6cbcaE
ffffff00002d28c0 T _ZN2ux10conversion71_$LT$impl$u20$core..convert..From$LT$ux..u6$GT$$u20$for$u20$ux..u47$GT$4from17h137c9c4cfe509121E
ffffff00002d28c0 T _ZN2ux10conversion71_$LT$impl$u20$core..convert..From$LT$ux..u6$GT$$u20$for$u20$ux..u48$GT$4from17he17ab2770ad74eb0E
ffffff00002d28c0 T _ZN2ux10conversion71_$LT$impl$u20$core..convert..From$LT$ux..u6$GT$$u20$for$u20$ux..u49$GT$4from17h59b67e78a2ffc92cE
ffffff00002d28c0 T _ZN2ux10conversion71_$LT$impl$u20$core..convert..From$LT$ux..u6$GT$$u20$for$u20$ux..u50$GT$4from17hc1cba22ee00b485fE
ffffff00002d28c0 T _ZN2ux10conversion71_$LT$impl$u20$core..convert..From$LT$ux..u6$GT$$u20$for$u20$ux..u51$GT$4from17h86753afe71e55991E
ffffff00002d28c0 T _ZN2ux10conversion71_$LT$impl$u20$core..convert..From$LT$ux..u6$GT$$u20$for$u20$ux..u52$GT$4from17h9db6d020092f8ad3E
ffffff00002d28c0 T _ZN2ux10conversion71_$LT$impl$u20$core..convert..From$LT$ux..u6$GT$$u20$for$u20$ux..u53$GT$4from17hda7d7f6da6fcb6e3E
ffffff00002d28c0 T _ZN2ux10conversion71_$LT$impl$u20$core..convert..From$LT$ux..u6$GT$$u20$for$u20$ux..u54$GT$4from17h59639d37ba5d59ffE
ffffff00002d28c0 T _ZN2ux10conversion71_$LT$impl$u20$core..convert..From$LT$ux..u6$GT$$u20$for$u20$ux..u55$GT$4from17h9333492a1090e01fE
ffffff00002d28c0 T _ZN2ux10conversion71_$LT$impl$u20$core..convert..From$LT$ux..u6$GT$$u20$for$u20$ux..u56$GT$4from17h532fad74b3dca971E
ffffff00002d28c0 T _ZN2ux10conversion71_$LT$impl$u20$core..convert..From$LT$ux..u6$GT$$u20$for$u20$ux..u57$GT$4from17h425691dd8d19bb94E
ffffff00002d28c0 T _ZN2ux10conversion71_$LT$impl$u20$core..convert..From$LT$ux..u6$GT$$u20$for$u20$ux..u58$GT$4from17hb9fc4fe84951769eE
ffffff00002d28c0 T _ZN2ux10conversion71_$LT$impl$u20$core..convert..From$LT$ux..u6$GT$$u20$for$u20$ux..u59$GT$4from17h87eee43d5a7e90c2E
ffffff00002d28c0 T _ZN2ux10conversion71_$LT$impl$u20$core..convert..From$LT$ux..u6$GT$$u20$for$u20$ux..u60$GT$4from17h5d21d8b571023af1E
ffffff00002d28c0 T _ZN2ux10conversion71_$LT$impl$u20$core..convert..From$LT$ux..u6$GT$$u20$for$u20$ux..u61$GT$4from17hbb5c9ec785bcec0fE
ffffff00002d28c0 T _ZN2ux10conversion71_$LT$impl$u20$core..convert..From$LT$ux..u6$GT$$u20$for$u20$ux..u62$GT$4from17h8c46da65eb32b2bbE
ffffff00002d28c0 T _ZN2ux10conversion71_$LT$impl$u20$core..convert..From$LT$ux..u6$GT$$u20$for$u20$ux..u63$GT$4from17h3ee47972f34812d7E
ffffff00002d28a0 T _ZN2ux10conversion71_$LT$impl$u20$core..convert..From$LT$ux..u7$GT$$u20$for$u20$ux..u10$GT$4from17hf6769ca4ed266146E
ffffff00002d28a0 T _ZN2ux10conversion71_$LT$impl$u20$core..convert..From$LT$ux..u7$GT$$u20$for$u20$ux..u11$GT$4from17h7d5bcbb10df1666fE
ffffff00002d28a0 T _ZN2ux10conversion71_$LT$impl$u20$core..convert..From$LT$ux..u7$GT$$u20$for$u20$ux..u12$GT$4from17h3bf0d7f8650ee858E
ffffff00002d28a0 T _ZN2ux10conversion71_$LT$impl$u20$core..convert..From$LT$ux..u7$GT$$u20$for$u20$ux..u13$GT$4from17h8158574ddef817b9E
ffffff00002d28a0 T _ZN2ux10conversion71_$LT$impl$u20$core..convert..From$LT$ux..u7$GT$$u20$for$u20$ux..u14$GT$4from17h2e64c84f2565286eE
ffffff00002d28a0 T _ZN2ux10conversion71_$LT$impl$u20$core..convert..From$LT$ux..u7$GT$$u20$for$u20$ux..u15$GT$4from17hefb87dbf34c93fc6E
ffffff00002d28b0 T _ZN2ux10conversion71_$LT$impl$u20$core..convert..From$LT$ux..u7$GT$$u20$for$u20$ux..u17$GT$4from17h818706bc4de47f54E
ffffff00002d28b0 T _ZN2ux10conversion71_$LT$impl$u20$core..convert..From$LT$ux..u7$GT$$u20$for$u20$ux..u18$GT$4from17h685ce4cf89b45d93E
ffffff00002d28b0 T _ZN2ux10conversion71_$LT$impl$u20$core..convert..From$LT$ux..u7$GT$$u20$for$u20$ux..u19$GT$4from17hb5acda35547e7a2eE
ffffff00002d28b0 T _ZN2ux10conversion71_$LT$impl$u20$core..convert..From$LT$ux..u7$GT$$u20$for$u20$ux..u20$GT$4from17hb342be6c9714f02cE
ffffff00002d28b0 T _ZN2ux10conversion71_$LT$impl$u20$core..convert..From$LT$ux..u7$GT$$u20$for$u20$ux..u21$GT$4from17ha4a9c6dc36c7bb91E
ffffff00002d28b0 T _ZN2ux10conversion71_$LT$impl$u20$core..convert..From$LT$ux..u7$GT$$u20$for$u20$ux..u22$GT$4from17h7bc315bf03635856E
ffffff00002d28b0 T _ZN2ux10conversion71_$LT$impl$u20$core..convert..From$LT$ux..u7$GT$$u20$for$u20$ux..u23$GT$4from17ha6f7dcd8297fda88E
ffffff00002d28b0 T _ZN2ux10conversion71_$LT$impl$u20$core..convert..From$LT$ux..u7$GT$$u20$for$u20$ux..u24$GT$4from17hb1b97ff9b3942fbdE
ffffff00002d28b0 T _ZN2ux10conversion71_$LT$impl$u20$core..convert..From$LT$ux..u7$GT$$u20$for$u20$ux..u25$GT$4from17h1f8efc089d09a823E
ffffff00002d28b0 T _ZN2ux10conversion71_$LT$impl$u20$core..convert..From$LT$ux..u7$GT$$u20$for$u20$ux..u26$GT$4from17h5b427ae9a8ea5719E
ffffff00002d28b0 T _ZN2ux10conversion71_$LT$impl$u20$core..convert..From$LT$ux..u7$GT$$u20$for$u20$ux..u27$GT$4from17hfbf99b769d9d9201E
ffffff00002d28b0 T _ZN2ux10conversion71_$LT$impl$u20$core..convert..From$LT$ux..u7$GT$$u20$for$u20$ux..u28$GT$4from17h87fd9e462b32b821E
ffffff00002d28b0 T _ZN2ux10conversion71_$LT$impl$u20$core..convert..From$LT$ux..u7$GT$$u20$for$u20$ux..u29$GT$4from17h04e1f66e604f871eE
ffffff00002d28b0 T _ZN2ux10conversion71_$LT$impl$u20$core..convert..From$LT$ux..u7$GT$$u20$for$u20$ux..u30$GT$4from17heb793a17c085811aE
ffffff00002d28b0 T _ZN2ux10conversion71_$LT$impl$u20$core..convert..From$LT$ux..u7$GT$$u20$for$u20$ux..u31$GT$4from17h5977d7c22d1186e6E
ffffff00002d28c0 T _ZN2ux10conversion71_$LT$impl$u20$core..convert..From$LT$ux..u7$GT$$u20$for$u20$ux..u33$GT$4from17hdfe39465d2035562E
ffffff00002d28c0 T _ZN2ux10conversion71_$LT$impl$u20$core..convert..From$LT$ux..u7$GT$$u20$for$u20$ux..u34$GT$4from17he287418414a9ff85E
ffffff00002d28c0 T _ZN2ux10conversion71_$LT$impl$u20$core..convert..From$LT$ux..u7$GT$$u20$for$u20$ux..u35$GT$4from17h1df410e425bff944E
ffffff00002d28c0 T _ZN2ux10conversion71_$LT$impl$u20$core..convert..From$LT$ux..u7$GT$$u20$for$u20$ux..u36$GT$4from17hd27ab1a47abd14ebE
ffffff00002d28c0 T _ZN2ux10conversion71_$LT$impl$u20$core..convert..From$LT$ux..u7$GT$$u20$for$u20$ux..u37$GT$4from17h32b9b630cfa7e1b6E
ffffff00002d28c0 T _ZN2ux10conversion71_$LT$impl$u20$core..convert..From$LT$ux..u7$GT$$u20$for$u20$ux..u38$GT$4from17hfeb17230b87e49fdE
ffffff00002d28c0 T _ZN2ux10conversion71_$LT$impl$u20$core..convert..From$LT$ux..u7$GT$$u20$for$u20$ux..u39$GT$4from17h182bb5e3fc9e0cfeE
ffffff00002d28c0 T _ZN2ux10conversion71_$LT$impl$u20$core..convert..From$LT$ux..u7$GT$$u20$for$u20$ux..u40$GT$4from17hddd390588982bf98E
ffffff00002d28c0 T _ZN2ux10conversion71_$LT$impl$u20$core..convert..From$LT$ux..u7$GT$$u20$for$u20$ux..u41$GT$4from17h9184f7367695c513E
ffffff00002d28c0 T _ZN2ux10conversion71_$LT$impl$u20$core..convert..From$LT$ux..u7$GT$$u20$for$u20$ux..u42$GT$4from17h3f02e83c52f4bd4dE
ffffff00002d28c0 T _ZN2ux10conversion71_$LT$impl$u20$core..convert..From$LT$ux..u7$GT$$u20$for$u20$ux..u43$GT$4from17h863a40ca3ff6aadbE
ffffff00002d28c0 T _ZN2ux10conversion71_$LT$impl$u20$core..convert..From$LT$ux..u7$GT$$u20$for$u20$ux..u44$GT$4from17hd9e082194abdfab0E
ffffff00002d28c0 T _ZN2ux10conversion71_$LT$impl$u20$core..convert..From$LT$ux..u7$GT$$u20$for$u20$ux..u45$GT$4from17hb66d2c6cca570b59E
ffffff00002d28c0 T _ZN2ux10conversion71_$LT$impl$u20$core..convert..From$LT$ux..u7$GT$$u20$for$u20$ux..u46$GT$4from17h642c9dc73ccfe5a6E
ffffff00002d28c0 T _ZN2ux10conversion71_$LT$impl$u20$core..convert..From$LT$ux..u7$GT$$u20$for$u20$ux..u47$GT$4from17h1703754429573be9E
ffffff00002d28c0 T _ZN2ux10conversion71_$LT$impl$u20$core..convert..From$LT$ux..u7$GT$$u20$for$u20$ux..u48$GT$4from17h0b0c101e4ed65da8E
ffffff00002d28c0 T _ZN2ux10conversion71_$LT$impl$u20$core..convert..From$LT$ux..u7$GT$$u20$for$u20$ux..u49$GT$4from17h879e823397072a36E
ffffff00002d28c0 T _ZN2ux10conversion71_$LT$impl$u20$core..convert..From$LT$ux..u7$GT$$u20$for$u20$ux..u50$GT$4from17h9a27f96385e5dc74E
ffffff00002d28c0 T _ZN2ux10conversion71_$LT$impl$u20$core..convert..From$LT$ux..u7$GT$$u20$for$u20$ux..u51$GT$4from17hde4c5fcf654a2e3bE
ffffff00002d28c0 T _ZN2ux10conversion71_$LT$impl$u20$core..convert..From$LT$ux..u7$GT$$u20$for$u20$ux..u52$GT$4from17h2147b1a4789645bfE
ffffff00002d28c0 T _ZN2ux10conversion71_$LT$impl$u20$core..convert..From$LT$ux..u7$GT$$u20$for$u20$ux..u53$GT$4from17hbc2f1ca9cd89041cE
ffffff00002d28c0 T _ZN2ux10conversion71_$LT$impl$u20$core..convert..From$LT$ux..u7$GT$$u20$for$u20$ux..u54$GT$4from17h97ccea9c89941327E
ffffff00002d28c0 T _ZN2ux10conversion71_$LT$impl$u20$core..convert..From$LT$ux..u7$GT$$u20$for$u20$ux..u55$GT$4from17h82d0f8f06e53d45bE
ffffff00002d28c0 T _ZN2ux10conversion71_$LT$impl$u20$core..convert..From$LT$ux..u7$GT$$u20$for$u20$ux..u56$GT$4from17h8f5637f9e1e5e9afE
ffffff00002d28c0 T _ZN2ux10conversion71_$LT$impl$u20$core..convert..From$LT$ux..u7$GT$$u20$for$u20$ux..u57$GT$4from17h8dffd742a045eef2E
ffffff00002d28c0 T _ZN2ux10conversion71_$LT$impl$u20$core..convert..From$LT$ux..u7$GT$$u20$for$u20$ux..u58$GT$4from17h1ff22b7be7c1220eE
ffffff00002d28c0 T _ZN2ux10conversion71_$LT$impl$u20$core..convert..From$LT$ux..u7$GT$$u20$for$u20$ux..u59$GT$4from17h95c06a86cedc9119E
ffffff00002d28c0 T _ZN2ux10conversion71_$LT$impl$u20$core..convert..From$LT$ux..u7$GT$$u20$for$u20$ux..u60$GT$4from17h9e30b90a71c65f2cE
ffffff00002d28c0 T _ZN2ux10conversion71_$LT$impl$u20$core..convert..From$LT$ux..u7$GT$$u20$for$u20$ux..u61$GT$4from17hddd3ab3e5aca75e7E
ffffff00002d28c0 T _ZN2ux10conversion71_$LT$impl$u20$core..convert..From$LT$ux..u7$GT$$u20$for$u20$ux..u62$GT$4from17h682de925812c2720E
ffffff00002d28c0 T _ZN2ux10conversion71_$LT$impl$u20$core..convert..From$LT$ux..u7$GT$$u20$for$u20$ux..u63$GT$4from17h03ff6972286a6c4eE
ffffff00002d2970 T _ZN2ux10conversion71_$LT$impl$u20$core..convert..From$LT$ux..u9$GT$$u20$for$u20$ux..u10$GT$4from17hb8d359942e378cbbE
ffffff00002d2970 T _ZN2ux10conversion71_$LT$impl$u20$core..convert..From$LT$ux..u9$GT$$u20$for$u20$ux..u11$GT$4from17h319621d34c0c8fe0E
ffffff00002d2970 T _ZN2ux10conversion71_$LT$impl$u20$core..convert..From$LT$ux..u9$GT$$u20$for$u20$ux..u12$GT$4from17hfdfe8086ffc2e6d8E
ffffff00002d2970 T _ZN2ux10conversion71_$LT$impl$u20$core..convert..From$LT$ux..u9$GT$$u20$for$u20$ux..u13$GT$4from17h7126a1ecfce9b2faE
ffffff00002d2970 T _ZN2ux10conversion71_$LT$impl$u20$core..convert..From$LT$ux..u9$GT$$u20$for$u20$ux..u14$GT$4from17h63d5661adc4bb7c5E
ffffff00002d2970 T _ZN2ux10conversion71_$LT$impl$u20$core..convert..From$LT$ux..u9$GT$$u20$for$u20$ux..u15$GT$4from17h8965bcbf68ae79c1E
ffffff00002d28d0 T _ZN2ux10conversion71_$LT$impl$u20$core..convert..From$LT$ux..u9$GT$$u20$for$u20$ux..u17$GT$4from17h5316fd5e75dab2ccE
ffffff00002d28d0 T _ZN2ux10conversion71_$LT$impl$u20$core..convert..From$LT$ux..u9$GT$$u20$for$u20$ux..u18$GT$4from17h4a5ee7b845790acfE
ffffff00002d28d0 T _ZN2ux10conversion71_$LT$impl$u20$core..convert..From$LT$ux..u9$GT$$u20$for$u20$ux..u19$GT$4from17hbdb21a72bbd409b1E
ffffff00002d28d0 T _ZN2ux10conversion71_$LT$impl$u20$core..convert..From$LT$ux..u9$GT$$u20$for$u20$ux..u20$GT$4from17h1ef91fb9bef510d7E
ffffff00002d28d0 T _ZN2ux10conversion71_$LT$impl$u20$core..convert..From$LT$ux..u9$GT$$u20$for$u20$ux..u21$GT$4from17h1d99dd610837a73eE
ffffff00002d28d0 T _ZN2ux10conversion71_$LT$impl$u20$core..convert..From$LT$ux..u9$GT$$u20$for$u20$ux..u22$GT$4from17h772900c713b0dbaaE
ffffff00002d28d0 T _ZN2ux10conversion71_$LT$impl$u20$core..convert..From$LT$ux..u9$GT$$u20$for$u20$ux..u23$GT$4from17hc8021face60c7a00E
ffffff00002d28d0 T _ZN2ux10conversion71_$LT$impl$u20$core..convert..From$LT$ux..u9$GT$$u20$for$u20$ux..u24$GT$4from17h4f09b0d92885dbdeE
ffffff00002d28d0 T _ZN2ux10conversion71_$LT$impl$u20$core..convert..From$LT$ux..u9$GT$$u20$for$u20$ux..u25$GT$4from17hda83a30b37a149f1E
ffffff00002d28d0 T _ZN2ux10conversion71_$LT$impl$u20$core..convert..From$LT$ux..u9$GT$$u20$for$u20$ux..u26$GT$4from17hb945d0f91b707fe5E
ffffff00002d28d0 T _ZN2ux10conversion71_$LT$impl$u20$core..convert..From$LT$ux..u9$GT$$u20$for$u20$ux..u27$GT$4from17h0f00ada10c25c660E
ffffff00002d28d0 T _ZN2ux10conversion71_$LT$impl$u20$core..convert..From$LT$ux..u9$GT$$u20$for$u20$ux..u28$GT$4from17hcb49e42ab252d24eE
ffffff00002d28d0 T _ZN2ux10conversion71_$LT$impl$u20$core..convert..From$LT$ux..u9$GT$$u20$for$u20$ux..u29$GT$4from17h8625a00c8193d331E
ffffff00002d28d0 T _ZN2ux10conversion71_$LT$impl$u20$core..convert..From$LT$ux..u9$GT$$u20$for$u20$ux..u30$GT$4from17hfea1d0b392768b28E
ffffff00002d28d0 T _ZN2ux10conversion71_$LT$impl$u20$core..convert..From$LT$ux..u9$GT$$u20$for$u20$ux..u31$GT$4from17h36f46f7b9df504a4E
ffffff00002d28e0 T _ZN2ux10conversion71_$LT$impl$u20$core..convert..From$LT$ux..u9$GT$$u20$for$u20$ux..u33$GT$4from17haff2c52e054c9b89E
ffffff00002d28e0 T _ZN2ux10conversion71_$LT$impl$u20$core..convert..From$LT$ux..u9$GT$$u20$for$u20$ux..u34$GT$4from17hf69414bae4c9eb59E
ffffff00002d28e0 T _ZN2ux10conversion71_$LT$impl$u20$core..convert..From$LT$ux..u9$GT$$u20$for$u20$ux..u35$GT$4from17h425f3de1dbec2efcE
ffffff00002d28e0 T _ZN2ux10conversion71_$LT$impl$u20$core..convert..From$LT$ux..u9$GT$$u20$for$u20$ux..u36$GT$4from17hfbd79f881471f2a9E
ffffff00002d28e0 T _ZN2ux10conversion71_$LT$impl$u20$core..convert..From$LT$ux..u9$GT$$u20$for$u20$ux..u37$GT$4from17h35d1e3c1074ef5c2E
ffffff00002d28e0 T _ZN2ux10conversion71_$LT$impl$u20$core..convert..From$LT$ux..u9$GT$$u20$for$u20$ux..u38$GT$4from17h366ca6dc9207a86dE
ffffff00002d28e0 T _ZN2ux10conversion71_$LT$impl$u20$core..convert..From$LT$ux..u9$GT$$u20$for$u20$ux..u39$GT$4from17hfd958df254b0911dE
ffffff00002d28e0 T _ZN2ux10conversion71_$LT$impl$u20$core..convert..From$LT$ux..u9$GT$$u20$for$u20$ux..u40$GT$4from17h520e5c0f180d86e9E
ffffff00002d28e0 T _ZN2ux10conversion71_$LT$impl$u20$core..convert..From$LT$ux..u9$GT$$u20$for$u20$ux..u41$GT$4from17hacec50bd62400bbbE
ffffff00002d28e0 T _ZN2ux10conversion71_$LT$impl$u20$core..convert..From$LT$ux..u9$GT$$u20$for$u20$ux..u42$GT$4from17h997eba931b6c72eaE
ffffff00002d28e0 T _ZN2ux10conversion71_$LT$impl$u20$core..convert..From$LT$ux..u9$GT$$u20$for$u20$ux..u43$GT$4from17hd92d6c28bc6c8eb7E
ffffff00002d28e0 T _ZN2ux10conversion71_$LT$impl$u20$core..convert..From$LT$ux..u9$GT$$u20$for$u20$ux..u44$GT$4from17h59d593caf8d0e8c3E
ffffff00002d28e0 T _ZN2ux10conversion71_$LT$impl$u20$core..convert..From$LT$ux..u9$GT$$u20$for$u20$ux..u45$GT$4from17he47f9efeee5668f9E
ffffff00002d28e0 T _ZN2ux10conversion71_$LT$impl$u20$core..convert..From$LT$ux..u9$GT$$u20$for$u20$ux..u46$GT$4from17h5e81650e4cf6655eE
ffffff00002d28e0 T _ZN2ux10conversion71_$LT$impl$u20$core..convert..From$LT$ux..u9$GT$$u20$for$u20$ux..u47$GT$4from17h9a6a5016c9c88c4bE
ffffff00002d28e0 T _ZN2ux10conversion71_$LT$impl$u20$core..convert..From$LT$ux..u9$GT$$u20$for$u20$ux..u48$GT$4from17h89fc1cd3a088cdfeE
ffffff00002d28e0 T _ZN2ux10conversion71_$LT$impl$u20$core..convert..From$LT$ux..u9$GT$$u20$for$u20$ux..u49$GT$4from17hccf5ed0a99dcf9dbE
ffffff00002d28e0 T _ZN2ux10conversion71_$LT$impl$u20$core..convert..From$LT$ux..u9$GT$$u20$for$u20$ux..u50$GT$4from17hadb184ca85de90f9E
ffffff00002d28e0 T _ZN2ux10conversion71_$LT$impl$u20$core..convert..From$LT$ux..u9$GT$$u20$for$u20$ux..u51$GT$4from17ha678fe1679c89b61E
ffffff00002d28e0 T _ZN2ux10conversion71_$LT$impl$u20$core..convert..From$LT$ux..u9$GT$$u20$for$u20$ux..u52$GT$4from17h75b4f8b15e16a2e2E
ffffff00002d28e0 T _ZN2ux10conversion71_$LT$impl$u20$core..convert..From$LT$ux..u9$GT$$u20$for$u20$ux..u53$GT$4from17h5d8db69c7e2667abE
ffffff00002d28e0 T _ZN2ux10conversion71_$LT$impl$u20$core..convert..From$LT$ux..u9$GT$$u20$for$u20$ux..u54$GT$4from17hccffc9ae9fcec45aE
ffffff00002d28e0 T _ZN2ux10conversion71_$LT$impl$u20$core..convert..From$LT$ux..u9$GT$$u20$for$u20$ux..u55$GT$4from17hcf84a70a0c5ce72aE
ffffff00002d28e0 T _ZN2ux10conversion71_$LT$impl$u20$core..convert..From$LT$ux..u9$GT$$u20$for$u20$ux..u56$GT$4from17h636dee64e675f0f9E
ffffff00002d28e0 T _ZN2ux10conversion71_$LT$impl$u20$core..convert..From$LT$ux..u9$GT$$u20$for$u20$ux..u57$GT$4from17hd76630b4bdbe5a81E
ffffff00002d28e0 T _ZN2ux10conversion71_$LT$impl$u20$core..convert..From$LT$ux..u9$GT$$u20$for$u20$ux..u58$GT$4from17h506928f8177e4cd0E
ffffff00002d28e0 T _ZN2ux10conversion71_$LT$impl$u20$core..convert..From$LT$ux..u9$GT$$u20$for$u20$ux..u59$GT$4from17h01c900523f7ff197E
ffffff00002d28e0 T _ZN2ux10conversion71_$LT$impl$u20$core..convert..From$LT$ux..u9$GT$$u20$for$u20$ux..u60$GT$4from17hbea869818db0d21fE
ffffff00002d28e0 T _ZN2ux10conversion71_$LT$impl$u20$core..convert..From$LT$ux..u9$GT$$u20$for$u20$ux..u61$GT$4from17he5d5213f84889fe6E
ffffff00002d28e0 T _ZN2ux10conversion71_$LT$impl$u20$core..convert..From$LT$ux..u9$GT$$u20$for$u20$ux..u62$GT$4from17hed5758be17c2e3fcE
ffffff00002d28e0 T _ZN2ux10conversion71_$LT$impl$u20$core..convert..From$LT$ux..u9$GT$$u20$for$u20$ux..u63$GT$4from17h850145ee11b7cea7E
ffffff00002d2970 T _ZN2ux10conversion72_$LT$impl$u20$core..convert..From$LT$ux..i10$GT$$u20$for$u20$ux..i11$GT$4from17h30382899f926f6aeE
ffffff00002d2970 T _ZN2ux10conversion72_$LT$impl$u20$core..convert..From$LT$ux..i10$GT$$u20$for$u20$ux..i12$GT$4from17haa27312ddd861ea0E
ffffff00002d2970 T _ZN2ux10conversion72_$LT$impl$u20$core..convert..From$LT$ux..i10$GT$$u20$for$u20$ux..i13$GT$4from17h3e25a62fd35419baE
ffffff00002d2970 T _ZN2ux10conversion72_$LT$impl$u20$core..convert..From$LT$ux..i10$GT$$u20$for$u20$ux..i14$GT$4from17h510ce1717d34077cE
ffffff00002d2970 T _ZN2ux10conversion72_$LT$impl$u20$core..convert..From$LT$ux..i10$GT$$u20$for$u20$ux..i15$GT$4from17h4a24b08404582732E
ffffff00002d2930 T _ZN2ux10conversion72_$LT$impl$u20$core..convert..From$LT$ux..i10$GT$$u20$for$u20$ux..i17$GT$4from17h8d4c5d9406752d29E
ffffff00002d2930 T _ZN2ux10conversion72_$LT$impl$u20$core..convert..From$LT$ux..i10$GT$$u20$for$u20$ux..i18$GT$4from17hfbcef8daec294344E
ffffff00002d2930 T _ZN2ux10conversion72_$LT$impl$u20$core..convert..From$LT$ux..i10$GT$$u20$for$u20$ux..i19$GT$4from17h0b5073c676777410E
ffffff00002d2930 T _ZN2ux10conversion72_$LT$impl$u20$core..convert..From$LT$ux..i10$GT$$u20$for$u20$ux..i20$GT$4from17hdf1c560df85ab6e4E
ffffff00002d2930 T _ZN2ux10conversion72_$LT$impl$u20$core..convert..From$LT$ux..i10$GT$$u20$for$u20$ux..i21$GT$4from17h5a09bedeaf45dcaeE
ffffff00002d2930 T _ZN2ux10conversion72_$LT$impl$u20$core..convert..From$LT$ux..i10$GT$$u20$for$u20$ux..i22$GT$4from17h0239976bd2cdd7a2E
ffffff00002d2930 T _ZN2ux10conversion72_$LT$impl$u20$core..convert..From$LT$ux..i10$GT$$u20$for$u20$ux..i23$GT$4from17hc92726e859b34fabE
ffffff00002d2930 T _ZN2ux10conversion72_$LT$impl$u20$core..convert..From$LT$ux..i10$GT$$u20$for$u20$ux..i24$GT$4from17h3ffae3add2f583a2E
ffffff00002d2930 T _ZN2ux10conversion72_$LT$impl$u20$core..convert..From$LT$ux..i10$GT$$u20$for$u20$ux..i25$GT$4from17h1aab6be17028014cE
ffffff00002d2930 T _ZN2ux10conversion72_$LT$impl$u20$core..convert..From$LT$ux..i10$GT$$u20$for$u20$ux..i26$GT$4from17hdcb4228a2801db57E
ffffff00002d2930 T _ZN2ux10conversion72_$LT$impl$u20$core..convert..From$LT$ux..i10$GT$$u20$for$u20$ux..i27$GT$4from17hd72e60b9a4e7c604E
ffffff00002d2930 T _ZN2ux10conversion72_$LT$impl$u20$core..convert..From$LT$ux..i10$GT$$u20$for$u20$ux..i28$GT$4from17hf3fe47bf6930db88E
ffffff00002d2930 T _ZN2ux10conversion72_$LT$impl$u20$core..convert..From$LT$ux..i10$GT$$u20$for$u20$ux..i29$GT$4from17h15a3f1294cb992feE
ffffff00002d2930 T _ZN2ux10conversion72_$LT$impl$u20$core..convert..From$LT$ux..i10$GT$$u20$for$u20$ux..i30$GT$4from17he044b5254af515cdE
ffffff00002d2930 T _ZN2ux10conversion72_$LT$impl$u20$core..convert..From$LT$ux..i10$GT$$u20$for$u20$ux..i31$GT$4from17h012834279bf7aa6eE
ffffff00002d2940 T _ZN2ux10conversion72_$LT$impl$u20$core..convert..From$LT$ux..i10$GT$$u20$for$u20$ux..i33$GT$4from17h7f14959cacf9967cE
ffffff00002d2940 T _ZN2ux10conversion72_$LT$impl$u20$core..convert..From$LT$ux..i10$GT$$u20$for$u20$ux..i34$GT$4from17h5b22ea826ab4938bE
ffffff00002d2940 T _ZN2ux10conversion72_$LT$impl$u20$core..convert..From$LT$ux..i10$GT$$u20$for$u20$ux..i35$GT$4from17h2927be5864873cd2E
ffffff00002d2940 T _ZN2ux10conversion72_$LT$impl$u20$core..convert..From$LT$ux..i10$GT$$u20$for$u20$ux..i36$GT$4from17h534fa7ed507aa243E
ffffff00002d2940 T _ZN2ux10conversion72_$LT$impl$u20$core..convert..From$LT$ux..i10$GT$$u20$for$u20$ux..i37$GT$4from17hadc10140e5b5ccc8E
ffffff00002d2940 T _ZN2ux10conversion72_$LT$impl$u20$core..convert..From$LT$ux..i10$GT$$u20$for$u20$ux..i38$GT$4from17h8d744f27eb89fe12E
ffffff00002d2940 T _ZN2ux10conversion72_$LT$impl$u20$core..convert..From$LT$ux..i10$GT$$u20$for$u20$ux..i39$GT$4from17h62b9069070534681E
ffffff00002d2940 T _ZN2ux10conversion72_$LT$impl$u20$core..convert..From$LT$ux..i10$GT$$u20$for$u20$ux..i40$GT$4from17h33a5a62886031f67E
ffffff00002d2940 T _ZN2ux10conversion72_$LT$impl$u20$core..convert..From$LT$ux..i10$GT$$u20$for$u20$ux..i41$GT$4from17h7d970d3f5dee10a6E
ffffff00002d2940 T _ZN2ux10conversion72_$LT$impl$u20$core..convert..From$LT$ux..i10$GT$$u20$for$u20$ux..i42$GT$4from17hbd4442e1c1f88847E
ffffff00002d2940 T _ZN2ux10conversion72_$LT$impl$u20$core..convert..From$LT$ux..i10$GT$$u20$for$u20$ux..i43$GT$4from17hc42b3c150648b0eaE
ffffff00002d2940 T _ZN2ux10conversion72_$LT$impl$u20$core..convert..From$LT$ux..i10$GT$$u20$for$u20$ux..i44$GT$4from17hd6af7edd849600daE
ffffff00002d2940 T _ZN2ux10conversion72_$LT$impl$u20$core..convert..From$LT$ux..i10$GT$$u20$for$u20$ux..i45$GT$4from17hc27b6216499ea673E
ffffff00002d2940 T _ZN2ux10conversion72_$LT$impl$u20$core..convert..From$LT$ux..i10$GT$$u20$for$u20$ux..i46$GT$4from17hd0e22fd085c1fef3E
ffffff00002d2940 T _ZN2ux10conversion72_$LT$impl$u20$core..convert..From$LT$ux..i10$GT$$u20$for$u20$ux..i47$GT$4from17hb63590dcda535894E
ffffff00002d2940 T _ZN2ux10conversion72_$LT$impl$u20$core..convert..From$LT$ux..i10$GT$$u20$for$u20$ux..i48$GT$4from17h949141d8545ab7c3E
ffffff00002d2940 T _ZN2ux10conversion72_$LT$impl$u20$core..convert..From$LT$ux..i10$GT$$u20$for$u20$ux..i49$GT$4from17hb6fb933ba4894997E
ffffff00002d2940 T _ZN2ux10conversion72_$LT$impl$u20$core..convert..From$LT$ux..i10$GT$$u20$for$u20$ux..i50$GT$4from17hab3e2d1ef42c9ffaE
ffffff00002d2940 T _ZN2ux10conversion72_$LT$impl$u20$core..convert..From$LT$ux..i10$GT$$u20$for$u20$ux..i51$GT$4from17h9348df16206935a2E
ffffff00002d2940 T _ZN2ux10conversion72_$LT$impl$u20$core..convert..From$LT$ux..i10$GT$$u20$for$u20$ux..i52$GT$4from17h7f6a310a4067f4c6E
ffffff00002d2940 T _ZN2ux10conversion72_$LT$impl$u20$core..convert..From$LT$ux..i10$GT$$u20$for$u20$ux..i53$GT$4from17hdbddfa4c0f07375aE
ffffff00002d2940 T _ZN2ux10conversion72_$LT$impl$u20$core..convert..From$LT$ux..i10$GT$$u20$for$u20$ux..i54$GT$4from17h838a6046e758a30dE
ffffff00002d2940 T _ZN2ux10conversion72_$LT$impl$u20$core..convert..From$LT$ux..i10$GT$$u20$for$u20$ux..i55$GT$4from17h3de4af3aaf6501a9E
ffffff00002d2940 T _ZN2ux10conversion72_$LT$impl$u20$core..convert..From$LT$ux..i10$GT$$u20$for$u20$ux..i56$GT$4from17h31d2c5a4a79c1c3cE
ffffff00002d2940 T _ZN2ux10conversion72_$LT$impl$u20$core..convert..From$LT$ux..i10$GT$$u20$for$u20$ux..i57$GT$4from17hf3d2a8ca0267591aE
ffffff00002d2940 T _ZN2ux10conversion72_$LT$impl$u20$core..convert..From$LT$ux..i10$GT$$u20$for$u20$ux..i58$GT$4from17h43654779ceaa3ee5E
ffffff00002d2940 T _ZN2ux10conversion72_$LT$impl$u20$core..convert..From$LT$ux..i10$GT$$u20$for$u20$ux..i59$GT$4from17h8c4699d106ae44feE
ffffff00002d2940 T _ZN2ux10conversion72_$LT$impl$u20$core..convert..From$LT$ux..i10$GT$$u20$for$u20$ux..i60$GT$4from17h5f4ad8d7924533a5E
ffffff00002d2940 T _ZN2ux10conversion72_$LT$impl$u20$core..convert..From$LT$ux..i10$GT$$u20$for$u20$ux..i61$GT$4from17hf7868080179538f4E
ffffff00002d2940 T _ZN2ux10conversion72_$LT$impl$u20$core..convert..From$LT$ux..i10$GT$$u20$for$u20$ux..i62$GT$4from17h77b5970c53d27c62E
ffffff00002d2940 T _ZN2ux10conversion72_$LT$impl$u20$core..convert..From$LT$ux..i10$GT$$u20$for$u20$ux..i63$GT$4from17h3a3f3e7cb069212aE
ffffff00002d2970 T _ZN2ux10conversion72_$LT$impl$u20$core..convert..From$LT$ux..i11$GT$$u20$for$u20$ux..i12$GT$4from17ha5e8a2e40bed48b4E
ffffff00002d2970 T _ZN2ux10conversion72_$LT$impl$u20$core..convert..From$LT$ux..i11$GT$$u20$for$u20$ux..i13$GT$4from17h1a51f1eb79494741E
ffffff00002d2970 T _ZN2ux10conversion72_$LT$impl$u20$core..convert..From$LT$ux..i11$GT$$u20$for$u20$ux..i14$GT$4from17h57f8aeaf223373a8E
ffffff00002d2970 T _ZN2ux10conversion72_$LT$impl$u20$core..convert..From$LT$ux..i11$GT$$u20$for$u20$ux..i15$GT$4from17h24647b183351d42bE
ffffff00002d2930 T _ZN2ux10conversion72_$LT$impl$u20$core..convert..From$LT$ux..i11$GT$$u20$for$u20$ux..i17$GT$4from17h1e5e338c7e868750E
ffffff00002d2930 T _ZN2ux10conversion72_$LT$impl$u20$core..convert..From$LT$ux..i11$GT$$u20$for$u20$ux..i18$GT$4from17he43236c8761e64c1E
ffffff00002d2930 T _ZN2ux10conversion72_$LT$impl$u20$core..convert..From$LT$ux..i11$GT$$u20$for$u20$ux..i19$GT$4from17hdecb3b563b60baafE
ffffff00002d2930 T _ZN2ux10conversion72_$LT$impl$u20$core..convert..From$LT$ux..i11$GT$$u20$for$u20$ux..i20$GT$4from17haaa1ed50c3ad36d7E
ffffff00002d2930 T _ZN2ux10conversion72_$LT$impl$u20$core..convert..From$LT$ux..i11$GT$$u20$for$u20$ux..i21$GT$4from17he3093c681d577a00E
ffffff00002d2930 T _ZN2ux10conversion72_$LT$impl$u20$core..convert..From$LT$ux..i11$GT$$u20$for$u20$ux..i22$GT$4from17h5815dad148164bdaE
ffffff00002d2930 T _ZN2ux10conversion72_$LT$impl$u20$core..convert..From$LT$ux..i11$GT$$u20$for$u20$ux..i23$GT$4from17he8534c151a5d5e11E
ffffff00002d2930 T _ZN2ux10conversion72_$LT$impl$u20$core..convert..From$LT$ux..i11$GT$$u20$for$u20$ux..i24$GT$4from17h1785d32d43982f8dE
ffffff00002d2930 T _ZN2ux10conversion72_$LT$impl$u20$core..convert..From$LT$ux..i11$GT$$u20$for$u20$ux..i25$GT$4from17h2ebc43a072e65cc4E
ffffff00002d2930 T _ZN2ux10conversion72_$LT$impl$u20$core..convert..From$LT$ux..i11$GT$$u20$for$u20$ux..i26$GT$4from17h62983db07fd16a78E
ffffff00002d2930 T _ZN2ux10conversion72_$LT$impl$u20$core..convert..From$LT$ux..i11$GT$$u20$for$u20$ux..i27$GT$4from17hea271750966cc4fbE
ffffff00002d2930 T _ZN2ux10conversion72_$LT$impl$u20$core..convert..From$LT$ux..i11$GT$$u20$for$u20$ux..i28$GT$4from17hbe656141c83fe0abE
ffffff00002d2930 T _ZN2ux10conversion72_$LT$impl$u20$core..convert..From$LT$ux..i11$GT$$u20$for$u20$ux..i29$GT$4from17h0692ec38cbaf2f29E
ffffff00002d2930 T _ZN2ux10conversion72_$LT$impl$u20$core..convert..From$LT$ux..i11$GT$$u20$for$u20$ux..i30$GT$4from17hd72828d6869dd6f3E
ffffff00002d2930 T _ZN2ux10conversion72_$LT$impl$u20$core..convert..From$LT$ux..i11$GT$$u20$for$u20$ux..i31$GT$4from17h52bb16a6ebf242deE
ffffff00002d2940 T _ZN2ux10conversion72_$LT$impl$u20$core..convert..From$LT$ux..i11$GT$$u20$for$u20$ux..i33$GT$4from17h032c5bca06a98eb1E
ffffff00002d2940 T _ZN2ux10conversion72_$LT$impl$u20$core..convert..From$LT$ux..i11$GT$$u20$for$u20$ux..i34$GT$4from17h8d00ca43190d4571E
ffffff00002d2940 T _ZN2ux10conversion72_$LT$impl$u20$core..convert..From$LT$ux..i11$GT$$u20$for$u20$ux..i35$GT$4from17he9e711e6cbf3b6f2E
ffffff00002d2940 T _ZN2ux10conversion72_$LT$impl$u20$core..convert..From$LT$ux..i11$GT$$u20$for$u20$ux..i36$GT$4from17h7330ff24c24c2af6E
ffffff00002d2940 T _ZN2ux10conversion72_$LT$impl$u20$core..convert..From$LT$ux..i11$GT$$u20$for$u20$ux..i37$GT$4from17h6ddbff5cf3debf65E
ffffff00002d2940 T _ZN2ux10conversion72_$LT$impl$u20$core..convert..From$LT$ux..i11$GT$$u20$for$u20$ux..i38$GT$4from17h1c9dc276dc92bf08E
ffffff00002d2940 T _ZN2ux10conversion72_$LT$impl$u20$core..convert..From$LT$ux..i11$GT$$u20$for$u20$ux..i39$GT$4from17heeb7aa698a5539f5E
ffffff00002d2940 T _ZN2ux10conversion72_$LT$impl$u20$core..convert..From$LT$ux..i11$GT$$u20$for$u20$ux..i40$GT$4from17h43f46ff778073a96E
ffffff00002d2940 T _ZN2ux10conversion72_$LT$impl$u20$core..convert..From$LT$ux..i11$GT$$u20$for$u20$ux..i41$GT$4from17h1fbe75b2140e41f1E
ffffff00002d2940 T _ZN2ux10conversion72_$LT$impl$u20$core..convert..From$LT$ux..i11$GT$$u20$for$u20$ux..i42$GT$4from17hfaa158db5e44573cE
ffffff00002d2940 T _ZN2ux10conversion72_$LT$impl$u20$core..convert..From$LT$ux..i11$GT$$u20$for$u20$ux..i43$GT$4from17h63ff2f20f36b3e02E
ffffff00002d2940 T _ZN2ux10conversion72_$LT$impl$u20$core..convert..From$LT$ux..i11$GT$$u20$for$u20$ux..i44$GT$4from17he9b7e6a4c8e25357E
ffffff00002d2940 T _ZN2ux10conversion72_$LT$impl$u20$core..convert..From$LT$ux..i11$GT$$u20$for$u20$ux..i45$GT$4from17h2a6b5d7d4f59dbbbE
ffffff00002d2940 T _ZN2ux10conversion72_$LT$impl$u20$core..convert..From$LT$ux..i11$GT$$u20$for$u20$ux..i46$GT$4from17hfd9ad58904aba5b4E
ffffff00002d2940 T _ZN2ux10conversion72_$LT$impl$u20$core..convert..From$LT$ux..i11$GT$$u20$for$u20$ux..i47$GT$4from17h863ec25abf087527E
ffffff00002d2940 T _ZN2ux10conversion72_$LT$impl$u20$core..convert..From$LT$ux..i11$GT$$u20$for$u20$ux..i48$GT$4from17h54c1ca88126658faE
ffffff00002d2940 T _ZN2ux10conversion72_$LT$impl$u20$core..convert..From$LT$ux..i11$GT$$u20$for$u20$ux..i49$GT$4from17h69974dba2eb29619E
ffffff00002d2940 T _ZN2ux10conversion72_$LT$impl$u20$core..convert..From$LT$ux..i11$GT$$u20$for$u20$ux..i50$GT$4from17h0ad0f73a70d26a1cE
ffffff00002d2940 T _ZN2ux10conversion72_$LT$impl$u20$core..convert..From$LT$ux..i11$GT$$u20$for$u20$ux..i51$GT$4from17hc9761985240e8d72E
ffffff00002d2940 T _ZN2ux10conversion72_$LT$impl$u20$core..convert..From$LT$ux..i11$GT$$u20$for$u20$ux..i52$GT$4from17h0d1c0440bc6176c3E
ffffff00002d2940 T _ZN2ux10conversion72_$LT$impl$u20$core..convert..From$LT$ux..i11$GT$$u20$for$u20$ux..i53$GT$4from17h9f49583ccbd3d862E
ffffff00002d2940 T _ZN2ux10conversion72_$LT$impl$u20$core..convert..From$LT$ux..i11$GT$$u20$for$u20$ux..i54$GT$4from17h492d275a6991394cE
ffffff00002d2940 T _ZN2ux10conversion72_$LT$impl$u20$core..convert..From$LT$ux..i11$GT$$u20$for$u20$ux..i55$GT$4from17h1639cfe5093b76c9E
ffffff00002d2940 T _ZN2ux10conversion72_$LT$impl$u20$core..convert..From$LT$ux..i11$GT$$u20$for$u20$ux..i56$GT$4from17h18d92fa26122190aE
ffffff00002d2940 T _ZN2ux10conversion72_$LT$impl$u20$core..convert..From$LT$ux..i11$GT$$u20$for$u20$ux..i57$GT$4from17h0f21e7a46e37b5e2E
ffffff00002d2940 T _ZN2ux10conversion72_$LT$impl$u20$core..convert..From$LT$ux..i11$GT$$u20$for$u20$ux..i58$GT$4from17hd71bafddd315f63dE
ffffff00002d2940 T _ZN2ux10conversion72_$LT$impl$u20$core..convert..From$LT$ux..i11$GT$$u20$for$u20$ux..i59$GT$4from17hb9f4830eafe13728E
ffffff00002d2940 T _ZN2ux10conversion72_$LT$impl$u20$core..convert..From$LT$ux..i11$GT$$u20$for$u20$ux..i60$GT$4from17h89ce59f0508fec37E
ffffff00002d2940 T _ZN2ux10conversion72_$LT$impl$u20$core..convert..From$LT$ux..i11$GT$$u20$for$u20$ux..i61$GT$4from17hb210df87dc2bbf34E
ffffff00002d2940 T _ZN2ux10conversion72_$LT$impl$u20$core..convert..From$LT$ux..i11$GT$$u20$for$u20$ux..i62$GT$4from17hff3090be9076a76dE
ffffff00002d2940 T _ZN2ux10conversion72_$LT$impl$u20$core..convert..From$LT$ux..i11$GT$$u20$for$u20$ux..i63$GT$4from17h2a32394a7b44dc33E
ffffff00002d2970 T _ZN2ux10conversion72_$LT$impl$u20$core..convert..From$LT$ux..i12$GT$$u20$for$u20$ux..i13$GT$4from17h20e44e90840a110aE
ffffff00002d2970 T _ZN2ux10conversion72_$LT$impl$u20$core..convert..From$LT$ux..i12$GT$$u20$for$u20$ux..i14$GT$4from17h20e21ad959115e34E
ffffff00002d2970 T _ZN2ux10conversion72_$LT$impl$u20$core..convert..From$LT$ux..i12$GT$$u20$for$u20$ux..i15$GT$4from17hc5c6616561590740E
ffffff00002d2930 T _ZN2ux10conversion72_$LT$impl$u20$core..convert..From$LT$ux..i12$GT$$u20$for$u20$ux..i17$GT$4from17h960563b34c39137eE
ffffff00002d2930 T _ZN2ux10conversion72_$LT$impl$u20$core..convert..From$LT$ux..i12$GT$$u20$for$u20$ux..i18$GT$4from17h45ac7739d739a1cdE
ffffff00002d2930 T _ZN2ux10conversion72_$LT$impl$u20$core..convert..From$LT$ux..i12$GT$$u20$for$u20$ux..i19$GT$4from17h9f8dcb92f03607d5E
ffffff00002d2930 T _ZN2ux10conversion72_$LT$impl$u20$core..convert..From$LT$ux..i12$GT$$u20$for$u20$ux..i20$GT$4from17h0ec820e6a24248feE
ffffff00002d2930 T _ZN2ux10conversion72_$LT$impl$u20$core..convert..From$LT$ux..i12$GT$$u20$for$u20$ux..i21$GT$4from17h797be43ea7aa80e2E
ffffff00002d2930 T _ZN2ux10conversion72_$LT$impl$u20$core..convert..From$LT$ux..i12$GT$$u20$for$u20$ux..i22$GT$4from17hba7d41ea4294bf4bE
ffffff00002d2930 T _ZN2ux10conversion72_$LT$impl$u20$core..convert..From$LT$ux..i12$GT$$u20$for$u20$ux..i23$GT$4from17h9187d22ac1501f0fE
ffffff00002d2930 T _ZN2ux10conversion72_$LT$impl$u20$core..convert..From$LT$ux..i12$GT$$u20$for$u20$ux..i24$GT$4from17hd8dec896557aa235E
ffffff00002d2930 T _ZN2ux10conversion72_$LT$impl$u20$core..convert..From$LT$ux..i12$GT$$u20$for$u20$ux..i25$GT$4from17h2b6b32bee59c29edE
ffffff00002d2930 T _ZN2ux10conversion72_$LT$impl$u20$core..convert..From$LT$ux..i12$GT$$u20$for$u20$ux..i26$GT$4from17h62b1109584b8d3ecE
ffffff00002d2930 T _ZN2ux10conversion72_$LT$impl$u20$core..convert..From$LT$ux..i12$GT$$u20$for$u20$ux..i27$GT$4from17had240d5fbcf176c3E
ffffff00002d2930 T _ZN2ux10conversion72_$LT$impl$u20$core..convert..From$LT$ux..i12$GT$$u20$for$u20$ux..i28$GT$4from17h6cbf5d93c95c7314E
ffffff00002d2930 T _ZN2ux10conversion72_$LT$impl$u20$core..convert..From$LT$ux..i12$GT$$u20$for$u20$ux..i29$GT$4from17h5737a13e78a0cd0eE
ffffff00002d2930 T _ZN2ux10conversion72_$LT$impl$u20$core..convert..From$LT$ux..i12$GT$$u20$for$u20$ux..i30$GT$4from17h9321cd215b09c076E
ffffff00002d2930 T _ZN2ux10conversion72_$LT$impl$u20$core..convert..From$LT$ux..i12$GT$$u20$for$u20$ux..i31$GT$4from17h0471b00e8b42a36dE
ffffff00002d2940 T _ZN2ux10conversion72_$LT$impl$u20$core..convert..From$LT$ux..i12$GT$$u20$for$u20$ux..i33$GT$4from17h35e1b68bf237e0e9E
ffffff00002d2940 T _ZN2ux10conversion72_$LT$impl$u20$core..convert..From$LT$ux..i12$GT$$u20$for$u20$ux..i34$GT$4from17h7ee6233dd7931bf9E
ffffff00002d2940 T _ZN2ux10conversion72_$LT$impl$u20$core..convert..From$LT$ux..i12$GT$$u20$for$u20$ux..i35$GT$4from17hb65e8155ff02d905E
ffffff00002d2940 T _ZN2ux10conversion72_$LT$impl$u20$core..convert..From$LT$ux..i12$GT$$u20$for$u20$ux..i36$GT$4from17he67ce28850011a17E
ffffff00002d2940 T _ZN2ux10conversion72_$LT$impl$u20$core..convert..From$LT$ux..i12$GT$$u20$for$u20$ux..i37$GT$4from17h5716709baf31c428E
ffffff00002d2940 T _ZN2ux10conversion72_$LT$impl$u20$core..convert..From$LT$ux..i12$GT$$u20$for$u20$ux..i38$GT$4from17hdaab76437366fb00E
ffffff00002d2940 T _ZN2ux10conversion72_$LT$impl$u20$core..convert..From$LT$ux..i12$GT$$u20$for$u20$ux..i39$GT$4from17hffbe1fda1ed8bd61E
ffffff00002d2940 T _ZN2ux10conversion72_$LT$impl$u20$core..convert..From$LT$ux..i12$GT$$u20$for$u20$ux..i40$GT$4from17h862d28af301b2ce9E
ffffff00002d2940 T _ZN2ux10conversion72_$LT$impl$u20$core..convert..From$LT$ux..i12$GT$$u20$for$u20$ux..i41$GT$4from17h519af49e7366918dE
ffffff00002d2940 T _ZN2ux10conversion72_$LT$impl$u20$core..convert..From$LT$ux..i12$GT$$u20$for$u20$ux..i42$GT$4from17h6ce4b899b685de0aE
ffffff00002d2940 T _ZN2ux10conversion72_$LT$impl$u20$core..convert..From$LT$ux..i12$GT$$u20$for$u20$ux..i43$GT$4from17h0bd8e14b632d6ab7E
ffffff00002d2940 T _ZN2ux10conversion72_$LT$impl$u20$core..convert..From$LT$ux..i12$GT$$u20$for$u20$ux..i44$GT$4from17h6a26b7eab448de4dE
ffffff00002d2940 T _ZN2ux10conversion72_$LT$impl$u20$core..convert..From$LT$ux..i12$GT$$u20$for$u20$ux..i45$GT$4from17hef65fd999ba65e70E
ffffff00002d2940 T _ZN2ux10conversion72_$LT$impl$u20$core..convert..From$LT$ux..i12$GT$$u20$for$u20$ux..i46$GT$4from17h73d55d2407792e5bE
ffffff00002d2940 T _ZN2ux10conversion72_$LT$impl$u20$core..convert..From$LT$ux..i12$GT$$u20$for$u20$ux..i47$GT$4from17hf89abafe0440b43dE
ffffff00002d2940 T _ZN2ux10conversion72_$LT$impl$u20$core..convert..From$LT$ux..i12$GT$$u20$for$u20$ux..i48$GT$4from17hc914ac96f6ea261dE
ffffff00002d2940 T _ZN2ux10conversion72_$LT$impl$u20$core..convert..From$LT$ux..i12$GT$$u20$for$u20$ux..i49$GT$4from17h0f279ad8cf27c088E
ffffff00002d2940 T _ZN2ux10conversion72_$LT$impl$u20$core..convert..From$LT$ux..i12$GT$$u20$for$u20$ux..i50$GT$4from17h26d15056930c9e5dE
ffffff00002d2940 T _ZN2ux10conversion72_$LT$impl$u20$core..convert..From$LT$ux..i12$GT$$u20$for$u20$ux..i51$GT$4from17h7e11cfffe7164099E
ffffff00002d2940 T _ZN2ux10conversion72_$LT$impl$u20$core..convert..From$LT$ux..i12$GT$$u20$for$u20$ux..i52$GT$4from17h7b28f5164419209aE
ffffff00002d2940 T _ZN2ux10conversion72_$LT$impl$u20$core..convert..From$LT$ux..i12$GT$$u20$for$u20$ux..i53$GT$4from17hb74a81e2f3b0b3faE
ffffff00002d2940 T _ZN2ux10conversion72_$LT$impl$u20$core..convert..From$LT$ux..i12$GT$$u20$for$u20$ux..i54$GT$4from17hc112d7f5039e5702E
ffffff00002d2940 T _ZN2ux10conversion72_$LT$impl$u20$core..convert..From$LT$ux..i12$GT$$u20$for$u20$ux..i55$GT$4from17h37c648a9c3cfabdfE
ffffff00002d2940 T _ZN2ux10conversion72_$LT$impl$u20$core..convert..From$LT$ux..i12$GT$$u20$for$u20$ux..i56$GT$4from17ha37c7e8f6759366aE
ffffff00002d2940 T _ZN2ux10conversion72_$LT$impl$u20$core..convert..From$LT$ux..i12$GT$$u20$for$u20$ux..i57$GT$4from17h095302763dc2fd5eE
ffffff00002d2940 T _ZN2ux10conversion72_$LT$impl$u20$core..convert..From$LT$ux..i12$GT$$u20$for$u20$ux..i58$GT$4from17hbeb9885874d9e509E
ffffff00002d2940 T _ZN2ux10conversion72_$LT$impl$u20$core..convert..From$LT$ux..i12$GT$$u20$for$u20$ux..i59$GT$4from17h6716fa0da504a83cE
ffffff00002d2940 T _ZN2ux10conversion72_$LT$impl$u20$core..convert..From$LT$ux..i12$GT$$u20$for$u20$ux..i60$GT$4from17hd2e057325da5c401E
ffffff00002d2940 T _ZN2ux10conversion72_$LT$impl$u20$core..convert..From$LT$ux..i12$GT$$u20$for$u20$ux..i61$GT$4from17h2ac71e5d6ba16002E
ffffff00002d2940 T _ZN2ux10conversion72_$LT$impl$u20$core..convert..From$LT$ux..i12$GT$$u20$for$u20$ux..i62$GT$4from17h76f3912710216635E
ffffff00002d2940 T _ZN2ux10conversion72_$LT$impl$u20$core..convert..From$LT$ux..i12$GT$$u20$for$u20$ux..i63$GT$4from17h83e8e40d2cc2c96cE
ffffff00002d2970 T _ZN2ux10conversion72_$LT$impl$u20$core..convert..From$LT$ux..i13$GT$$u20$for$u20$ux..i14$GT$4from17h5d47be60c822a4efE
ffffff00002d2970 T _ZN2ux10conversion72_$LT$impl$u20$core..convert..From$LT$ux..i13$GT$$u20$for$u20$ux..i15$GT$4from17hdd68c92de8bcd2dbE
ffffff00002d2930 T _ZN2ux10conversion72_$LT$impl$u20$core..convert..From$LT$ux..i13$GT$$u20$for$u20$ux..i17$GT$4from17h91aa07f35c7f0840E
ffffff00002d2930 T _ZN2ux10conversion72_$LT$impl$u20$core..convert..From$LT$ux..i13$GT$$u20$for$u20$ux..i18$GT$4from17h15ecc3fa9e469f54E
ffffff00002d2930 T _ZN2ux10conversion72_$LT$impl$u20$core..convert..From$LT$ux..i13$GT$$u20$for$u20$ux..i19$GT$4from17h3732aceb36fa5d79E
ffffff00002d2930 T _ZN2ux10conversion72_$LT$impl$u20$core..convert..From$LT$ux..i13$GT$$u20$for$u20$ux..i20$GT$4from17h686c66186048332bE
ffffff00002d2930 T _ZN2ux10conversion72_$LT$impl$u20$core..convert..From$LT$ux..i13$GT$$u20$for$u20$ux..i21$GT$4from17h7bd9b129c0c4c6d5E
ffffff00002d2930 T _ZN2ux10conversion72_$LT$impl$u20$core..convert..From$LT$ux..i13$GT$$u20$for$u20$ux..i22$GT$4from17ha06e301045672b31E
ffffff00002d2930 T _ZN2ux10conversion72_$LT$impl$u20$core..convert..From$LT$ux..i13$GT$$u20$for$u20$ux..i23$GT$4from17h1637de35ba067123E
ffffff00002d2930 T _ZN2ux10conversion72_$LT$impl$u20$core..convert..From$LT$ux..i13$GT$$u20$for$u20$ux..i24$GT$4from17hcad4b1c8da6837c1E
ffffff00002d2930 T _ZN2ux10conversion72_$LT$impl$u20$core..convert..From$LT$ux..i13$GT$$u20$for$u20$ux..i25$GT$4from17h8b59693754821f7cE
ffffff00002d2930 T _ZN2ux10conversion72_$LT$impl$u20$core..convert..From$LT$ux..i13$GT$$u20$for$u20$ux..i26$GT$4from17h2343f1a6a3b8030fE
ffffff00002d2930 T _ZN2ux10conversion72_$LT$impl$u20$core..convert..From$LT$ux..i13$GT$$u20$for$u20$ux..i27$GT$4from17h84b5ce93c890ecf8E
ffffff00002d2930 T _ZN2ux10conversion72_$LT$impl$u20$core..convert..From$LT$ux..i13$GT$$u20$for$u20$ux..i28$GT$4from17hf41ae6c35bc035ebE
ffffff00002d2930 T _ZN2ux10conversion72_$LT$impl$u20$core..convert..From$LT$ux..i13$GT$$u20$for$u20$ux..i29$GT$4from17h3e455a409623de11E
ffffff00002d2930 T _ZN2ux10conversion72_$LT$impl$u20$core..convert..From$LT$ux..i13$GT$$u20$for$u20$ux..i30$GT$4from17h71266471da417e0eE
ffffff00002d2930 T _ZN2ux10conversion72_$LT$impl$u20$core..convert..From$LT$ux..i13$GT$$u20$for$u20$ux..i31$GT$4from17haa51b1c5e9a6c8c8E
ffffff00002d2940 T _ZN2ux10conversion72_$LT$impl$u20$core..convert..From$LT$ux..i13$GT$$u20$for$u20$ux..i33$GT$4from17h453d1dd533572277E
ffffff00002d2940 T _ZN2ux10conversion72_$LT$impl$u20$core..convert..From$LT$ux..i13$GT$$u20$for$u20$ux..i34$GT$4from17h562a384eb55723b8E
ffffff00002d2940 T _ZN2ux10conversion72_$LT$impl$u20$core..convert..From$LT$ux..i13$GT$$u20$for$u20$ux..i35$GT$4from17hfd86a5121133078aE
ffffff00002d2940 T _ZN2ux10conversion72_$LT$impl$u20$core..convert..From$LT$ux..i13$GT$$u20$for$u20$ux..i36$GT$4from17hf52dc62b7e1f24daE
ffffff00002d2940 T _ZN2ux10conversion72_$LT$impl$u20$core..convert..From$LT$ux..i13$GT$$u20$for$u20$ux..i37$GT$4from17hc2b1d1023c20d016E
ffffff00002d2940 T _ZN2ux10conversion72_$LT$impl$u20$core..convert..From$LT$ux..i13$GT$$u20$for$u20$ux..i38$GT$4from17h38ece1433d269411E
ffffff00002d2940 T _ZN2ux10conversion72_$LT$impl$u20$core..convert..From$LT$ux..i13$GT$$u20$for$u20$ux..i39$GT$4from17hda6779ac5823e15eE
ffffff00002d2940 T _ZN2ux10conversion72_$LT$impl$u20$core..convert..From$LT$ux..i13$GT$$u20$for$u20$ux..i40$GT$4from17h9f19ac2e1938646aE
ffffff00002d2940 T _ZN2ux10conversion72_$LT$impl$u20$core..convert..From$LT$ux..i13$GT$$u20$for$u20$ux..i41$GT$4from17h74695f3426d9b04fE
ffffff00002d2940 T _ZN2ux10conversion72_$LT$impl$u20$core..convert..From$LT$ux..i13$GT$$u20$for$u20$ux..i42$GT$4from17h51441ed5b271fa3fE
ffffff00002d2940 T _ZN2ux10conversion72_$LT$impl$u20$core..convert..From$LT$ux..i13$GT$$u20$for$u20$ux..i43$GT$4from17hc0ab69f6a3802e90E
ffffff00002d2940 T _ZN2ux10conversion72_$LT$impl$u20$core..convert..From$LT$ux..i13$GT$$u20$for$u20$ux..i44$GT$4from17h4ff02f293fa6a0b2E
ffffff00002d2940 T _ZN2ux10conversion72_$LT$impl$u20$core..convert..From$LT$ux..i13$GT$$u20$for$u20$ux..i45$GT$4from17h8f0baafbdc9760c7E
ffffff00002d2940 T _ZN2ux10conversion72_$LT$impl$u20$core..convert..From$LT$ux..i13$GT$$u20$for$u20$ux..i46$GT$4from17hd3a36f12ccf44303E
ffffff00002d2940 T _ZN2ux10conversion72_$LT$impl$u20$core..convert..From$LT$ux..i13$GT$$u20$for$u20$ux..i47$GT$4from17hd2bd621e4773ad32E
ffffff00002d2940 T _ZN2ux10conversion72_$LT$impl$u20$core..convert..From$LT$ux..i13$GT$$u20$for$u20$ux..i48$GT$4from17h35b66c44cafb5d29E
ffffff00002d2940 T _ZN2ux10conversion72_$LT$impl$u20$core..convert..From$LT$ux..i13$GT$$u20$for$u20$ux..i49$GT$4from17h0838620c083cf320E
ffffff00002d2940 T _ZN2ux10conversion72_$LT$impl$u20$core..convert..From$LT$ux..i13$GT$$u20$for$u20$ux..i50$GT$4from17h3d1ee5c9b373d7cbE
ffffff00002d2940 T _ZN2ux10conversion72_$LT$impl$u20$core..convert..From$LT$ux..i13$GT$$u20$for$u20$ux..i51$GT$4from17h293602da2006d779E
ffffff00002d2940 T _ZN2ux10conversion72_$LT$impl$u20$core..convert..From$LT$ux..i13$GT$$u20$for$u20$ux..i52$GT$4from17h9be9a2fa301bf901E
ffffff00002d2940 T _ZN2ux10conversion72_$LT$impl$u20$core..convert..From$LT$ux..i13$GT$$u20$for$u20$ux..i53$GT$4from17hb22b18d680d4d2ffE
ffffff00002d2940 T _ZN2ux10conversion72_$LT$impl$u20$core..convert..From$LT$ux..i13$GT$$u20$for$u20$ux..i54$GT$4from17hbcf94fc229808567E
ffffff00002d2940 T _ZN2ux10conversion72_$LT$impl$u20$core..convert..From$LT$ux..i13$GT$$u20$for$u20$ux..i55$GT$4from17hf659ec041e07d1a9E
ffffff00002d2940 T _ZN2ux10conversion72_$LT$impl$u20$core..convert..From$LT$ux..i13$GT$$u20$for$u20$ux..i56$GT$4from17h9967d1593121cdb4E
ffffff00002d2940 T _ZN2ux10conversion72_$LT$impl$u20$core..convert..From$LT$ux..i13$GT$$u20$for$u20$ux..i57$GT$4from17h6a97a84aafa680cdE
ffffff00002d2940 T _ZN2ux10conversion72_$LT$impl$u20$core..convert..From$LT$ux..i13$GT$$u20$for$u20$ux..i58$GT$4from17h461bc020b782dda9E
ffffff00002d2940 T _ZN2ux10conversion72_$LT$impl$u20$core..convert..From$LT$ux..i13$GT$$u20$for$u20$ux..i59$GT$4from17h4ac136bad65a75f2E
ffffff00002d2940 T _ZN2ux10conversion72_$LT$impl$u20$core..convert..From$LT$ux..i13$GT$$u20$for$u20$ux..i60$GT$4from17hd9bdaabdc1b1d1baE
ffffff00002d2940 T _ZN2ux10conversion72_$LT$impl$u20$core..convert..From$LT$ux..i13$GT$$u20$for$u20$ux..i61$GT$4from17h70bcade9779b9bffE
ffffff00002d2940 T _ZN2ux10conversion72_$LT$impl$u20$core..convert..From$LT$ux..i13$GT$$u20$for$u20$ux..i62$GT$4from17h616bbb6569946e7bE
ffffff00002d2940 T _ZN2ux10conversion72_$LT$impl$u20$core..convert..From$LT$ux..i13$GT$$u20$for$u20$ux..i63$GT$4from17h4a2200a0d10fd988E
ffffff00002d2970 T _ZN2ux10conversion72_$LT$impl$u20$core..convert..From$LT$ux..i14$GT$$u20$for$u20$ux..i15$GT$4from17hc7402e72ecd547e7E
ffffff00002d2930 T _ZN2ux10conversion72_$LT$impl$u20$core..convert..From$LT$ux..i14$GT$$u20$for$u20$ux..i17$GT$4from17h516bed0883748922E
ffffff00002d2930 T _ZN2ux10conversion72_$LT$impl$u20$core..convert..From$LT$ux..i14$GT$$u20$for$u20$ux..i18$GT$4from17hd1abab2d7536e36aE
ffffff00002d2930 T _ZN2ux10conversion72_$LT$impl$u20$core..convert..From$LT$ux..i14$GT$$u20$for$u20$ux..i19$GT$4from17h6ceb5663adaca056E
ffffff00002d2930 T _ZN2ux10conversion72_$LT$impl$u20$core..convert..From$LT$ux..i14$GT$$u20$for$u20$ux..i20$GT$4from17ha5dbb1a14544b09cE
ffffff00002d2930 T _ZN2ux10conversion72_$LT$impl$u20$core..convert..From$LT$ux..i14$GT$$u20$for$u20$ux..i21$GT$4from17h6ef978a3237a3902E
ffffff00002d2930 T _ZN2ux10conversion72_$LT$impl$u20$core..convert..From$LT$ux..i14$GT$$u20$for$u20$ux..i22$GT$4from17h780bcc2f2f608db9E
ffffff00002d2930 T _ZN2ux10conversion72_$LT$impl$u20$core..convert..From$LT$ux..i14$GT$$u20$for$u20$ux..i23$GT$4from17h4e1e117f775fc990E
ffffff00002d2930 T _ZN2ux10conversion72_$LT$impl$u20$core..convert..From$LT$ux..i14$GT$$u20$for$u20$ux..i24$GT$4from17h7d48a24de21af734E
ffffff00002d2930 T _ZN2ux10conversion72_$LT$impl$u20$core..convert..From$LT$ux..i14$GT$$u20$for$u20$ux..i25$GT$4from17h4852b58bdd7e4688E
ffffff00002d2930 T _ZN2ux10conversion72_$LT$impl$u20$core..convert..From$LT$ux..i14$GT$$u20$for$u20$ux..i26$GT$4from17h2fb86d59cc7800deE
ffffff00002d2930 T _ZN2ux10conversion72_$LT$impl$u20$core..convert..From$LT$ux..i14$GT$$u20$for$u20$ux..i27$GT$4from17h94e0919247bd2a50E
ffffff00002d2930 T _ZN2ux10conversion72_$LT$impl$u20$core..convert..From$LT$ux..i14$GT$$u20$for$u20$ux..i28$GT$4from17h725a97de25d9f1ccE
ffffff00002d2930 T _ZN2ux10conversion72_$LT$impl$u20$core..convert..From$LT$ux..i14$GT$$u20$for$u20$ux..i29$GT$4from17h07e8b5c832e805c0E
ffffff00002d2930 T _ZN2ux10conversion72_$LT$impl$u20$core..convert..From$LT$ux..i14$GT$$u20$for$u20$ux..i30$GT$4from17hf534bddd6412e842E
ffffff00002d2930 T _ZN2ux10conversion72_$LT$impl$u20$core..convert..From$LT$ux..i14$GT$$u20$for$u20$ux..i31$GT$4from17h267a60648fa5aa5aE
ffffff00002d2940 T _ZN2ux10conversion72_$LT$impl$u20$core..convert..From$LT$ux..i14$GT$$u20$for$u20$ux..i33$GT$4from17hc02505f182945797E
ffffff00002d2940 T _ZN2ux10conversion72_$LT$impl$u20$core..convert..From$LT$ux..i14$GT$$u20$for$u20$ux..i34$GT$4from17h3d82d100f3e2c2d0E
ffffff00002d2940 T _ZN2ux10conversion72_$LT$impl$u20$core..convert..From$LT$ux..i14$GT$$u20$for$u20$ux..i35$GT$4from17h0029426e6fe7e1a7E
ffffff00002d2940 T _ZN2ux10conversion72_$LT$impl$u20$core..convert..From$LT$ux..i14$GT$$u20$for$u20$ux..i36$GT$4from17h275b5282f0b4534cE
ffffff00002d2940 T _ZN2ux10conversion72_$LT$impl$u20$core..convert..From$LT$ux..i14$GT$$u20$for$u20$ux..i37$GT$4from17hd207a40b0d0c8a5cE
ffffff00002d2940 T _ZN2ux10conversion72_$LT$impl$u20$core..convert..From$LT$ux..i14$GT$$u20$for$u20$ux..i38$GT$4from17hd7fd6f3ecc79a30aE
ffffff00002d2940 T _ZN2ux10conversion72_$LT$impl$u20$core..convert..From$LT$ux..i14$GT$$u20$for$u20$ux..i39$GT$4from17h502355dd744917f2E
ffffff00002d2940 T _ZN2ux10conversion72_$LT$impl$u20$core..convert..From$LT$ux..i14$GT$$u20$for$u20$ux..i40$GT$4from17ha0ce50cf74bafa1bE
ffffff00002d2940 T _ZN2ux10conversion72_$LT$impl$u20$core..convert..From$LT$ux..i14$GT$$u20$for$u20$ux..i41$GT$4from17h81315bd39227f8c7E
ffffff00002d2940 T _ZN2ux10conversion72_$LT$impl$u20$core..convert..From$LT$ux..i14$GT$$u20$for$u20$ux..i42$GT$4from17h759e324a6ed3d8c7E
ffffff00002d2940 T _ZN2ux10conversion72_$LT$impl$u20$core..convert..From$LT$ux..i14$GT$$u20$for$u20$ux..i43$GT$4from17h08d3a7e94e8aa8e9E
ffffff00002d2940 T _ZN2ux10conversion72_$LT$impl$u20$core..convert..From$LT$ux..i14$GT$$u20$for$u20$ux..i44$GT$4from17h4302267e660b65abE
ffffff00002d2940 T _ZN2ux10conversion72_$LT$impl$u20$core..convert..From$LT$ux..i14$GT$$u20$for$u20$ux..i45$GT$4from17h2f55f2750fce4f65E
ffffff00002d2940 T _ZN2ux10conversion72_$LT$impl$u20$core..convert..From$LT$ux..i14$GT$$u20$for$u20$ux..i46$GT$4from17h920b43b372608526E
ffffff00002d2940 T _ZN2ux10conversion72_$LT$impl$u20$core..convert..From$LT$ux..i14$GT$$u20$for$u20$ux..i47$GT$4from17hc671c74a1f01ea80E
ffffff00002d2940 T _ZN2ux10conversion72_$LT$impl$u20$core..convert..From$LT$ux..i14$GT$$u20$for$u20$ux..i48$GT$4from17ha033fe92abecf1beE
ffffff00002d2940 T _ZN2ux10conversion72_$LT$impl$u20$core..convert..From$LT$ux..i14$GT$$u20$for$u20$ux..i49$GT$4from17hddb22dbd00a3ad87E
ffffff00002d2940 T _ZN2ux10conversion72_$LT$impl$u20$core..convert..From$LT$ux..i14$GT$$u20$for$u20$ux..i50$GT$4from17hcded9b62ea289549E
ffffff00002d2940 T _ZN2ux10conversion72_$LT$impl$u20$core..convert..From$LT$ux..i14$GT$$u20$for$u20$ux..i51$GT$4from17h0d229c120050c96aE
ffffff00002d2940 T _ZN2ux10conversion72_$LT$impl$u20$core..convert..From$LT$ux..i14$GT$$u20$for$u20$ux..i52$GT$4from17hb7377ab43f62c2b4E
ffffff00002d2940 T _ZN2ux10conversion72_$LT$impl$u20$core..convert..From$LT$ux..i14$GT$$u20$for$u20$ux..i53$GT$4from17hf4a7b71753a92f4cE
ffffff00002d2940 T _ZN2ux10conversion72_$LT$impl$u20$core..convert..From$LT$ux..i14$GT$$u20$for$u20$ux..i54$GT$4from17h9f2e829f689b6b3eE
ffffff00002d2940 T _ZN2ux10conversion72_$LT$impl$u20$core..convert..From$LT$ux..i14$GT$$u20$for$u20$ux..i55$GT$4from17hcb82508de3a9c123E
ffffff00002d2940 T _ZN2ux10conversion72_$LT$impl$u20$core..convert..From$LT$ux..i14$GT$$u20$for$u20$ux..i56$GT$4from17h5964146e730eb9a7E
ffffff00002d2940 T _ZN2ux10conversion72_$LT$impl$u20$core..convert..From$LT$ux..i14$GT$$u20$for$u20$ux..i57$GT$4from17h75c5eb0f607416c5E
ffffff00002d2940 T _ZN2ux10conversion72_$LT$impl$u20$core..convert..From$LT$ux..i14$GT$$u20$for$u20$ux..i58$GT$4from17h6952b3f6096cf998E
ffffff00002d2940 T _ZN2ux10conversion72_$LT$impl$u20$core..convert..From$LT$ux..i14$GT$$u20$for$u20$ux..i59$GT$4from17hee93663c10c4fdabE
ffffff00002d2940 T _ZN2ux10conversion72_$LT$impl$u20$core..convert..From$LT$ux..i14$GT$$u20$for$u20$ux..i60$GT$4from17he571fdcd24a782f8E
ffffff00002d2940 T _ZN2ux10conversion72_$LT$impl$u20$core..convert..From$LT$ux..i14$GT$$u20$for$u20$ux..i61$GT$4from17hff3f004fe4c09b63E
ffffff00002d2940 T _ZN2ux10conversion72_$LT$impl$u20$core..convert..From$LT$ux..i14$GT$$u20$for$u20$ux..i62$GT$4from17h6d74842d1fc8adeaE
ffffff00002d2940 T _ZN2ux10conversion72_$LT$impl$u20$core..convert..From$LT$ux..i14$GT$$u20$for$u20$ux..i63$GT$4from17h35e3fc5b364d273aE
ffffff00002d2930 T _ZN2ux10conversion72_$LT$impl$u20$core..convert..From$LT$ux..i15$GT$$u20$for$u20$ux..i17$GT$4from17hc8f301c550a53b7bE
ffffff00002d2930 T _ZN2ux10conversion72_$LT$impl$u20$core..convert..From$LT$ux..i15$GT$$u20$for$u20$ux..i18$GT$4from17h6ee8ae1791eaaf23E
ffffff00002d2930 T _ZN2ux10conversion72_$LT$impl$u20$core..convert..From$LT$ux..i15$GT$$u20$for$u20$ux..i19$GT$4from17h535796c7dbbed842E
ffffff00002d2930 T _ZN2ux10conversion72_$LT$impl$u20$core..convert..From$LT$ux..i15$GT$$u20$for$u20$ux..i20$GT$4from17h83a63a063918cc9eE
ffffff00002d2930 T _ZN2ux10conversion72_$LT$impl$u20$core..convert..From$LT$ux..i15$GT$$u20$for$u20$ux..i21$GT$4from17hc2f15fb2de1f2268E
ffffff00002d2930 T _ZN2ux10conversion72_$LT$impl$u20$core..convert..From$LT$ux..i15$GT$$u20$for$u20$ux..i22$GT$4from17h2d02e694359a2a10E
ffffff00002d2930 T _ZN2ux10conversion72_$LT$impl$u20$core..convert..From$LT$ux..i15$GT$$u20$for$u20$ux..i23$GT$4from17he5623dba32d534d2E
ffffff00002d2930 T _ZN2ux10conversion72_$LT$impl$u20$core..convert..From$LT$ux..i15$GT$$u20$for$u20$ux..i24$GT$4from17h11f3b7ebadf0e827E
ffffff00002d2930 T _ZN2ux10conversion72_$LT$impl$u20$core..convert..From$LT$ux..i15$GT$$u20$for$u20$ux..i25$GT$4from17h75fb6f725bdcfda4E
ffffff00002d2930 T _ZN2ux10conversion72_$LT$impl$u20$core..convert..From$LT$ux..i15$GT$$u20$for$u20$ux..i26$GT$4from17h2ba830b19a005d90E
ffffff00002d2930 T _ZN2ux10conversion72_$LT$impl$u20$core..convert..From$LT$ux..i15$GT$$u20$for$u20$ux..i27$GT$4from17h844cbab071153dd1E
ffffff00002d2930 T _ZN2ux10conversion72_$LT$impl$u20$core..convert..From$LT$ux..i15$GT$$u20$for$u20$ux..i28$GT$4from17h44dbd15d04dba2d5E
ffffff00002d2930 T _ZN2ux10conversion72_$LT$impl$u20$core..convert..From$LT$ux..i15$GT$$u20$for$u20$ux..i29$GT$4from17haef3606cf3736378E
ffffff00002d2930 T _ZN2ux10conversion72_$LT$impl$u20$core..convert..From$LT$ux..i15$GT$$u20$for$u20$ux..i30$GT$4from17hf4fd68403291a422E
ffffff00002d2930 T _ZN2ux10conversion72_$LT$impl$u20$core..convert..From$LT$ux..i15$GT$$u20$for$u20$ux..i31$GT$4from17he0e4df3d9b802d1fE
ffffff00002d2940 T _ZN2ux10conversion72_$LT$impl$u20$core..convert..From$LT$ux..i15$GT$$u20$for$u20$ux..i33$GT$4from17hffcb46302169bcb9E
ffffff00002d2940 T _ZN2ux10conversion72_$LT$impl$u20$core..convert..From$LT$ux..i15$GT$$u20$for$u20$ux..i34$GT$4from17h16d3fc9287cca17cE
ffffff00002d2940 T _ZN2ux10conversion72_$LT$impl$u20$core..convert..From$LT$ux..i15$GT$$u20$for$u20$ux..i35$GT$4from17h0e77d6e1780edad3E
ffffff00002d2940 T _ZN2ux10conversion72_$LT$impl$u20$core..convert..From$LT$ux..i15$GT$$u20$for$u20$ux..i36$GT$4from17hb5cd25c897ac3681E
ffffff00002d2940 T _ZN2ux10conversion72_$LT$impl$u20$core..convert..From$LT$ux..i15$GT$$u20$for$u20$ux..i37$GT$4from17hb761898acb7abc6eE
ffffff00002d2940 T _ZN2ux10conversion72_$LT$impl$u20$core..convert..From$LT$ux..i15$GT$$u20$for$u20$ux..i38$GT$4from17h186868a54ab607d3E
ffffff00002d2940 T _ZN2ux10conversion72_$LT$impl$u20$core..convert..From$LT$ux..i15$GT$$u20$for$u20$ux..i39$GT$4from17hb210b28084a9467eE
ffffff00002d2940 T _ZN2ux10conversion72_$LT$impl$u20$core..convert..From$LT$ux..i15$GT$$u20$for$u20$ux..i40$GT$4from17hb7ae1d86ad3e4255E
ffffff00002d2940 T _ZN2ux10conversion72_$LT$impl$u20$core..convert..From$LT$ux..i15$GT$$u20$for$u20$ux..i41$GT$4from17h3237c043f5d7466aE
ffffff00002d2940 T _ZN2ux10conversion72_$LT$impl$u20$core..convert..From$LT$ux..i15$GT$$u20$for$u20$ux..i42$GT$4from17hc051c51800f49ed3E
ffffff00002d2940 T _ZN2ux10conversion72_$LT$impl$u20$core..convert..From$LT$ux..i15$GT$$u20$for$u20$ux..i43$GT$4from17h469e08a8d312ab71E
ffffff00002d2940 T _ZN2ux10conversion72_$LT$impl$u20$core..convert..From$LT$ux..i15$GT$$u20$for$u20$ux..i44$GT$4from17h5f1b33b9be9bdd1fE
ffffff00002d2940 T _ZN2ux10conversion72_$LT$impl$u20$core..convert..From$LT$ux..i15$GT$$u20$for$u20$ux..i45$GT$4from17h94083d987aee0271E
ffffff00002d2940 T _ZN2ux10conversion72_$LT$impl$u20$core..convert..From$LT$ux..i15$GT$$u20$for$u20$ux..i46$GT$4from17h18565945604fd133E
ffffff00002d2940 T _ZN2ux10conversion72_$LT$impl$u20$core..convert..From$LT$ux..i15$GT$$u20$for$u20$ux..i47$GT$4from17hf80e0e02359e73c7E
ffffff00002d2940 T _ZN2ux10conversion72_$LT$impl$u20$core..convert..From$LT$ux..i15$GT$$u20$for$u20$ux..i48$GT$4from17h7afaea331f55a7beE
ffffff00002d2940 T _ZN2ux10conversion72_$LT$impl$u20$core..convert..From$LT$ux..i15$GT$$u20$for$u20$ux..i49$GT$4from17h125811cec13a9418E
ffffff00002d2940 T _ZN2ux10conversion72_$LT$impl$u20$core..convert..From$LT$ux..i15$GT$$u20$for$u20$ux..i50$GT$4from17hdbc69a2e674a5764E
ffffff00002d2940 T _ZN2ux10conversion72_$LT$impl$u20$core..convert..From$LT$ux..i15$GT$$u20$for$u20$ux..i51$GT$4from17h112165c0fb78e15aE
ffffff00002d2940 T _ZN2ux10conversion72_$LT$impl$u20$core..convert..From$LT$ux..i15$GT$$u20$for$u20$ux..i52$GT$4from17h400a34f2193a89b3E
ffffff00002d2940 T _ZN2ux10conversion72_$LT$impl$u20$core..convert..From$LT$ux..i15$GT$$u20$for$u20$ux..i53$GT$4from17hc75555c603fccbb6E
ffffff00002d2940 T _ZN2ux10conversion72_$LT$impl$u20$core..convert..From$LT$ux..i15$GT$$u20$for$u20$ux..i54$GT$4from17hdc78bc512912d888E
ffffff00002d2940 T _ZN2ux10conversion72_$LT$impl$u20$core..convert..From$LT$ux..i15$GT$$u20$for$u20$ux..i55$GT$4from17hb70bf44aedce77a6E
ffffff00002d2940 T _ZN2ux10conversion72_$LT$impl$u20$core..convert..From$LT$ux..i15$GT$$u20$for$u20$ux..i56$GT$4from17h271c21b1608a3e16E
ffffff00002d2940 T _ZN2ux10conversion72_$LT$impl$u20$core..convert..From$LT$ux..i15$GT$$u20$for$u20$ux..i57$GT$4from17h2c304d50120ab589E
ffffff00002d2940 T _ZN2ux10conversion72_$LT$impl$u20$core..convert..From$LT$ux..i15$GT$$u20$for$u20$ux..i58$GT$4from17h897dfb92ff174ab0E
ffffff00002d2940 T _ZN2ux10conversion72_$LT$impl$u20$core..convert..From$LT$ux..i15$GT$$u20$for$u20$ux..i59$GT$4from17h0c82013933a9b6f5E
ffffff00002d2940 T _ZN2ux10conversion72_$LT$impl$u20$core..convert..From$LT$ux..i15$GT$$u20$for$u20$ux..i60$GT$4from17h7d5f5728ad76ac51E
ffffff00002d2940 T _ZN2ux10conversion72_$LT$impl$u20$core..convert..From$LT$ux..i15$GT$$u20$for$u20$ux..i61$GT$4from17h0c0cdcce96b7f5c8E
ffffff00002d2940 T _ZN2ux10conversion72_$LT$impl$u20$core..convert..From$LT$ux..i15$GT$$u20$for$u20$ux..i62$GT$4from17hbc3c3ea12298fb68E
ffffff00002d2940 T _ZN2ux10conversion72_$LT$impl$u20$core..convert..From$LT$ux..i15$GT$$u20$for$u20$ux..i63$GT$4from17h30ebcf2b00b08a0cE
ffffff00002d2980 T _ZN2ux10conversion72_$LT$impl$u20$core..convert..From$LT$ux..i17$GT$$u20$for$u20$ux..i18$GT$4from17h545b9d38d618af38E
ffffff00002d2980 T _ZN2ux10conversion72_$LT$impl$u20$core..convert..From$LT$ux..i17$GT$$u20$for$u20$ux..i19$GT$4from17h18bc8664dabfa806E
ffffff00002d2980 T _ZN2ux10conversion72_$LT$impl$u20$core..convert..From$LT$ux..i17$GT$$u20$for$u20$ux..i20$GT$4from17h72b06adff9d07451E
ffffff00002d2980 T _ZN2ux10conversion72_$LT$impl$u20$core..convert..From$LT$ux..i17$GT$$u20$for$u20$ux..i21$GT$4from17h30bf246eb9379182E
ffffff00002d2980 T _ZN2ux10conversion72_$LT$impl$u20$core..convert..From$LT$ux..i17$GT$$u20$for$u20$ux..i22$GT$4from17hd6e18489ea1b7193E
ffffff00002d2980 T _ZN2ux10conversion72_$LT$impl$u20$core..convert..From$LT$ux..i17$GT$$u20$for$u20$ux..i23$GT$4from17hf7886f213f0a2f4aE
ffffff00002d2980 T _ZN2ux10conversion72_$LT$impl$u20$core..convert..From$LT$ux..i17$GT$$u20$for$u20$ux..i24$GT$4from17hda9f2c5651a6d8dbE
ffffff00002d2980 T _ZN2ux10conversion72_$LT$impl$u20$core..convert..From$LT$ux..i17$GT$$u20$for$u20$ux..i25$GT$4from17h97d1530c1ad2649eE
ffffff00002d2980 T _ZN2ux10conversion72_$LT$impl$u20$core..convert..From$LT$ux..i17$GT$$u20$for$u20$ux..i26$GT$4from17h2d4a029c84bd6daeE
ffffff00002d2980 T _ZN2ux10conversion72_$LT$impl$u20$core..convert..From$LT$ux..i17$GT$$u20$for$u20$ux..i27$GT$4from17h456c0680e327b7a5E
ffffff00002d2980 T _ZN2ux10conversion72_$LT$impl$u20$core..convert..From$LT$ux..i17$GT$$u20$for$u20$ux..i28$GT$4from17he7149d3f34863ed0E
ffffff00002d2980 T _ZN2ux10conversion72_$LT$impl$u20$core..convert..From$LT$ux..i17$GT$$u20$for$u20$ux..i29$GT$4from17h5b5980b0af5ebbc9E
ffffff00002d2980 T _ZN2ux10conversion72_$LT$impl$u20$core..convert..From$LT$ux..i17$GT$$u20$for$u20$ux..i30$GT$4from17hfebbaa52966991d1E
ffffff00002d2980 T _ZN2ux10conversion72_$LT$impl$u20$core..convert..From$LT$ux..i17$GT$$u20$for$u20$ux..i31$GT$4from17hf8c6477974942cdaE
ffffff00002d2950 T _ZN2ux10conversion72_$LT$impl$u20$core..convert..From$LT$ux..i17$GT$$u20$for$u20$ux..i33$GT$4from17h2f50c4af1b278fbdE
ffffff00002d2950 T _ZN2ux10conversion72_$LT$impl$u20$core..convert..From$LT$ux..i17$GT$$u20$for$u20$ux..i34$GT$4from17h9df3ca2f2c686461E
ffffff00002d2950 T _ZN2ux10conversion72_$LT$impl$u20$core..convert..From$LT$ux..i17$GT$$u20$for$u20$ux..i35$GT$4from17hc86b546d20d9b6c5E
ffffff00002d2950 T _ZN2ux10conversion72_$LT$impl$u20$core..convert..From$LT$ux..i17$GT$$u20$for$u20$ux..i36$GT$4from17h585c1de66cb3b185E
ffffff00002d2950 T _ZN2ux10conversion72_$LT$impl$u20$core..convert..From$LT$ux..i17$GT$$u20$for$u20$ux..i37$GT$4from17h1e75a3c3040de79cE
ffffff00002d2950 T _ZN2ux10conversion72_$LT$impl$u20$core..convert..From$LT$ux..i17$GT$$u20$for$u20$ux..i38$GT$4from17h308e2ecf76cd7a0dE
ffffff00002d2950 T _ZN2ux10conversion72_$LT$impl$u20$core..convert..From$LT$ux..i17$GT$$u20$for$u20$ux..i39$GT$4from17h26a28e2be51a812eE
ffffff00002d2950 T _ZN2ux10conversion72_$LT$impl$u20$core..convert..From$LT$ux..i17$GT$$u20$for$u20$ux..i40$GT$4from17h86b614036c7e2e2bE
ffffff00002d2950 T _ZN2ux10conversion72_$LT$impl$u20$core..convert..From$LT$ux..i17$GT$$u20$for$u20$ux..i41$GT$4from17he763491e355a7cb5E
ffffff00002d2950 T _ZN2ux10conversion72_$LT$impl$u20$core..convert..From$LT$ux..i17$GT$$u20$for$u20$ux..i42$GT$4from17h0c47185f2d046d9bE
ffffff00002d2950 T _ZN2ux10conversion72_$LT$impl$u20$core..convert..From$LT$ux..i17$GT$$u20$for$u20$ux..i43$GT$4from17h516bb086a919c8fbE
ffffff00002d2950 T _ZN2ux10conversion72_$LT$impl$u20$core..convert..From$LT$ux..i17$GT$$u20$for$u20$ux..i44$GT$4from17h04e3a6cddcf582feE
ffffff00002d2950 T _ZN2ux10conversion72_$LT$impl$u20$core..convert..From$LT$ux..i17$GT$$u20$for$u20$ux..i45$GT$4from17he65032690dae3828E
ffffff00002d2950 T _ZN2ux10conversion72_$LT$impl$u20$core..convert..From$LT$ux..i17$GT$$u20$for$u20$ux..i46$GT$4from17h77fd951972dee57bE
ffffff00002d2950 T _ZN2ux10conversion72_$LT$impl$u20$core..convert..From$LT$ux..i17$GT$$u20$for$u20$ux..i47$GT$4from17h929b7141c76cfa78E
ffffff00002d2950 T _ZN2ux10conversion72_$LT$impl$u20$core..convert..From$LT$ux..i17$GT$$u20$for$u20$ux..i48$GT$4from17h5a243c782ab885daE
ffffff00002d2950 T _ZN2ux10conversion72_$LT$impl$u20$core..convert..From$LT$ux..i17$GT$$u20$for$u20$ux..i49$GT$4from17h87273c64bece8f17E
ffffff00002d2950 T _ZN2ux10conversion72_$LT$impl$u20$core..convert..From$LT$ux..i17$GT$$u20$for$u20$ux..i50$GT$4from17h319142d7284853e7E
ffffff00002d2950 T _ZN2ux10conversion72_$LT$impl$u20$core..convert..From$LT$ux..i17$GT$$u20$for$u20$ux..i51$GT$4from17h43af18aabea745d8E
ffffff00002d2950 T _ZN2ux10conversion72_$LT$impl$u20$core..convert..From$LT$ux..i17$GT$$u20$for$u20$ux..i52$GT$4from17hfd5774fac2594657E
ffffff00002d2950 T _ZN2ux10conversion72_$LT$impl$u20$core..convert..From$LT$ux..i17$GT$$u20$for$u20$ux..i53$GT$4from17h07790a6088a96422E
ffffff00002d2950 T _ZN2ux10conversion72_$LT$impl$u20$core..convert..From$LT$ux..i17$GT$$u20$for$u20$ux..i54$GT$4from17h7bafe8b808139237E
ffffff00002d2950 T _ZN2ux10conversion72_$LT$impl$u20$core..convert..From$LT$ux..i17$GT$$u20$for$u20$ux..i55$GT$4from17h933df29615f3b9b7E
ffffff00002d2950 T _ZN2ux10conversion72_$LT$impl$u20$core..convert..From$LT$ux..i17$GT$$u20$for$u20$ux..i56$GT$4from17h5ec66eca7595f150E
ffffff00002d2950 T _ZN2ux10conversion72_$LT$impl$u20$core..convert..From$LT$ux..i17$GT$$u20$for$u20$ux..i57$GT$4from17hc5f74d807b761ea0E
ffffff00002d2950 T _ZN2ux10conversion72_$LT$impl$u20$core..convert..From$LT$ux..i17$GT$$u20$for$u20$ux..i58$GT$4from17h8a91b08d79337c8aE
ffffff00002d2950 T _ZN2ux10conversion72_$LT$impl$u20$core..convert..From$LT$ux..i17$GT$$u20$for$u20$ux..i59$GT$4from17h7102ce04485643feE
ffffff00002d2950 T _ZN2ux10conversion72_$LT$impl$u20$core..convert..From$LT$ux..i17$GT$$u20$for$u20$ux..i60$GT$4from17h406d3fc523d61fadE
ffffff00002d2950 T _ZN2ux10conversion72_$LT$impl$u20$core..convert..From$LT$ux..i17$GT$$u20$for$u20$ux..i61$GT$4from17hf42caeabcebe966dE
ffffff00002d2950 T _ZN2ux10conversion72_$LT$impl$u20$core..convert..From$LT$ux..i17$GT$$u20$for$u20$ux..i62$GT$4from17hafd916351bb7c419E
ffffff00002d2950 T _ZN2ux10conversion72_$LT$impl$u20$core..convert..From$LT$ux..i17$GT$$u20$for$u20$ux..i63$GT$4from17hed8caa1eb9522f8fE
ffffff00002d2980 T _ZN2ux10conversion72_$LT$impl$u20$core..convert..From$LT$ux..i18$GT$$u20$for$u20$ux..i19$GT$4from17h95784d7e015791e2E
ffffff00002d2980 T _ZN2ux10conversion72_$LT$impl$u20$core..convert..From$LT$ux..i18$GT$$u20$for$u20$ux..i20$GT$4from17hd711f05e43e6298dE
ffffff00002d2980 T _ZN2ux10conversion72_$LT$impl$u20$core..convert..From$LT$ux..i18$GT$$u20$for$u20$ux..i21$GT$4from17h222b7c16524895f2E
ffffff00002d2980 T _ZN2ux10conversion72_$LT$impl$u20$core..convert..From$LT$ux..i18$GT$$u20$for$u20$ux..i22$GT$4from17hbf8b2038d95cba27E
ffffff00002d2980 T _ZN2ux10conversion72_$LT$impl$u20$core..convert..From$LT$ux..i18$GT$$u20$for$u20$ux..i23$GT$4from17haed809a61cba55b9E
ffffff00002d2980 T _ZN2ux10conversion72_$LT$impl$u20$core..convert..From$LT$ux..i18$GT$$u20$for$u20$ux..i24$GT$4from17h86a6b5d71d56ed32E
ffffff00002d2980 T _ZN2ux10conversion72_$LT$impl$u20$core..convert..From$LT$ux..i18$GT$$u20$for$u20$ux..i25$GT$4from17hdc6a8fd7232d65f1E
ffffff00002d2980 T _ZN2ux10conversion72_$LT$impl$u20$core..convert..From$LT$ux..i18$GT$$u20$for$u20$ux..i26$GT$4from17hd7ec9e11cad73b4cE
ffffff00002d2980 T _ZN2ux10conversion72_$LT$impl$u20$core..convert..From$LT$ux..i18$GT$$u20$for$u20$ux..i27$GT$4from17h212ea39c58c3c95dE
ffffff00002d2980 T _ZN2ux10conversion72_$LT$impl$u20$core..convert..From$LT$ux..i18$GT$$u20$for$u20$ux..i28$GT$4from17h59dc33c1d8b036c6E
ffffff00002d2980 T _ZN2ux10conversion72_$LT$impl$u20$core..convert..From$LT$ux..i18$GT$$u20$for$u20$ux..i29$GT$4from17h07d639e266853da3E
ffffff00002d2980 T _ZN2ux10conversion72_$LT$impl$u20$core..convert..From$LT$ux..i18$GT$$u20$for$u20$ux..i30$GT$4from17ha14be110e7006a80E
ffffff00002d2980 T _ZN2ux10conversion72_$LT$impl$u20$core..convert..From$LT$ux..i18$GT$$u20$for$u20$ux..i31$GT$4from17h16be0d9ce6503099E
ffffff00002d2950 T _ZN2ux10conversion72_$LT$impl$u20$core..convert..From$LT$ux..i18$GT$$u20$for$u20$ux..i33$GT$4from17h26d60032ec912d38E
ffffff00002d2950 T _ZN2ux10conversion72_$LT$impl$u20$core..convert..From$LT$ux..i18$GT$$u20$for$u20$ux..i34$GT$4from17hb7a9928274d5c3d2E
ffffff00002d2950 T _ZN2ux10conversion72_$LT$impl$u20$core..convert..From$LT$ux..i18$GT$$u20$for$u20$ux..i35$GT$4from17hfe149ac81985bc8bE
ffffff00002d2950 T _ZN2ux10conversion72_$LT$impl$u20$core..convert..From$LT$ux..i18$GT$$u20$for$u20$ux..i36$GT$4from17h96ff805239d99793E
ffffff00002d2950 T _ZN2ux10conversion72_$LT$impl$u20$core..convert..From$LT$ux..i18$GT$$u20$for$u20$ux..i37$GT$4from17h9eceb6bdb6d9a9fcE
ffffff00002d2950 T _ZN2ux10conversion72_$LT$impl$u20$core..convert..From$LT$ux..i18$GT$$u20$for$u20$ux..i38$GT$4from17h59a2a8f55a946969E
ffffff00002d2950 T _ZN2ux10conversion72_$LT$impl$u20$core..convert..From$LT$ux..i18$GT$$u20$for$u20$ux..i39$GT$4from17h097775ade19d704aE
ffffff00002d2950 T _ZN2ux10conversion72_$LT$impl$u20$core..convert..From$LT$ux..i18$GT$$u20$for$u20$ux..i40$GT$4from17h74938c683f2ba280E
ffffff00002d2950 T _ZN2ux10conversion72_$LT$impl$u20$core..convert..From$LT$ux..i18$GT$$u20$for$u20$ux..i41$GT$4from17hff59ffd2eddcfdeeE
ffffff00002d2950 T _ZN2ux10conversion72_$LT$impl$u20$core..convert..From$LT$ux..i18$GT$$u20$for$u20$ux..i42$GT$4from17h7e0356d488d74e25E
ffffff00002d2950 T _ZN2ux10conversion72_$LT$impl$u20$core..convert..From$LT$ux..i18$GT$$u20$for$u20$ux..i43$GT$4from17h660aac58322b075cE
ffffff00002d2950 T _ZN2ux10conversion72_$LT$impl$u20$core..convert..From$LT$ux..i18$GT$$u20$for$u20$ux..i44$GT$4from17hbea3039a1b8b1d98E
ffffff00002d2950 T _ZN2ux10conversion72_$LT$impl$u20$core..convert..From$LT$ux..i18$GT$$u20$for$u20$ux..i45$GT$4from17hbd501f2ff33284d1E
ffffff00002d2950 T _ZN2ux10conversion72_$LT$impl$u20$core..convert..From$LT$ux..i18$GT$$u20$for$u20$ux..i46$GT$4from17h2cf823f6e9122e34E
ffffff00002d2950 T _ZN2ux10conversion72_$LT$impl$u20$core..convert..From$LT$ux..i18$GT$$u20$for$u20$ux..i47$GT$4from17hd6ab6428058f07dfE
ffffff00002d2950 T _ZN2ux10conversion72_$LT$impl$u20$core..convert..From$LT$ux..i18$GT$$u20$for$u20$ux..i48$GT$4from17h934d4ba68b00eb0aE
ffffff00002d2950 T _ZN2ux10conversion72_$LT$impl$u20$core..convert..From$LT$ux..i18$GT$$u20$for$u20$ux..i49$GT$4from17h59be6f2ea9f0abd0E
ffffff00002d2950 T _ZN2ux10conversion72_$LT$impl$u20$core..convert..From$LT$ux..i18$GT$$u20$for$u20$ux..i50$GT$4from17he8ab78a897dc405bE
ffffff00002d2950 T _ZN2ux10conversion72_$LT$impl$u20$core..convert..From$LT$ux..i18$GT$$u20$for$u20$ux..i51$GT$4from17hcbd9b53ac984822bE
ffffff00002d2950 T _ZN2ux10conversion72_$LT$impl$u20$core..convert..From$LT$ux..i18$GT$$u20$for$u20$ux..i52$GT$4from17h5e47db6afb8f873bE
ffffff00002d2950 T _ZN2ux10conversion72_$LT$impl$u20$core..convert..From$LT$ux..i18$GT$$u20$for$u20$ux..i53$GT$4from17hf5404dc82a53ec92E
ffffff00002d2950 T _ZN2ux10conversion72_$LT$impl$u20$core..convert..From$LT$ux..i18$GT$$u20$for$u20$ux..i54$GT$4from17hc98ef729e870efbcE
ffffff00002d2950 T _ZN2ux10conversion72_$LT$impl$u20$core..convert..From$LT$ux..i18$GT$$u20$for$u20$ux..i55$GT$4from17h8bac9db9b959ad0bE
ffffff00002d2950 T _ZN2ux10conversion72_$LT$impl$u20$core..convert..From$LT$ux..i18$GT$$u20$for$u20$ux..i56$GT$4from17h55422eeb879ac6ffE
ffffff00002d2950 T _ZN2ux10conversion72_$LT$impl$u20$core..convert..From$LT$ux..i18$GT$$u20$for$u20$ux..i57$GT$4from17h3595c3a7cc17b91aE
ffffff00002d2950 T _ZN2ux10conversion72_$LT$impl$u20$core..convert..From$LT$ux..i18$GT$$u20$for$u20$ux..i58$GT$4from17h13f70a43b396ca16E
ffffff00002d2950 T _ZN2ux10conversion72_$LT$impl$u20$core..convert..From$LT$ux..i18$GT$$u20$for$u20$ux..i59$GT$4from17h909e3d8c080d388bE
ffffff00002d2950 T _ZN2ux10conversion72_$LT$impl$u20$core..convert..From$LT$ux..i18$GT$$u20$for$u20$ux..i60$GT$4from17h25b8ed51b690a073E
ffffff00002d2950 T _ZN2ux10conversion72_$LT$impl$u20$core..convert..From$LT$ux..i18$GT$$u20$for$u20$ux..i61$GT$4from17h6a65f73ce7ced73fE
ffffff00002d2950 T _ZN2ux10conversion72_$LT$impl$u20$core..convert..From$LT$ux..i18$GT$$u20$for$u20$ux..i62$GT$4from17h3fb1e06d2997b7afE
ffffff00002d2950 T _ZN2ux10conversion72_$LT$impl$u20$core..convert..From$LT$ux..i18$GT$$u20$for$u20$ux..i63$GT$4from17hc994a3824b263845E
ffffff00002d2980 T _ZN2ux10conversion72_$LT$impl$u20$core..convert..From$LT$ux..i19$GT$$u20$for$u20$ux..i20$GT$4from17h86f57b8302a898beE
ffffff00002d2980 T _ZN2ux10conversion72_$LT$impl$u20$core..convert..From$LT$ux..i19$GT$$u20$for$u20$ux..i21$GT$4from17hf22ecf13bf8e7c89E
ffffff00002d2980 T _ZN2ux10conversion72_$LT$impl$u20$core..convert..From$LT$ux..i19$GT$$u20$for$u20$ux..i22$GT$4from17h680438ef31e686b6E
ffffff00002d2980 T _ZN2ux10conversion72_$LT$impl$u20$core..convert..From$LT$ux..i19$GT$$u20$for$u20$ux..i23$GT$4from17hc1fd02a0e3a165c7E
ffffff00002d2980 T _ZN2ux10conversion72_$LT$impl$u20$core..convert..From$LT$ux..i19$GT$$u20$for$u20$ux..i24$GT$4from17hcb77e0611f1dfd8cE
ffffff00002d2980 T _ZN2ux10conversion72_$LT$impl$u20$core..convert..From$LT$ux..i19$GT$$u20$for$u20$ux..i25$GT$4from17h62ce8b6056fec85dE
ffffff00002d2980 T _ZN2ux10conversion72_$LT$impl$u20$core..convert..From$LT$ux..i19$GT$$u20$for$u20$ux..i26$GT$4from17h506c9dfa00a6f5aaE
ffffff00002d2980 T _ZN2ux10conversion72_$LT$impl$u20$core..convert..From$LT$ux..i19$GT$$u20$for$u20$ux..i27$GT$4from17h5d0361c97ad2a1ecE
ffffff00002d2980 T _ZN2ux10conversion72_$LT$impl$u20$core..convert..From$LT$ux..i19$GT$$u20$for$u20$ux..i28$GT$4from17he154a52b71f60536E
ffffff00002d2980 T _ZN2ux10conversion72_$LT$impl$u20$core..convert..From$LT$ux..i19$GT$$u20$for$u20$ux..i29$GT$4from17h01154a2dd821deffE
ffffff00002d2980 T _ZN2ux10conversion72_$LT$impl$u20$core..convert..From$LT$ux..i19$GT$$u20$for$u20$ux..i30$GT$4from17he6668e6ef451ac8dE
ffffff00002d2980 T _ZN2ux10conversion72_$LT$impl$u20$core..convert..From$LT$ux..i19$GT$$u20$for$u20$ux..i31$GT$4from17hcc260013f30c2cceE
ffffff00002d2950 T _ZN2ux10conversion72_$LT$impl$u20$core..convert..From$LT$ux..i19$GT$$u20$for$u20$ux..i33$GT$4from17hfd522281bcd1bbd0E
ffffff00002d2950 T _ZN2ux10conversion72_$LT$impl$u20$core..convert..From$LT$ux..i19$GT$$u20$for$u20$ux..i34$GT$4from17h2f239c741ad3436bE
ffffff00002d2950 T _ZN2ux10conversion72_$LT$impl$u20$core..convert..From$LT$ux..i19$GT$$u20$for$u20$ux..i35$GT$4from17h2231afc3b94b4f8dE
ffffff00002d2950 T _ZN2ux10conversion72_$LT$impl$u20$core..convert..From$LT$ux..i19$GT$$u20$for$u20$ux..i36$GT$4from17h9ad4929499566e12E
ffffff00002d2950 T _ZN2ux10conversion72_$LT$impl$u20$core..convert..From$LT$ux..i19$GT$$u20$for$u20$ux..i37$GT$4from17hf964f50eb4eb1068E
ffffff00002d2950 T _ZN2ux10conversion72_$LT$impl$u20$core..convert..From$LT$ux..i19$GT$$u20$for$u20$ux..i38$GT$4from17hb9c2313f09bc323fE
ffffff00002d2950 T _ZN2ux10conversion72_$LT$impl$u20$core..convert..From$LT$ux..i19$GT$$u20$for$u20$ux..i39$GT$4from17heb0dce604003e765E
ffffff00002d2950 T _ZN2ux10conversion72_$LT$impl$u20$core..convert..From$LT$ux..i19$GT$$u20$for$u20$ux..i40$GT$4from17hf579d8f527a821d8E
ffffff00002d2950 T _ZN2ux10conversion72_$LT$impl$u20$core..convert..From$LT$ux..i19$GT$$u20$for$u20$ux..i41$GT$4from17ha24ceb42c367adf8E
ffffff00002d2950 T _ZN2ux10conversion72_$LT$impl$u20$core..convert..From$LT$ux..i19$GT$$u20$for$u20$ux..i42$GT$4from17ha71232f4110cd17fE
ffffff00002d2950 T _ZN2ux10conversion72_$LT$impl$u20$core..convert..From$LT$ux..i19$GT$$u20$for$u20$ux..i43$GT$4from17h0a6b2d3f57610df0E
ffffff00002d2950 T _ZN2ux10conversion72_$LT$impl$u20$core..convert..From$LT$ux..i19$GT$$u20$for$u20$ux..i44$GT$4from17h2db0079b04164f63E
ffffff00002d2950 T _ZN2ux10conversion72_$LT$impl$u20$core..convert..From$LT$ux..i19$GT$$u20$for$u20$ux..i45$GT$4from17h9452871ebbcf937eE
ffffff00002d2950 T _ZN2ux10conversion72_$LT$impl$u20$core..convert..From$LT$ux..i19$GT$$u20$for$u20$ux..i46$GT$4from17h4564e2bfee4fb546E
ffffff00002d2950 T _ZN2ux10conversion72_$LT$impl$u20$core..convert..From$LT$ux..i19$GT$$u20$for$u20$ux..i47$GT$4from17h1b2d8ea7f69a2563E
ffffff00002d2950 T _ZN2ux10conversion72_$LT$impl$u20$core..convert..From$LT$ux..i19$GT$$u20$for$u20$ux..i48$GT$4from17hc83fef890140cff6E
ffffff00002d2950 T _ZN2ux10conversion72_$LT$impl$u20$core..convert..From$LT$ux..i19$GT$$u20$for$u20$ux..i49$GT$4from17h1044524467ed700bE
ffffff00002d2950 T _ZN2ux10conversion72_$LT$impl$u20$core..convert..From$LT$ux..i19$GT$$u20$for$u20$ux..i50$GT$4from17h3142114654512eaaE
ffffff00002d2950 T _ZN2ux10conversion72_$LT$impl$u20$core..convert..From$LT$ux..i19$GT$$u20$for$u20$ux..i51$GT$4from17h4906a8a020af9b4eE
ffffff00002d2950 T _ZN2ux10conversion72_$LT$impl$u20$core..convert..From$LT$ux..i19$GT$$u20$for$u20$ux..i52$GT$4from17hbb7871d37bbc5c1fE
ffffff00002d2950 T _ZN2ux10conversion72_$LT$impl$u20$core..convert..From$LT$ux..i19$GT$$u20$for$u20$ux..i53$GT$4from17hdc623b049faf1b2fE
ffffff00002d2950 T _ZN2ux10conversion72_$LT$impl$u20$core..convert..From$LT$ux..i19$GT$$u20$for$u20$ux..i54$GT$4from17h9be0b0e3c356555fE
ffffff00002d2950 T _ZN2ux10conversion72_$LT$impl$u20$core..convert..From$LT$ux..i19$GT$$u20$for$u20$ux..i55$GT$4from17h21fe867d2669aeb8E
ffffff00002d2950 T _ZN2ux10conversion72_$LT$impl$u20$core..convert..From$LT$ux..i19$GT$$u20$for$u20$ux..i56$GT$4from17hf6de53fb92141a6cE
ffffff00002d2950 T _ZN2ux10conversion72_$LT$impl$u20$core..convert..From$LT$ux..i19$GT$$u20$for$u20$ux..i57$GT$4from17haa04ffff55d5a9e3E
ffffff00002d2950 T _ZN2ux10conversion72_$LT$impl$u20$core..convert..From$LT$ux..i19$GT$$u20$for$u20$ux..i58$GT$4from17h8acd3a1cd283553fE
ffffff00002d2950 T _ZN2ux10conversion72_$LT$impl$u20$core..convert..From$LT$ux..i19$GT$$u20$for$u20$ux..i59$GT$4from17h7461e3fcaf426a1fE
ffffff00002d2950 T _ZN2ux10conversion72_$LT$impl$u20$core..convert..From$LT$ux..i19$GT$$u20$for$u20$ux..i60$GT$4from17he74d7df8f4199890E
ffffff00002d2950 T _ZN2ux10conversion72_$LT$impl$u20$core..convert..From$LT$ux..i19$GT$$u20$for$u20$ux..i61$GT$4from17h195f97efb6163428E
ffffff00002d2950 T _ZN2ux10conversion72_$LT$impl$u20$core..convert..From$LT$ux..i19$GT$$u20$for$u20$ux..i62$GT$4from17hcf73cca218956406E
ffffff00002d2950 T _ZN2ux10conversion72_$LT$impl$u20$core..convert..From$LT$ux..i19$GT$$u20$for$u20$ux..i63$GT$4from17hc29dcdde24e6430dE
ffffff00002d2980 T _ZN2ux10conversion72_$LT$impl$u20$core..convert..From$LT$ux..i20$GT$$u20$for$u20$ux..i21$GT$4from17hc72a98ec2061aa54E
ffffff00002d2980 T _ZN2ux10conversion72_$LT$impl$u20$core..convert..From$LT$ux..i20$GT$$u20$for$u20$ux..i22$GT$4from17h43d41a6a5b421d2dE
ffffff00002d2980 T _ZN2ux10conversion72_$LT$impl$u20$core..convert..From$LT$ux..i20$GT$$u20$for$u20$ux..i23$GT$4from17hb43cd2f4e8558cc5E
ffffff00002d2980 T _ZN2ux10conversion72_$LT$impl$u20$core..convert..From$LT$ux..i20$GT$$u20$for$u20$ux..i24$GT$4from17hd9257949fc5607ccE
ffffff00002d2980 T _ZN2ux10conversion72_$LT$impl$u20$core..convert..From$LT$ux..i20$GT$$u20$for$u20$ux..i25$GT$4from17h3e8cc360820937a7E
ffffff00002d2980 T _ZN2ux10conversion72_$LT$impl$u20$core..convert..From$LT$ux..i20$GT$$u20$for$u20$ux..i26$GT$4from17h66b781c126a0f7d7E
ffffff00002d2980 T _ZN2ux10conversion72_$LT$impl$u20$core..convert..From$LT$ux..i20$GT$$u20$for$u20$ux..i27$GT$4from17h868b1d3a8f8bdc7bE
ffffff00002d2980 T _ZN2ux10conversion72_$LT$impl$u20$core..convert..From$LT$ux..i20$GT$$u20$for$u20$ux..i28$GT$4from17h56a544b719749fb2E
ffffff00002d2980 T _ZN2ux10conversion72_$LT$impl$u20$core..convert..From$LT$ux..i20$GT$$u20$for$u20$ux..i29$GT$4from17haaaa46ada5ecf1aeE
ffffff00002d2980 T _ZN2ux10conversion72_$LT$impl$u20$core..convert..From$LT$ux..i20$GT$$u20$for$u20$ux..i30$GT$4from17h11da2960806b2af1E
ffffff00002d2980 T _ZN2ux10conversion72_$LT$impl$u20$core..convert..From$LT$ux..i20$GT$$u20$for$u20$ux..i31$GT$4from17h2dbcca1a05473e3eE
ffffff00002d2950 T _ZN2ux10conversion72_$LT$impl$u20$core..convert..From$LT$ux..i20$GT$$u20$for$u20$ux..i33$GT$4from17h384da6f9ea219174E
ffffff00002d2950 T _ZN2ux10conversion72_$LT$impl$u20$core..convert..From$LT$ux..i20$GT$$u20$for$u20$ux..i34$GT$4from17h1ebbc23a057c42b9E
ffffff00002d2950 T _ZN2ux10conversion72_$LT$impl$u20$core..convert..From$LT$ux..i20$GT$$u20$for$u20$ux..i35$GT$4from17he047580fe415ebedE
ffffff00002d2950 T _ZN2ux10conversion72_$LT$impl$u20$core..convert..From$LT$ux..i20$GT$$u20$for$u20$ux..i36$GT$4from17h45090d95ecfd1560E
ffffff00002d2950 T _ZN2ux10conversion72_$LT$impl$u20$core..convert..From$LT$ux..i20$GT$$u20$for$u20$ux..i37$GT$4from17h6f4769bb1596969aE
ffffff00002d2950 T _ZN2ux10conversion72_$LT$impl$u20$core..convert..From$LT$ux..i20$GT$$u20$for$u20$ux..i38$GT$4from17h43064bab8cbf9012E
ffffff00002d2950 T _ZN2ux10conversion72_$LT$impl$u20$core..convert..From$LT$ux..i20$GT$$u20$for$u20$ux..i39$GT$4from17h05cd403a39d1f650E
ffffff00002d2950 T _ZN2ux10conversion72_$LT$impl$u20$core..convert..From$LT$ux..i20$GT$$u20$for$u20$ux..i40$GT$4from17he9e9f49e3252a705E
ffffff00002d2950 T _ZN2ux10conversion72_$LT$impl$u20$core..convert..From$LT$ux..i20$GT$$u20$for$u20$ux..i41$GT$4from17hb710ffa2c7d970bdE
ffffff00002d2950 T _ZN2ux10conversion72_$LT$impl$u20$core..convert..From$LT$ux..i20$GT$$u20$for$u20$ux..i42$GT$4from17hb551ab95ad432988E
ffffff00002d2950 T _ZN2ux10conversion72_$LT$impl$u20$core..convert..From$LT$ux..i20$GT$$u20$for$u20$ux..i43$GT$4from17h73c00e2eebaf92fdE
ffffff00002d2950 T _ZN2ux10conversion72_$LT$impl$u20$core..convert..From$LT$ux..i20$GT$$u20$for$u20$ux..i44$GT$4from17h214aca08e88aff4bE
ffffff00002d2950 T _ZN2ux10conversion72_$LT$impl$u20$core..convert..From$LT$ux..i20$GT$$u20$for$u20$ux..i45$GT$4from17h9c3e592212402a3bE
ffffff00002d2950 T _ZN2ux10conversion72_$LT$impl$u20$core..convert..From$LT$ux..i20$GT$$u20$for$u20$ux..i46$GT$4from17he0ce8aca5c849b3cE
ffffff00002d2950 T _ZN2ux10conversion72_$LT$impl$u20$core..convert..From$LT$ux..i20$GT$$u20$for$u20$ux..i47$GT$4from17h39359a070540d0f6E
ffffff00002d2950 T _ZN2ux10conversion72_$LT$impl$u20$core..convert..From$LT$ux..i20$GT$$u20$for$u20$ux..i48$GT$4from17hc4ecbfcc60f87a28E
ffffff00002d2950 T _ZN2ux10conversion72_$LT$impl$u20$core..convert..From$LT$ux..i20$GT$$u20$for$u20$ux..i49$GT$4from17hfa4286c4821af3e6E
ffffff00002d2950 T _ZN2ux10conversion72_$LT$impl$u20$core..convert..From$LT$ux..i20$GT$$u20$for$u20$ux..i50$GT$4from17hce8d9d5247590f82E
ffffff00002d2950 T _ZN2ux10conversion72_$LT$impl$u20$core..convert..From$LT$ux..i20$GT$$u20$for$u20$ux..i51$GT$4from17h258e5033c864eaf9E
ffffff00002d2950 T _ZN2ux10conversion72_$LT$impl$u20$core..convert..From$LT$ux..i20$GT$$u20$for$u20$ux..i52$GT$4from17h310932594f4a6cf3E
ffffff00002d2950 T _ZN2ux10conversion72_$LT$impl$u20$core..convert..From$LT$ux..i20$GT$$u20$for$u20$ux..i53$GT$4from17h5cc27082b1344939E
ffffff00002d2950 T _ZN2ux10conversion72_$LT$impl$u20$core..convert..From$LT$ux..i20$GT$$u20$for$u20$ux..i54$GT$4from17h38542baf403a36dcE
ffffff00002d2950 T _ZN2ux10conversion72_$LT$impl$u20$core..convert..From$LT$ux..i20$GT$$u20$for$u20$ux..i55$GT$4from17h8ac1a2b8700eb3afE
ffffff00002d2950 T _ZN2ux10conversion72_$LT$impl$u20$core..convert..From$LT$ux..i20$GT$$u20$for$u20$ux..i56$GT$4from17hd1a6c55f94891b29E
ffffff00002d2950 T _ZN2ux10conversion72_$LT$impl$u20$core..convert..From$LT$ux..i20$GT$$u20$for$u20$ux..i57$GT$4from17hec53d60bc280c3d7E
ffffff00002d2950 T _ZN2ux10conversion72_$LT$impl$u20$core..convert..From$LT$ux..i20$GT$$u20$for$u20$ux..i58$GT$4from17h12c9c1f6e65682a0E
ffffff00002d2950 T _ZN2ux10conversion72_$LT$impl$u20$core..convert..From$LT$ux..i20$GT$$u20$for$u20$ux..i59$GT$4from17h45c4c785f19a72caE
ffffff00002d2950 T _ZN2ux10conversion72_$LT$impl$u20$core..convert..From$LT$ux..i20$GT$$u20$for$u20$ux..i60$GT$4from17h942dbdf069958897E
ffffff00002d2950 T _ZN2ux10conversion72_$LT$impl$u20$core..convert..From$LT$ux..i20$GT$$u20$for$u20$ux..i61$GT$4from17hc8d0a0f5948c74e5E
ffffff00002d2950 T _ZN2ux10conversion72_$LT$impl$u20$core..convert..From$LT$ux..i20$GT$$u20$for$u20$ux..i62$GT$4from17hde77f4324463904fE
ffffff00002d2950 T _ZN2ux10conversion72_$LT$impl$u20$core..convert..From$LT$ux..i20$GT$$u20$for$u20$ux..i63$GT$4from17hb9cbf02e9bc65d6cE
ffffff00002d2980 T _ZN2ux10conversion72_$LT$impl$u20$core..convert..From$LT$ux..i21$GT$$u20$for$u20$ux..i22$GT$4from17h52a33ac1c0e3ff3dE
ffffff00002d2980 T _ZN2ux10conversion72_$LT$impl$u20$core..convert..From$LT$ux..i21$GT$$u20$for$u20$ux..i23$GT$4from17hf567745de1fb5b07E
ffffff00002d2980 T _ZN2ux10conversion72_$LT$impl$u20$core..convert..From$LT$ux..i21$GT$$u20$for$u20$ux..i24$GT$4from17hf227fe6f085a287fE
ffffff00002d2980 T _ZN2ux10conversion72_$LT$impl$u20$core..convert..From$LT$ux..i21$GT$$u20$for$u20$ux..i25$GT$4from17hca24c6435e55a103E
ffffff00002d2980 T _ZN2ux10conversion72_$LT$impl$u20$core..convert..From$LT$ux..i21$GT$$u20$for$u20$ux..i26$GT$4from17h6cb08fdc545d540cE
ffffff00002d2980 T _ZN2ux10conversion72_$LT$impl$u20$core..convert..From$LT$ux..i21$GT$$u20$for$u20$ux..i27$GT$4from17hf006aa0ab083ef9dE
ffffff00002d2980 T _ZN2ux10conversion72_$LT$impl$u20$core..convert..From$LT$ux..i21$GT$$u20$for$u20$ux..i28$GT$4from17h5155582a3c838c8aE
ffffff00002d2980 T _ZN2ux10conversion72_$LT$impl$u20$core..convert..From$LT$ux..i21$GT$$u20$for$u20$ux..i29$GT$4from17h857dd7060ea4b223E
ffffff00002d2980 T _ZN2ux10conversion72_$LT$impl$u20$core..convert..From$LT$ux..i21$GT$$u20$for$u20$ux..i30$GT$4from17h8fc03177bf590960E
ffffff00002d2980 T _ZN2ux10conversion72_$LT$impl$u20$core..convert..From$LT$ux..i21$GT$$u20$for$u20$ux..i31$GT$4from17he4ba6275747f5ed8E
ffffff00002d2950 T _ZN2ux10conversion72_$LT$impl$u20$core..convert..From$LT$ux..i21$GT$$u20$for$u20$ux..i33$GT$4from17h2fa9569eb6e429a7E
ffffff00002d2950 T _ZN2ux10conversion72_$LT$impl$u20$core..convert..From$LT$ux..i21$GT$$u20$for$u20$ux..i34$GT$4from17h7340bdc571a64915E
ffffff00002d2950 T _ZN2ux10conversion72_$LT$impl$u20$core..convert..From$LT$ux..i21$GT$$u20$for$u20$ux..i35$GT$4from17h0e6752ff54fef64cE
ffffff00002d2950 T _ZN2ux10conversion72_$LT$impl$u20$core..convert..From$LT$ux..i21$GT$$u20$for$u20$ux..i36$GT$4from17h2698415f19a690c0E
ffffff00002d2950 T _ZN2ux10conversion72_$LT$impl$u20$core..convert..From$LT$ux..i21$GT$$u20$for$u20$ux..i37$GT$4from17hd14d80f0f737477bE
ffffff00002d2950 T _ZN2ux10conversion72_$LT$impl$u20$core..convert..From$LT$ux..i21$GT$$u20$for$u20$ux..i38$GT$4from17h13226922326f4ae9E
ffffff00002d2950 T _ZN2ux10conversion72_$LT$impl$u20$core..convert..From$LT$ux..i21$GT$$u20$for$u20$ux..i39$GT$4from17hbc072ec7243238a3E
ffffff00002d2950 T _ZN2ux10conversion72_$LT$impl$u20$core..convert..From$LT$ux..i21$GT$$u20$for$u20$ux..i40$GT$4from17hca9ba05856ccb452E
ffffff00002d2950 T _ZN2ux10conversion72_$LT$impl$u20$core..convert..From$LT$ux..i21$GT$$u20$for$u20$ux..i41$GT$4from17haba92c77ab7491d7E
ffffff00002d2950 T _ZN2ux10conversion72_$LT$impl$u20$core..convert..From$LT$ux..i21$GT$$u20$for$u20$ux..i42$GT$4from17h6eca72bccc8fd96aE
ffffff00002d2950 T _ZN2ux10conversion72_$LT$impl$u20$core..convert..From$LT$ux..i21$GT$$u20$for$u20$ux..i43$GT$4from17hcda506d64e673fb9E
ffffff00002d2950 T _ZN2ux10conversion72_$LT$impl$u20$core..convert..From$LT$ux..i21$GT$$u20$for$u20$ux..i44$GT$4from17hf35dd3862eea0b5aE
ffffff00002d2950 T _ZN2ux10conversion72_$LT$impl$u20$core..convert..From$LT$ux..i21$GT$$u20$for$u20$ux..i45$GT$4from17hde8fd1c71a4d443fE
ffffff00002d2950 T _ZN2ux10conversion72_$LT$impl$u20$core..convert..From$LT$ux..i21$GT$$u20$for$u20$ux..i46$GT$4from17hca78e1b05531afcfE
ffffff00002d2950 T _ZN2ux10conversion72_$LT$impl$u20$core..convert..From$LT$ux..i21$GT$$u20$for$u20$ux..i47$GT$4from17h9874245730031aa3E
ffffff00002d2950 T _ZN2ux10conversion72_$LT$impl$u20$core..convert..From$LT$ux..i21$GT$$u20$for$u20$ux..i48$GT$4from17hc0a26c457ff108f8E
ffffff00002d2950 T _ZN2ux10conversion72_$LT$impl$u20$core..convert..From$LT$ux..i21$GT$$u20$for$u20$ux..i49$GT$4from17h2a33fc4a42aaebaaE
ffffff00002d2950 T _ZN2ux10conversion72_$LT$impl$u20$core..convert..From$LT$ux..i21$GT$$u20$for$u20$ux..i50$GT$4from17h162cedbd667eb5e1E
ffffff00002d2950 T _ZN2ux10conversion72_$LT$impl$u20$core..convert..From$LT$ux..i21$GT$$u20$for$u20$ux..i51$GT$4from17h48063195a9a42188E
ffffff00002d2950 T _ZN2ux10conversion72_$LT$impl$u20$core..convert..From$LT$ux..i21$GT$$u20$for$u20$ux..i52$GT$4from17h95b94efd220f7f23E
ffffff00002d2950 T _ZN2ux10conversion72_$LT$impl$u20$core..convert..From$LT$ux..i21$GT$$u20$for$u20$ux..i53$GT$4from17hca81c35103d754eaE
ffffff00002d2950 T _ZN2ux10conversion72_$LT$impl$u20$core..convert..From$LT$ux..i21$GT$$u20$for$u20$ux..i54$GT$4from17heac7fc25d2f9eb8cE
ffffff00002d2950 T _ZN2ux10conversion72_$LT$impl$u20$core..convert..From$LT$ux..i21$GT$$u20$for$u20$ux..i55$GT$4from17hf135a2875c495376E
ffffff00002d2950 T _ZN2ux10conversion72_$LT$impl$u20$core..convert..From$LT$ux..i21$GT$$u20$for$u20$ux..i56$GT$4from17ha9bc620c6df7c6aaE
ffffff00002d2950 T _ZN2ux10conversion72_$LT$impl$u20$core..convert..From$LT$ux..i21$GT$$u20$for$u20$ux..i57$GT$4from17h7b8ecc2d8c333098E
ffffff00002d2950 T _ZN2ux10conversion72_$LT$impl$u20$core..convert..From$LT$ux..i21$GT$$u20$for$u20$ux..i58$GT$4from17he4b77d03e469b82bE
ffffff00002d2950 T _ZN2ux10conversion72_$LT$impl$u20$core..convert..From$LT$ux..i21$GT$$u20$for$u20$ux..i59$GT$4from17hb223eeba580e0182E
ffffff00002d2950 T _ZN2ux10conversion72_$LT$impl$u20$core..convert..From$LT$ux..i21$GT$$u20$for$u20$ux..i60$GT$4from17h2b1dc1c35fad9032E
ffffff00002d2950 T _ZN2ux10conversion72_$LT$impl$u20$core..convert..From$LT$ux..i21$GT$$u20$for$u20$ux..i61$GT$4from17h100d299ba159d9a3E
ffffff00002d2950 T _ZN2ux10conversion72_$LT$impl$u20$core..convert..From$LT$ux..i21$GT$$u20$for$u20$ux..i62$GT$4from17h9c3323bfefbddf8dE
ffffff00002d2950 T _ZN2ux10conversion72_$LT$impl$u20$core..convert..From$LT$ux..i21$GT$$u20$for$u20$ux..i63$GT$4from17hbe95ac9178a1ff00E
ffffff00002d2980 T _ZN2ux10conversion72_$LT$impl$u20$core..convert..From$LT$ux..i22$GT$$u20$for$u20$ux..i23$GT$4from17h65d18d530e180cbbE
ffffff00002d2980 T _ZN2ux10conversion72_$LT$impl$u20$core..convert..From$LT$ux..i22$GT$$u20$for$u20$ux..i24$GT$4from17h49462e21932c31dcE
ffffff00002d2980 T _ZN2ux10conversion72_$LT$impl$u20$core..convert..From$LT$ux..i22$GT$$u20$for$u20$ux..i25$GT$4from17h552e47eb2ab5a7d5E
ffffff00002d2980 T _ZN2ux10conversion72_$LT$impl$u20$core..convert..From$LT$ux..i22$GT$$u20$for$u20$ux..i26$GT$4from17h53f47d298f1f1942E
ffffff00002d2980 T _ZN2ux10conversion72_$LT$impl$u20$core..convert..From$LT$ux..i22$GT$$u20$for$u20$ux..i27$GT$4from17hd1813aff6a03c1f2E
ffffff00002d2980 T _ZN2ux10conversion72_$LT$impl$u20$core..convert..From$LT$ux..i22$GT$$u20$for$u20$ux..i28$GT$4from17h425b0e673880f6e4E
ffffff00002d2980 T _ZN2ux10conversion72_$LT$impl$u20$core..convert..From$LT$ux..i22$GT$$u20$for$u20$ux..i29$GT$4from17h6179a62015fac31bE
ffffff00002d2980 T _ZN2ux10conversion72_$LT$impl$u20$core..convert..From$LT$ux..i22$GT$$u20$for$u20$ux..i30$GT$4from17hcee97f4c056ed689E
ffffff00002d2980 T _ZN2ux10conversion72_$LT$impl$u20$core..convert..From$LT$ux..i22$GT$$u20$for$u20$ux..i31$GT$4from17h509fc6f7173bdd3bE
ffffff00002d2950 T _ZN2ux10conversion72_$LT$impl$u20$core..convert..From$LT$ux..i22$GT$$u20$for$u20$ux..i33$GT$4from17hfaad456f1f8cc06bE
ffffff00002d2950 T _ZN2ux10conversion72_$LT$impl$u20$core..convert..From$LT$ux..i22$GT$$u20$for$u20$ux..i34$GT$4from17hbee09f53af9f75f2E
ffffff00002d2950 T _ZN2ux10conversion72_$LT$impl$u20$core..convert..From$LT$ux..i22$GT$$u20$for$u20$ux..i35$GT$4from17hbe7a80f778e6893aE
ffffff00002d2950 T _ZN2ux10conversion72_$LT$impl$u20$core..convert..From$LT$ux..i22$GT$$u20$for$u20$ux..i36$GT$4from17h7281e2583a083f9bE
ffffff00002d2950 T _ZN2ux10conversion72_$LT$impl$u20$core..convert..From$LT$ux..i22$GT$$u20$for$u20$ux..i37$GT$4from17hd7c222de87319f6fE
ffffff00002d2950 T _ZN2ux10conversion72_$LT$impl$u20$core..convert..From$LT$ux..i22$GT$$u20$for$u20$ux..i38$GT$4from17hf17e8c94ad6b7c84E
ffffff00002d2950 T _ZN2ux10conversion72_$LT$impl$u20$core..convert..From$LT$ux..i22$GT$$u20$for$u20$ux..i39$GT$4from17h6ba972f394e3e30dE
ffffff00002d2950 T _ZN2ux10conversion72_$LT$impl$u20$core..convert..From$LT$ux..i22$GT$$u20$for$u20$ux..i40$GT$4from17h4611d56857905752E
ffffff00002d2950 T _ZN2ux10conversion72_$LT$impl$u20$core..convert..From$LT$ux..i22$GT$$u20$for$u20$ux..i41$GT$4from17h362f887968946c6cE
ffffff00002d2950 T _ZN2ux10conversion72_$LT$impl$u20$core..convert..From$LT$ux..i22$GT$$u20$for$u20$ux..i42$GT$4from17h1af5613e2d940fdeE
ffffff00002d2950 T _ZN2ux10conversion72_$LT$impl$u20$core..convert..From$LT$ux..i22$GT$$u20$for$u20$ux..i43$GT$4from17hfab75ee52a435538E
ffffff00002d2950 T _ZN2ux10conversion72_$LT$impl$u20$core..convert..From$LT$ux..i22$GT$$u20$for$u20$ux..i44$GT$4from17h822271c2def9b692E
ffffff00002d2950 T _ZN2ux10conversion72_$LT$impl$u20$core..convert..From$LT$ux..i22$GT$$u20$for$u20$ux..i45$GT$4from17h7f74125db18a034fE
ffffff00002d2950 T _ZN2ux10conversion72_$LT$impl$u20$core..convert..From$LT$ux..i22$GT$$u20$for$u20$ux..i46$GT$4from17h25851a3b32790299E
ffffff00002d2950 T _ZN2ux10conversion72_$LT$impl$u20$core..convert..From$LT$ux..i22$GT$$u20$for$u20$ux..i47$GT$4from17h639737b2e3963d91E
ffffff00002d2950 T _ZN2ux10conversion72_$LT$impl$u20$core..convert..From$LT$ux..i22$GT$$u20$for$u20$ux..i48$GT$4from17h661dec381dcfef10E
ffffff00002d2950 T _ZN2ux10conversion72_$LT$impl$u20$core..convert..From$LT$ux..i22$GT$$u20$for$u20$ux..i49$GT$4from17h2a5a7cbe76e97914E
ffffff00002d2950 T _ZN2ux10conversion72_$LT$impl$u20$core..convert..From$LT$ux..i22$GT$$u20$for$u20$ux..i50$GT$4from17h110abf8fa24aea3bE
ffffff00002d2950 T _ZN2ux10conversion72_$LT$impl$u20$core..convert..From$LT$ux..i22$GT$$u20$for$u20$ux..i51$GT$4from17h8e27b9c29be1bd97E
ffffff00002d2950 T _ZN2ux10conversion72_$LT$impl$u20$core..convert..From$LT$ux..i22$GT$$u20$for$u20$ux..i52$GT$4from17hc0056730df37724bE
ffffff00002d2950 T _ZN2ux10conversion72_$LT$impl$u20$core..convert..From$LT$ux..i22$GT$$u20$for$u20$ux..i53$GT$4from17h3a6ddf4443cb7fb1E
ffffff00002d2950 T _ZN2ux10conversion72_$LT$impl$u20$core..convert..From$LT$ux..i22$GT$$u20$for$u20$ux..i54$GT$4from17hf6400ead9b9fd221E
ffffff00002d2950 T _ZN2ux10conversion72_$LT$impl$u20$core..convert..From$LT$ux..i22$GT$$u20$for$u20$ux..i55$GT$4from17hd5db957ab45ffaf5E
ffffff00002d2950 T _ZN2ux10conversion72_$LT$impl$u20$core..convert..From$LT$ux..i22$GT$$u20$for$u20$ux..i56$GT$4from17h33493012cbc9885cE
ffffff00002d2950 T _ZN2ux10conversion72_$LT$impl$u20$core..convert..From$LT$ux..i22$GT$$u20$for$u20$ux..i57$GT$4from17h57ffd7500ea1287fE
ffffff00002d2950 T _ZN2ux10conversion72_$LT$impl$u20$core..convert..From$LT$ux..i22$GT$$u20$for$u20$ux..i58$GT$4from17h7bd276dbc407fc99E
ffffff00002d2950 T _ZN2ux10conversion72_$LT$impl$u20$core..convert..From$LT$ux..i22$GT$$u20$for$u20$ux..i59$GT$4from17hdb76a78da10a9a00E
ffffff00002d2950 T _ZN2ux10conversion72_$LT$impl$u20$core..convert..From$LT$ux..i22$GT$$u20$for$u20$ux..i60$GT$4from17h86c3cff709f4846fE
ffffff00002d2950 T _ZN2ux10conversion72_$LT$impl$u20$core..convert..From$LT$ux..i22$GT$$u20$for$u20$ux..i61$GT$4from17h3ce21147da1dcd3dE
ffffff00002d2950 T _ZN2ux10conversion72_$LT$impl$u20$core..convert..From$LT$ux..i22$GT$$u20$for$u20$ux..i62$GT$4from17hfd40c1e080a2f04eE
ffffff00002d2950 T _ZN2ux10conversion72_$LT$impl$u20$core..convert..From$LT$ux..i22$GT$$u20$for$u20$ux..i63$GT$4from17h2362d0e8f7b6e18bE
ffffff00002d2980 T _ZN2ux10conversion72_$LT$impl$u20$core..convert..From$LT$ux..i23$GT$$u20$for$u20$ux..i24$GT$4from17hc678f8583d01e4f1E
ffffff00002d2980 T _ZN2ux10conversion72_$LT$impl$u20$core..convert..From$LT$ux..i23$GT$$u20$for$u20$ux..i25$GT$4from17h47e6e61cf125f4f8E
ffffff00002d2980 T _ZN2ux10conversion72_$LT$impl$u20$core..convert..From$LT$ux..i23$GT$$u20$for$u20$ux..i26$GT$4from17hae5a5ddc7282105cE
ffffff00002d2980 T _ZN2ux10conversion72_$LT$impl$u20$core..convert..From$LT$ux..i23$GT$$u20$for$u20$ux..i27$GT$4from17hc6927664d4129694E
ffffff00002d2980 T _ZN2ux10conversion72_$LT$impl$u20$core..convert..From$LT$ux..i23$GT$$u20$for$u20$ux..i28$GT$4from17he35c72b3d2ce9b6cE
ffffff00002d2980 T _ZN2ux10conversion72_$LT$impl$u20$core..convert..From$LT$ux..i23$GT$$u20$for$u20$ux..i29$GT$4from17h83a06525570b3c60E
ffffff00002d2980 T _ZN2ux10conversion72_$LT$impl$u20$core..convert..From$LT$ux..i23$GT$$u20$for$u20$ux..i30$GT$4from17h33bccdec4d120464E
ffffff00002d2980 T _ZN2ux10conversion72_$LT$impl$u20$core..convert..From$LT$ux..i23$GT$$u20$for$u20$ux..i31$GT$4from17hf43eaf7ada16f724E
ffffff00002d2950 T _ZN2ux10conversion72_$LT$impl$u20$core..convert..From$LT$ux..i23$GT$$u20$for$u20$ux..i33$GT$4from17h6ea3c46596eec40dE
ffffff00002d2950 T _ZN2ux10conversion72_$LT$impl$u20$core..convert..From$LT$ux..i23$GT$$u20$for$u20$ux..i34$GT$4from17h2e61ba08321b76abE
ffffff00002d2950 T _ZN2ux10conversion72_$LT$impl$u20$core..convert..From$LT$ux..i23$GT$$u20$for$u20$ux..i35$GT$4from17h132c35685f5b30e8E
ffffff00002d2950 T _ZN2ux10conversion72_$LT$impl$u20$core..convert..From$LT$ux..i23$GT$$u20$for$u20$ux..i36$GT$4from17hb2e9ca312b8885bdE
ffffff00002d2950 T _ZN2ux10conversion72_$LT$impl$u20$core..convert..From$LT$ux..i23$GT$$u20$for$u20$ux..i37$GT$4from17h79a32619b5374d9eE
ffffff00002d2950 T _ZN2ux10conversion72_$LT$impl$u20$core..convert..From$LT$ux..i23$GT$$u20$for$u20$ux..i38$GT$4from17h7ab3dfa6273607ccE
ffffff00002d2950 T _ZN2ux10conversion72_$LT$impl$u20$core..convert..From$LT$ux..i23$GT$$u20$for$u20$ux..i39$GT$4from17h87f6f14a93a73aa1E
ffffff00002d2950 T _ZN2ux10conversion72_$LT$impl$u20$core..convert..From$LT$ux..i23$GT$$u20$for$u20$ux..i40$GT$4from17h33b795efed2edc0dE
ffffff00002d2950 T _ZN2ux10conversion72_$LT$impl$u20$core..convert..From$LT$ux..i23$GT$$u20$for$u20$ux..i41$GT$4from17h4d238e0721fcd7faE
ffffff00002d2950 T _ZN2ux10conversion72_$LT$impl$u20$core..convert..From$LT$ux..i23$GT$$u20$for$u20$ux..i42$GT$4from17h209595d0d2373d94E
ffffff00002d2950 T _ZN2ux10conversion72_$LT$impl$u20$core..convert..From$LT$ux..i23$GT$$u20$for$u20$ux..i43$GT$4from17h3376aae85e17db54E
ffffff00002d2950 T _ZN2ux10conversion72_$LT$impl$u20$core..convert..From$LT$ux..i23$GT$$u20$for$u20$ux..i44$GT$4from17h10b65a217b3644d6E
ffffff00002d2950 T _ZN2ux10conversion72_$LT$impl$u20$core..convert..From$LT$ux..i23$GT$$u20$for$u20$ux..i45$GT$4from17h170f1370c2e28711E
ffffff00002d2950 T _ZN2ux10conversion72_$LT$impl$u20$core..convert..From$LT$ux..i23$GT$$u20$for$u20$ux..i46$GT$4from17h05c5b68ac030d01eE
ffffff00002d2950 T _ZN2ux10conversion72_$LT$impl$u20$core..convert..From$LT$ux..i23$GT$$u20$for$u20$ux..i47$GT$4from17h94029c1b9bc9843cE
ffffff00002d2950 T _ZN2ux10conversion72_$LT$impl$u20$core..convert..From$LT$ux..i23$GT$$u20$for$u20$ux..i48$GT$4from17h49242c309f607789E
ffffff00002d2950 T _ZN2ux10conversion72_$LT$impl$u20$core..convert..From$LT$ux..i23$GT$$u20$for$u20$ux..i49$GT$4from17h0bccb3ab08c489bfE
ffffff00002d2950 T _ZN2ux10conversion72_$LT$impl$u20$core..convert..From$LT$ux..i23$GT$$u20$for$u20$ux..i50$GT$4from17h183e24b479dd0c62E
ffffff00002d2950 T _ZN2ux10conversion72_$LT$impl$u20$core..convert..From$LT$ux..i23$GT$$u20$for$u20$ux..i51$GT$4from17h19b13f0b03b5bdcaE
ffffff00002d2950 T _ZN2ux10conversion72_$LT$impl$u20$core..convert..From$LT$ux..i23$GT$$u20$for$u20$ux..i52$GT$4from17hdb3f8cb184a2e294E
ffffff00002d2950 T _ZN2ux10conversion72_$LT$impl$u20$core..convert..From$LT$ux..i23$GT$$u20$for$u20$ux..i53$GT$4from17h8c6e78e9c11d6021E
ffffff00002d2950 T _ZN2ux10conversion72_$LT$impl$u20$core..convert..From$LT$ux..i23$GT$$u20$for$u20$ux..i54$GT$4from17hcec77c63a2a22bdbE
ffffff00002d2950 T _ZN2ux10conversion72_$LT$impl$u20$core..convert..From$LT$ux..i23$GT$$u20$for$u20$ux..i55$GT$4from17h8bf894081a2d0491E
ffffff00002d2950 T _ZN2ux10conversion72_$LT$impl$u20$core..convert..From$LT$ux..i23$GT$$u20$for$u20$ux..i56$GT$4from17h1b6aa9990362f4d3E
ffffff00002d2950 T _ZN2ux10conversion72_$LT$impl$u20$core..convert..From$LT$ux..i23$GT$$u20$for$u20$ux..i57$GT$4from17h4864117e30b2671aE
ffffff00002d2950 T _ZN2ux10conversion72_$LT$impl$u20$core..convert..From$LT$ux..i23$GT$$u20$for$u20$ux..i58$GT$4from17h4d7e285d58253f32E
ffffff00002d2950 T _ZN2ux10conversion72_$LT$impl$u20$core..convert..From$LT$ux..i23$GT$$u20$for$u20$ux..i59$GT$4from17h96fc0d74802b4868E
ffffff00002d2950 T _ZN2ux10conversion72_$LT$impl$u20$core..convert..From$LT$ux..i23$GT$$u20$for$u20$ux..i60$GT$4from17hd1de111536b3ad48E
ffffff00002d2950 T _ZN2ux10conversion72_$LT$impl$u20$core..convert..From$LT$ux..i23$GT$$u20$for$u20$ux..i61$GT$4from17h095a3ac90ac4d6d6E
ffffff00002d2950 T _ZN2ux10conversion72_$LT$impl$u20$core..convert..From$LT$ux..i23$GT$$u20$for$u20$ux..i62$GT$4from17h5efd11c03feebcd5E
ffffff00002d2950 T _ZN2ux10conversion72_$LT$impl$u20$core..convert..From$LT$ux..i23$GT$$u20$for$u20$ux..i63$GT$4from17h296e85dc91e5b406E
ffffff00002d2980 T _ZN2ux10conversion72_$LT$impl$u20$core..convert..From$LT$ux..i24$GT$$u20$for$u20$ux..i25$GT$4from17ha889b26fc44054eeE
ffffff00002d2980 T _ZN2ux10conversion72_$LT$impl$u20$core..convert..From$LT$ux..i24$GT$$u20$for$u20$ux..i26$GT$4from17he98730db3ecd093cE
ffffff00002d2980 T _ZN2ux10conversion72_$LT$impl$u20$core..convert..From$LT$ux..i24$GT$$u20$for$u20$ux..i27$GT$4from17hc8568d6164b6756dE
ffffff00002d2980 T _ZN2ux10conversion72_$LT$impl$u20$core..convert..From$LT$ux..i24$GT$$u20$for$u20$ux..i28$GT$4from17hbe8c6fbd962d81dfE
ffffff00002d2980 T _ZN2ux10conversion72_$LT$impl$u20$core..convert..From$LT$ux..i24$GT$$u20$for$u20$ux..i29$GT$4from17h081aab8e89ff83e2E
ffffff00002d2980 T _ZN2ux10conversion72_$LT$impl$u20$core..convert..From$LT$ux..i24$GT$$u20$for$u20$ux..i30$GT$4from17h4944c32ba18070fbE
ffffff00002d2980 T _ZN2ux10conversion72_$LT$impl$u20$core..convert..From$LT$ux..i24$GT$$u20$for$u20$ux..i31$GT$4from17h8c29f0c724da870eE
ffffff00002d2950 T _ZN2ux10conversion72_$LT$impl$u20$core..convert..From$LT$ux..i24$GT$$u20$for$u20$ux..i33$GT$4from17hefc180052e3e26a7E
ffffff00002d2950 T _ZN2ux10conversion72_$LT$impl$u20$core..convert..From$LT$ux..i24$GT$$u20$for$u20$ux..i34$GT$4from17h0c9bfd485f44f238E
ffffff00002d2950 T _ZN2ux10conversion72_$LT$impl$u20$core..convert..From$LT$ux..i24$GT$$u20$for$u20$ux..i35$GT$4from17h265e00994fd95590E
ffffff00002d2950 T _ZN2ux10conversion72_$LT$impl$u20$core..convert..From$LT$ux..i24$GT$$u20$for$u20$ux..i36$GT$4from17ha6a469fe14ed5213E
ffffff00002d2950 T _ZN2ux10conversion72_$LT$impl$u20$core..convert..From$LT$ux..i24$GT$$u20$for$u20$ux..i37$GT$4from17h3a9e8efe7f5ee592E
ffffff00002d2950 T _ZN2ux10conversion72_$LT$impl$u20$core..convert..From$LT$ux..i24$GT$$u20$for$u20$ux..i38$GT$4from17h9310fc751506f755E
ffffff00002d2950 T _ZN2ux10conversion72_$LT$impl$u20$core..convert..From$LT$ux..i24$GT$$u20$for$u20$ux..i39$GT$4from17he9e8702c69141362E
ffffff00002d2950 T _ZN2ux10conversion72_$LT$impl$u20$core..convert..From$LT$ux..i24$GT$$u20$for$u20$ux..i40$GT$4from17h1c67a8a50bd6513eE
ffffff00002d2950 T _ZN2ux10conversion72_$LT$impl$u20$core..convert..From$LT$ux..i24$GT$$u20$for$u20$ux..i41$GT$4from17h3c8756033d63165dE
ffffff00002d2950 T _ZN2ux10conversion72_$LT$impl$u20$core..convert..From$LT$ux..i24$GT$$u20$for$u20$ux..i42$GT$4from17h63645deeaf33a076E
ffffff00002d2950 T _ZN2ux10conversion72_$LT$impl$u20$core..convert..From$LT$ux..i24$GT$$u20$for$u20$ux..i43$GT$4from17hc719b32ca77e4d36E
ffffff00002d2950 T _ZN2ux10conversion72_$LT$impl$u20$core..convert..From$LT$ux..i24$GT$$u20$for$u20$ux..i44$GT$4from17h1c21dad0dd9e00dbE
ffffff00002d2950 T _ZN2ux10conversion72_$LT$impl$u20$core..convert..From$LT$ux..i24$GT$$u20$for$u20$ux..i45$GT$4from17h7f75c32d9b7b43e2E
ffffff00002d2950 T _ZN2ux10conversion72_$LT$impl$u20$core..convert..From$LT$ux..i24$GT$$u20$for$u20$ux..i46$GT$4from17h2b058260c72894b8E
ffffff00002d2950 T _ZN2ux10conversion72_$LT$impl$u20$core..convert..From$LT$ux..i24$GT$$u20$for$u20$ux..i47$GT$4from17h0472356b90b7bc8eE
ffffff00002d2950 T _ZN2ux10conversion72_$LT$impl$u20$core..convert..From$LT$ux..i24$GT$$u20$for$u20$ux..i48$GT$4from17h77859b6dbd63d1adE
ffffff00002d2950 T _ZN2ux10conversion72_$LT$impl$u20$core..convert..From$LT$ux..i24$GT$$u20$for$u20$ux..i49$GT$4from17h2f57edcc10e93d6eE
ffffff00002d2950 T _ZN2ux10conversion72_$LT$impl$u20$core..convert..From$LT$ux..i24$GT$$u20$for$u20$ux..i50$GT$4from17hdc3404f01cd8d70bE
ffffff00002d2950 T _ZN2ux10conversion72_$LT$impl$u20$core..convert..From$LT$ux..i24$GT$$u20$for$u20$ux..i51$GT$4from17h6ce1903574d6eb7eE
ffffff00002d2950 T _ZN2ux10conversion72_$LT$impl$u20$core..convert..From$LT$ux..i24$GT$$u20$for$u20$ux..i52$GT$4from17h355cf895a68b0048E
ffffff00002d2950 T _ZN2ux10conversion72_$LT$impl$u20$core..convert..From$LT$ux..i24$GT$$u20$for$u20$ux..i53$GT$4from17hcaf2d64fd12c3ab6E
ffffff00002d2950 T _ZN2ux10conversion72_$LT$impl$u20$core..convert..From$LT$ux..i24$GT$$u20$for$u20$ux..i54$GT$4from17h81602b862a9b1d2bE
ffffff00002d2950 T _ZN2ux10conversion72_$LT$impl$u20$core..convert..From$LT$ux..i24$GT$$u20$for$u20$ux..i55$GT$4from17h370c3d7613ef8e67E
ffffff00002d2950 T _ZN2ux10conversion72_$LT$impl$u20$core..convert..From$LT$ux..i24$GT$$u20$for$u20$ux..i56$GT$4from17h272bed85bfa1b36aE
ffffff00002d2950 T _ZN2ux10conversion72_$LT$impl$u20$core..convert..From$LT$ux..i24$GT$$u20$for$u20$ux..i57$GT$4from17h187d6bccbfc90caaE
ffffff00002d2950 T _ZN2ux10conversion72_$LT$impl$u20$core..convert..From$LT$ux..i24$GT$$u20$for$u20$ux..i58$GT$4from17h45ed1c809bdbd80fE
ffffff00002d2950 T _ZN2ux10conversion72_$LT$impl$u20$core..convert..From$LT$ux..i24$GT$$u20$for$u20$ux..i59$GT$4from17hfb1352f39e235815E
ffffff00002d2950 T _ZN2ux10conversion72_$LT$impl$u20$core..convert..From$LT$ux..i24$GT$$u20$for$u20$ux..i60$GT$4from17hf7ec177040a48a17E
ffffff00002d2950 T _ZN2ux10conversion72_$LT$impl$u20$core..convert..From$LT$ux..i24$GT$$u20$for$u20$ux..i61$GT$4from17h48ce25e217c6299dE
ffffff00002d2950 T _ZN2ux10conversion72_$LT$impl$u20$core..convert..From$LT$ux..i24$GT$$u20$for$u20$ux..i62$GT$4from17h568eb09d5ba2cad6E
ffffff00002d2950 T _ZN2ux10conversion72_$LT$impl$u20$core..convert..From$LT$ux..i24$GT$$u20$for$u20$ux..i63$GT$4from17h3d244393d4df53f5E
ffffff00002d2980 T _ZN2ux10conversion72_$LT$impl$u20$core..convert..From$LT$ux..i25$GT$$u20$for$u20$ux..i26$GT$4from17h46f7f32270fc8565E
ffffff00002d2980 T _ZN2ux10conversion72_$LT$impl$u20$core..convert..From$LT$ux..i25$GT$$u20$for$u20$ux..i27$GT$4from17h7e446cfe10ba5559E
ffffff00002d2980 T _ZN2ux10conversion72_$LT$impl$u20$core..convert..From$LT$ux..i25$GT$$u20$for$u20$ux..i28$GT$4from17hc0e242b59e67db28E
ffffff00002d2980 T _ZN2ux10conversion72_$LT$impl$u20$core..convert..From$LT$ux..i25$GT$$u20$for$u20$ux..i29$GT$4from17hd6b9891fe735a3f3E
ffffff00002d2980 T _ZN2ux10conversion72_$LT$impl$u20$core..convert..From$LT$ux..i25$GT$$u20$for$u20$ux..i30$GT$4from17hf3ba3f5797322706E
ffffff00002d2980 T _ZN2ux10conversion72_$LT$impl$u20$core..convert..From$LT$ux..i25$GT$$u20$for$u20$ux..i31$GT$4from17h049216442caf7eb1E
ffffff00002d2950 T _ZN2ux10conversion72_$LT$impl$u20$core..convert..From$LT$ux..i25$GT$$u20$for$u20$ux..i33$GT$4from17hce88523e60743b2eE
ffffff00002d2950 T _ZN2ux10conversion72_$LT$impl$u20$core..convert..From$LT$ux..i25$GT$$u20$for$u20$ux..i34$GT$4from17h24fb80c64c18b778E
ffffff00002d2950 T _ZN2ux10conversion72_$LT$impl$u20$core..convert..From$LT$ux..i25$GT$$u20$for$u20$ux..i35$GT$4from17h4fa9b9acd0c2fad6E
ffffff00002d2950 T _ZN2ux10conversion72_$LT$impl$u20$core..convert..From$LT$ux..i25$GT$$u20$for$u20$ux..i36$GT$4from17h42a176ce7ad0facfE
ffffff00002d2950 T _ZN2ux10conversion72_$LT$impl$u20$core..convert..From$LT$ux..i25$GT$$u20$for$u20$ux..i37$GT$4from17h5ae0a268944e4347E
ffffff00002d2950 T _ZN2ux10conversion72_$LT$impl$u20$core..convert..From$LT$ux..i25$GT$$u20$for$u20$ux..i38$GT$4from17hab58502a81496294E
ffffff00002d2950 T _ZN2ux10conversion72_$LT$impl$u20$core..convert..From$LT$ux..i25$GT$$u20$for$u20$ux..i39$GT$4from17hb2ab15be5cbf688cE
ffffff00002d2950 T _ZN2ux10conversion72_$LT$impl$u20$core..convert..From$LT$ux..i25$GT$$u20$for$u20$ux..i40$GT$4from17hc90656d576f29255E
ffffff00002d2950 T _ZN2ux10conversion72_$LT$impl$u20$core..convert..From$LT$ux..i25$GT$$u20$for$u20$ux..i41$GT$4from17h2b88517edc487c05E
ffffff00002d2950 T _ZN2ux10conversion72_$LT$impl$u20$core..convert..From$LT$ux..i25$GT$$u20$for$u20$ux..i42$GT$4from17he11be942c27d4de9E
ffffff00002d2950 T _ZN2ux10conversion72_$LT$impl$u20$core..convert..From$LT$ux..i25$GT$$u20$for$u20$ux..i43$GT$4from17h786612602f9dcec1E
ffffff00002d2950 T _ZN2ux10conversion72_$LT$impl$u20$core..convert..From$LT$ux..i25$GT$$u20$for$u20$ux..i44$GT$4from17ha6b2d3359d9b68f3E
ffffff00002d2950 T _ZN2ux10conversion72_$LT$impl$u20$core..convert..From$LT$ux..i25$GT$$u20$for$u20$ux..i45$GT$4from17h24fc152564e45620E
ffffff00002d2950 T _ZN2ux10conversion72_$LT$impl$u20$core..convert..From$LT$ux..i25$GT$$u20$for$u20$ux..i46$GT$4from17ha7c92c1ea07f97dbE
ffffff00002d2950 T _ZN2ux10conversion72_$LT$impl$u20$core..convert..From$LT$ux..i25$GT$$u20$for$u20$ux..i47$GT$4from17h99af81fd70d70c9cE
ffffff00002d2950 T _ZN2ux10conversion72_$LT$impl$u20$core..convert..From$LT$ux..i25$GT$$u20$for$u20$ux..i48$GT$4from17h572fe5ce3516fac1E
ffffff00002d2950 T _ZN2ux10conversion72_$LT$impl$u20$core..convert..From$LT$ux..i25$GT$$u20$for$u20$ux..i49$GT$4from17h4c897b2a7f87b225E
ffffff00002d2950 T _ZN2ux10conversion72_$LT$impl$u20$core..convert..From$LT$ux..i25$GT$$u20$for$u20$ux..i50$GT$4from17h3fbbb118331306c0E
ffffff00002d2950 T _ZN2ux10conversion72_$LT$impl$u20$core..convert..From$LT$ux..i25$GT$$u20$for$u20$ux..i51$GT$4from17h917657f61b18434fE
ffffff00002d2950 T _ZN2ux10conversion72_$LT$impl$u20$core..convert..From$LT$ux..i25$GT$$u20$for$u20$ux..i52$GT$4from17h49d85adaa37fa285E
ffffff00002d2950 T _ZN2ux10conversion72_$LT$impl$u20$core..convert..From$LT$ux..i25$GT$$u20$for$u20$ux..i53$GT$4from17hfd61423d546b88ffE
ffffff00002d2950 T _ZN2ux10conversion72_$LT$impl$u20$core..convert..From$LT$ux..i25$GT$$u20$for$u20$ux..i54$GT$4from17h91dd34e26e4f1492E
ffffff00002d2950 T _ZN2ux10conversion72_$LT$impl$u20$core..convert..From$LT$ux..i25$GT$$u20$for$u20$ux..i55$GT$4from17h0cdb8bacc0c8d828E
ffffff00002d2950 T _ZN2ux10conversion72_$LT$impl$u20$core..convert..From$LT$ux..i25$GT$$u20$for$u20$ux..i56$GT$4from17h3af5fcae9ecb8345E
ffffff00002d2950 T _ZN2ux10conversion72_$LT$impl$u20$core..convert..From$LT$ux..i25$GT$$u20$for$u20$ux..i57$GT$4from17hf7b4be7589ee38b8E
ffffff00002d2950 T _ZN2ux10conversion72_$LT$impl$u20$core..convert..From$LT$ux..i25$GT$$u20$for$u20$ux..i58$GT$4from17he5fe8a509d20bc21E
ffffff00002d2950 T _ZN2ux10conversion72_$LT$impl$u20$core..convert..From$LT$ux..i25$GT$$u20$for$u20$ux..i59$GT$4from17hcfe286bc4eece879E
ffffff00002d2950 T _ZN2ux10conversion72_$LT$impl$u20$core..convert..From$LT$ux..i25$GT$$u20$for$u20$ux..i60$GT$4from17h03fad8b6b32b2283E
ffffff00002d2950 T _ZN2ux10conversion72_$LT$impl$u20$core..convert..From$LT$ux..i25$GT$$u20$for$u20$ux..i61$GT$4from17h22eada4ec4430c3fE
ffffff00002d2950 T _ZN2ux10conversion72_$LT$impl$u20$core..convert..From$LT$ux..i25$GT$$u20$for$u20$ux..i62$GT$4from17h639c649259a8e1b0E
ffffff00002d2950 T _ZN2ux10conversion72_$LT$impl$u20$core..convert..From$LT$ux..i25$GT$$u20$for$u20$ux..i63$GT$4from17h689db44b34819f14E
ffffff00002d2980 T _ZN2ux10conversion72_$LT$impl$u20$core..convert..From$LT$ux..i26$GT$$u20$for$u20$ux..i27$GT$4from17hf60be79b6d431166E
ffffff00002d2980 T _ZN2ux10conversion72_$LT$impl$u20$core..convert..From$LT$ux..i26$GT$$u20$for$u20$ux..i28$GT$4from17heabf38e4b26b71c3E
ffffff00002d2980 T _ZN2ux10conversion72_$LT$impl$u20$core..convert..From$LT$ux..i26$GT$$u20$for$u20$ux..i29$GT$4from17h40a62b5a33afdd23E
ffffff00002d2980 T _ZN2ux10conversion72_$LT$impl$u20$core..convert..From$LT$ux..i26$GT$$u20$for$u20$ux..i30$GT$4from17h937b10eb11d06953E
ffffff00002d2980 T _ZN2ux10conversion72_$LT$impl$u20$core..convert..From$LT$ux..i26$GT$$u20$for$u20$ux..i31$GT$4from17hbf2a5fa231bc364eE
ffffff00002d2950 T _ZN2ux10conversion72_$LT$impl$u20$core..convert..From$LT$ux..i26$GT$$u20$for$u20$ux..i33$GT$4from17hb4149c3c7eb4f542E
ffffff00002d2950 T _ZN2ux10conversion72_$LT$impl$u20$core..convert..From$LT$ux..i26$GT$$u20$for$u20$ux..i34$GT$4from17h4f6108188f337dd7E
ffffff00002d2950 T _ZN2ux10conversion72_$LT$impl$u20$core..convert..From$LT$ux..i26$GT$$u20$for$u20$ux..i35$GT$4from17h84c2cc28bd77b721E
ffffff00002d2950 T _ZN2ux10conversion72_$LT$impl$u20$core..convert..From$LT$ux..i26$GT$$u20$for$u20$ux..i36$GT$4from17hdd2ee9d29a37c1d1E
ffffff00002d2950 T _ZN2ux10conversion72_$LT$impl$u20$core..convert..From$LT$ux..i26$GT$$u20$for$u20$ux..i37$GT$4from17h73d234177129db98E
ffffff00002d2950 T _ZN2ux10conversion72_$LT$impl$u20$core..convert..From$LT$ux..i26$GT$$u20$for$u20$ux..i38$GT$4from17h5583d7a844a0b49dE
ffffff00002d2950 T _ZN2ux10conversion72_$LT$impl$u20$core..convert..From$LT$ux..i26$GT$$u20$for$u20$ux..i39$GT$4from17h0c2a361434490c1dE
ffffff00002d2950 T _ZN2ux10conversion72_$LT$impl$u20$core..convert..From$LT$ux..i26$GT$$u20$for$u20$ux..i40$GT$4from17h59de90535779d136E
ffffff00002d2950 T _ZN2ux10conversion72_$LT$impl$u20$core..convert..From$LT$ux..i26$GT$$u20$for$u20$ux..i41$GT$4from17h65dcb512851edda7E
ffffff00002d2950 T _ZN2ux10conversion72_$LT$impl$u20$core..convert..From$LT$ux..i26$GT$$u20$for$u20$ux..i42$GT$4from17h76733a08995674f6E
ffffff00002d2950 T _ZN2ux10conversion72_$LT$impl$u20$core..convert..From$LT$ux..i26$GT$$u20$for$u20$ux..i43$GT$4from17hf9e0325c44d55dc4E
ffffff00002d2950 T _ZN2ux10conversion72_$LT$impl$u20$core..convert..From$LT$ux..i26$GT$$u20$for$u20$ux..i44$GT$4from17h0e24c29955f3cf49E
ffffff00002d2950 T _ZN2ux10conversion72_$LT$impl$u20$core..convert..From$LT$ux..i26$GT$$u20$for$u20$ux..i45$GT$4from17h1baaa9207daf6705E
ffffff00002d2950 T _ZN2ux10conversion72_$LT$impl$u20$core..convert..From$LT$ux..i26$GT$$u20$for$u20$ux..i46$GT$4from17hb7eb3edf0ad660ddE
ffffff00002d2950 T _ZN2ux10conversion72_$LT$impl$u20$core..convert..From$LT$ux..i26$GT$$u20$for$u20$ux..i47$GT$4from17hfa8a3ac7f71c5742E
ffffff00002d2950 T _ZN2ux10conversion72_$LT$impl$u20$core..convert..From$LT$ux..i26$GT$$u20$for$u20$ux..i48$GT$4from17ha65f18d24b637e41E
ffffff00002d2950 T _ZN2ux10conversion72_$LT$impl$u20$core..convert..From$LT$ux..i26$GT$$u20$for$u20$ux..i49$GT$4from17h1742874275edfe2aE
ffffff00002d2950 T _ZN2ux10conversion72_$LT$impl$u20$core..convert..From$LT$ux..i26$GT$$u20$for$u20$ux..i50$GT$4from17hc6e4df10a036c5daE
ffffff00002d2950 T _ZN2ux10conversion72_$LT$impl$u20$core..convert..From$LT$ux..i26$GT$$u20$for$u20$ux..i51$GT$4from17hda646837a3e7619fE
ffffff00002d2950 T _ZN2ux10conversion72_$LT$impl$u20$core..convert..From$LT$ux..i26$GT$$u20$for$u20$ux..i52$GT$4from17he3ac07935fe921a6E
ffffff00002d2950 T _ZN2ux10conversion72_$LT$impl$u20$core..convert..From$LT$ux..i26$GT$$u20$for$u20$ux..i53$GT$4from17h55641db2a0ad11f7E
ffffff00002d2950 T _ZN2ux10conversion72_$LT$impl$u20$core..convert..From$LT$ux..i26$GT$$u20$for$u20$ux..i54$GT$4from17hf05a8849235464deE
ffffff00002d2950 T _ZN2ux10conversion72_$LT$impl$u20$core..convert..From$LT$ux..i26$GT$$u20$for$u20$ux..i55$GT$4from17hd271d85db5a24415E
ffffff00002d2950 T _ZN2ux10conversion72_$LT$impl$u20$core..convert..From$LT$ux..i26$GT$$u20$for$u20$ux..i56$GT$4from17h579afc23132de68aE
ffffff00002d2950 T _ZN2ux10conversion72_$LT$impl$u20$core..convert..From$LT$ux..i26$GT$$u20$for$u20$ux..i57$GT$4from17h3587dded5dda07d1E
ffffff00002d2950 T _ZN2ux10conversion72_$LT$impl$u20$core..convert..From$LT$ux..i26$GT$$u20$for$u20$ux..i58$GT$4from17hae83d0d3b16e1b6eE
ffffff00002d2950 T _ZN2ux10conversion72_$LT$impl$u20$core..convert..From$LT$ux..i26$GT$$u20$for$u20$ux..i59$GT$4from17ha8995bca108f88ccE
ffffff00002d2950 T _ZN2ux10conversion72_$LT$impl$u20$core..convert..From$LT$ux..i26$GT$$u20$for$u20$ux..i60$GT$4from17hcd165746bf4de2beE
ffffff00002d2950 T _ZN2ux10conversion72_$LT$impl$u20$core..convert..From$LT$ux..i26$GT$$u20$for$u20$ux..i61$GT$4from17h20ee3597d10e7cddE
ffffff00002d2950 T _ZN2ux10conversion72_$LT$impl$u20$core..convert..From$LT$ux..i26$GT$$u20$for$u20$ux..i62$GT$4from17hf08ff5a84c4c9754E
ffffff00002d2950 T _ZN2ux10conversion72_$LT$impl$u20$core..convert..From$LT$ux..i26$GT$$u20$for$u20$ux..i63$GT$4from17h6b004098336665e9E
ffffff00002d2980 T _ZN2ux10conversion72_$LT$impl$u20$core..convert..From$LT$ux..i27$GT$$u20$for$u20$ux..i28$GT$4from17h1557076391f85315E
ffffff00002d2980 T _ZN2ux10conversion72_$LT$impl$u20$core..convert..From$LT$ux..i27$GT$$u20$for$u20$ux..i29$GT$4from17h0955fb992fd02fcbE
ffffff00002d2980 T _ZN2ux10conversion72_$LT$impl$u20$core..convert..From$LT$ux..i27$GT$$u20$for$u20$ux..i30$GT$4from17ha8156423d421a31aE
ffffff00002d2980 T _ZN2ux10conversion72_$LT$impl$u20$core..convert..From$LT$ux..i27$GT$$u20$for$u20$ux..i31$GT$4from17h3ced54ac822914eaE
ffffff00002d2950 T _ZN2ux10conversion72_$LT$impl$u20$core..convert..From$LT$ux..i27$GT$$u20$for$u20$ux..i33$GT$4from17hf6e48839e129e5f3E
ffffff00002d2950 T _ZN2ux10conversion72_$LT$impl$u20$core..convert..From$LT$ux..i27$GT$$u20$for$u20$ux..i34$GT$4from17ha075b3891127e221E
ffffff00002d2950 T _ZN2ux10conversion72_$LT$impl$u20$core..convert..From$LT$ux..i27$GT$$u20$for$u20$ux..i35$GT$4from17h68b2ff9a426dbc52E
ffffff00002d2950 T _ZN2ux10conversion72_$LT$impl$u20$core..convert..From$LT$ux..i27$GT$$u20$for$u20$ux..i36$GT$4from17h141b72f1e700d17bE
ffffff00002d2950 T _ZN2ux10conversion72_$LT$impl$u20$core..convert..From$LT$ux..i27$GT$$u20$for$u20$ux..i37$GT$4from17h093ba54a3c3ae6b2E
ffffff00002d2950 T _ZN2ux10conversion72_$LT$impl$u20$core..convert..From$LT$ux..i27$GT$$u20$for$u20$ux..i38$GT$4from17hdf93d852dfc1066fE
ffffff00002d2950 T _ZN2ux10conversion72_$LT$impl$u20$core..convert..From$LT$ux..i27$GT$$u20$for$u20$ux..i39$GT$4from17h909267c4860cbfb4E
ffffff00002d2950 T _ZN2ux10conversion72_$LT$impl$u20$core..convert..From$LT$ux..i27$GT$$u20$for$u20$ux..i40$GT$4from17hc2358e5cc5ef60d3E
ffffff00002d2950 T _ZN2ux10conversion72_$LT$impl$u20$core..convert..From$LT$ux..i27$GT$$u20$for$u20$ux..i41$GT$4from17h0f0d36dd6970d054E
ffffff00002d2950 T _ZN2ux10conversion72_$LT$impl$u20$core..convert..From$LT$ux..i27$GT$$u20$for$u20$ux..i42$GT$4from17h4ade4b5af7037018E
ffffff00002d2950 T _ZN2ux10conversion72_$LT$impl$u20$core..convert..From$LT$ux..i27$GT$$u20$for$u20$ux..i43$GT$4from17h6712ef18c5bea3f3E
ffffff00002d2950 T _ZN2ux10conversion72_$LT$impl$u20$core..convert..From$LT$ux..i27$GT$$u20$for$u20$ux..i44$GT$4from17hde32f23bd7c1960aE
ffffff00002d2950 T _ZN2ux10conversion72_$LT$impl$u20$core..convert..From$LT$ux..i27$GT$$u20$for$u20$ux..i45$GT$4from17hf1f994d2c46c700eE
ffffff00002d2950 T _ZN2ux10conversion72_$LT$impl$u20$core..convert..From$LT$ux..i27$GT$$u20$for$u20$ux..i46$GT$4from17h161023bee8b84631E
ffffff00002d2950 T _ZN2ux10conversion72_$LT$impl$u20$core..convert..From$LT$ux..i27$GT$$u20$for$u20$ux..i47$GT$4from17h7d17ac71f457c7e0E
ffffff00002d2950 T _ZN2ux10conversion72_$LT$impl$u20$core..convert..From$LT$ux..i27$GT$$u20$for$u20$ux..i48$GT$4from17hb53c2d7564c0a26aE
ffffff00002d2950 T _ZN2ux10conversion72_$LT$impl$u20$core..convert..From$LT$ux..i27$GT$$u20$for$u20$ux..i49$GT$4from17hfb726fec575cfe5dE
ffffff00002d2950 T _ZN2ux10conversion72_$LT$impl$u20$core..convert..From$LT$ux..i27$GT$$u20$for$u20$ux..i50$GT$4from17h003d4bf1856a4c1fE
ffffff00002d2950 T _ZN2ux10conversion72_$LT$impl$u20$core..convert..From$LT$ux..i27$GT$$u20$for$u20$ux..i51$GT$4from17h1edcc4cd0b896e66E
ffffff00002d2950 T _ZN2ux10conversion72_$LT$impl$u20$core..convert..From$LT$ux..i27$GT$$u20$for$u20$ux..i52$GT$4from17h6da363027d481ebfE
ffffff00002d2950 T _ZN2ux10conversion72_$LT$impl$u20$core..convert..From$LT$ux..i27$GT$$u20$for$u20$ux..i53$GT$4from17h8d635c8ca86e5236E
ffffff00002d2950 T _ZN2ux10conversion72_$LT$impl$u20$core..convert..From$LT$ux..i27$GT$$u20$for$u20$ux..i54$GT$4from17hd4270e4786540729E
ffffff00002d2950 T _ZN2ux10conversion72_$LT$impl$u20$core..convert..From$LT$ux..i27$GT$$u20$for$u20$ux..i55$GT$4from17h23d59cd19eb9e6c0E
ffffff00002d2950 T _ZN2ux10conversion72_$LT$impl$u20$core..convert..From$LT$ux..i27$GT$$u20$for$u20$ux..i56$GT$4from17h1d512f043385c447E
ffffff00002d2950 T _ZN2ux10conversion72_$LT$impl$u20$core..convert..From$LT$ux..i27$GT$$u20$for$u20$ux..i57$GT$4from17h80ea2abc3c37a329E
ffffff00002d2950 T _ZN2ux10conversion72_$LT$impl$u20$core..convert..From$LT$ux..i27$GT$$u20$for$u20$ux..i58$GT$4from17h3f4c003df076543bE
ffffff00002d2950 T _ZN2ux10conversion72_$LT$impl$u20$core..convert..From$LT$ux..i27$GT$$u20$for$u20$ux..i59$GT$4from17hebed9682c4859c8aE
ffffff00002d2950 T _ZN2ux10conversion72_$LT$impl$u20$core..convert..From$LT$ux..i27$GT$$u20$for$u20$ux..i60$GT$4from17h9689545507b704d9E
ffffff00002d2950 T _ZN2ux10conversion72_$LT$impl$u20$core..convert..From$LT$ux..i27$GT$$u20$for$u20$ux..i61$GT$4from17h11dfb530711f7d52E
ffffff00002d2950 T _ZN2ux10conversion72_$LT$impl$u20$core..convert..From$LT$ux..i27$GT$$u20$for$u20$ux..i62$GT$4from17h044a8f2ae3f0b03eE
ffffff00002d2950 T _ZN2ux10conversion72_$LT$impl$u20$core..convert..From$LT$ux..i27$GT$$u20$for$u20$ux..i63$GT$4from17hb0d4179966cba9c2E
ffffff00002d2980 T _ZN2ux10conversion72_$LT$impl$u20$core..convert..From$LT$ux..i28$GT$$u20$for$u20$ux..i29$GT$4from17h0d3fc242602420e6E
ffffff00002d2980 T _ZN2ux10conversion72_$LT$impl$u20$core..convert..From$LT$ux..i28$GT$$u20$for$u20$ux..i30$GT$4from17h21a92a44de5d710dE
ffffff00002d2980 T _ZN2ux10conversion72_$LT$impl$u20$core..convert..From$LT$ux..i28$GT$$u20$for$u20$ux..i31$GT$4from17h09f7ebcc1230419cE
ffffff00002d2950 T _ZN2ux10conversion72_$LT$impl$u20$core..convert..From$LT$ux..i28$GT$$u20$for$u20$ux..i33$GT$4from17ha5fcdd1f8db327e4E
ffffff00002d2950 T _ZN2ux10conversion72_$LT$impl$u20$core..convert..From$LT$ux..i28$GT$$u20$for$u20$ux..i34$GT$4from17h6a58684b42edd521E
ffffff00002d2950 T _ZN2ux10conversion72_$LT$impl$u20$core..convert..From$LT$ux..i28$GT$$u20$for$u20$ux..i35$GT$4from17h2d6d4a41560fd67fE
ffffff00002d2950 T _ZN2ux10conversion72_$LT$impl$u20$core..convert..From$LT$ux..i28$GT$$u20$for$u20$ux..i36$GT$4from17h3bb705140aa0a10aE
ffffff00002d2950 T _ZN2ux10conversion72_$LT$impl$u20$core..convert..From$LT$ux..i28$GT$$u20$for$u20$ux..i37$GT$4from17hcaa46598182dcc0aE
ffffff00002d2950 T _ZN2ux10conversion72_$LT$impl$u20$core..convert..From$LT$ux..i28$GT$$u20$for$u20$ux..i38$GT$4from17h5291c07552336b58E
ffffff00002d2950 T _ZN2ux10conversion72_$LT$impl$u20$core..convert..From$LT$ux..i28$GT$$u20$for$u20$ux..i39$GT$4from17h5bc233a5b59eea5cE
ffffff00002d2950 T _ZN2ux10conversion72_$LT$impl$u20$core..convert..From$LT$ux..i28$GT$$u20$for$u20$ux..i40$GT$4from17h85cdd45be65aaf32E
ffffff00002d2950 T _ZN2ux10conversion72_$LT$impl$u20$core..convert..From$LT$ux..i28$GT$$u20$for$u20$ux..i41$GT$4from17h1dbbe6d99ef4bbadE
ffffff00002d2950 T _ZN2ux10conversion72_$LT$impl$u20$core..convert..From$LT$ux..i28$GT$$u20$for$u20$ux..i42$GT$4from17h2ab9b9ce24426553E
ffffff00002d2950 T _ZN2ux10conversion72_$LT$impl$u20$core..convert..From$LT$ux..i28$GT$$u20$for$u20$ux..i43$GT$4from17h56184a9af01a4341E
ffffff00002d2950 T _ZN2ux10conversion72_$LT$impl$u20$core..convert..From$LT$ux..i28$GT$$u20$for$u20$ux..i44$GT$4from17ha87756a21fdfb6afE
ffffff00002d2950 T _ZN2ux10conversion72_$LT$impl$u20$core..convert..From$LT$ux..i28$GT$$u20$for$u20$ux..i45$GT$4from17ha4702d27cdfd131cE
ffffff00002d2950 T _ZN2ux10conversion72_$LT$impl$u20$core..convert..From$LT$ux..i28$GT$$u20$for$u20$ux..i46$GT$4from17hc3592a2c6043cd07E
ffffff00002d2950 T _ZN2ux10conversion72_$LT$impl$u20$core..convert..From$LT$ux..i28$GT$$u20$for$u20$ux..i47$GT$4from17hae94d1ef0a7ca129E
ffffff00002d2950 T _ZN2ux10conversion72_$LT$impl$u20$core..convert..From$LT$ux..i28$GT$$u20$for$u20$ux..i48$GT$4from17h6d47e8b00eb993acE
ffffff00002d2950 T _ZN2ux10conversion72_$LT$impl$u20$core..convert..From$LT$ux..i28$GT$$u20$for$u20$ux..i49$GT$4from17h1eeeb29a3130be0eE
ffffff00002d2950 T _ZN2ux10conversion72_$LT$impl$u20$core..convert..From$LT$ux..i28$GT$$u20$for$u20$ux..i50$GT$4from17h536954de0fcdb47aE
ffffff00002d2950 T _ZN2ux10conversion72_$LT$impl$u20$core..convert..From$LT$ux..i28$GT$$u20$for$u20$ux..i51$GT$4from17h9cbdd273fcf93995E
ffffff00002d2950 T _ZN2ux10conversion72_$LT$impl$u20$core..convert..From$LT$ux..i28$GT$$u20$for$u20$ux..i52$GT$4from17h264391ccabf3291aE
ffffff00002d2950 T _ZN2ux10conversion72_$LT$impl$u20$core..convert..From$LT$ux..i28$GT$$u20$for$u20$ux..i53$GT$4from17h08cc05ff3748bbddE
ffffff00002d2950 T _ZN2ux10conversion72_$LT$impl$u20$core..convert..From$LT$ux..i28$GT$$u20$for$u20$ux..i54$GT$4from17ha2615fe8978443e2E
ffffff00002d2950 T _ZN2ux10conversion72_$LT$impl$u20$core..convert..From$LT$ux..i28$GT$$u20$for$u20$ux..i55$GT$4from17hccf9b2988f08f82eE
ffffff00002d2950 T _ZN2ux10conversion72_$LT$impl$u20$core..convert..From$LT$ux..i28$GT$$u20$for$u20$ux..i56$GT$4from17heb6739bc01438537E
ffffff00002d2950 T _ZN2ux10conversion72_$LT$impl$u20$core..convert..From$LT$ux..i28$GT$$u20$for$u20$ux..i57$GT$4from17he5ae3230a00fd47eE
ffffff00002d2950 T _ZN2ux10conversion72_$LT$impl$u20$core..convert..From$LT$ux..i28$GT$$u20$for$u20$ux..i58$GT$4from17h8d7574c21e345ff3E
ffffff00002d2950 T _ZN2ux10conversion72_$LT$impl$u20$core..convert..From$LT$ux..i28$GT$$u20$for$u20$ux..i59$GT$4from17hd45ca237e682af03E
ffffff00002d2950 T _ZN2ux10conversion72_$LT$impl$u20$core..convert..From$LT$ux..i28$GT$$u20$for$u20$ux..i60$GT$4from17h65582d4e7c78f639E
ffffff00002d2950 T _ZN2ux10conversion72_$LT$impl$u20$core..convert..From$LT$ux..i28$GT$$u20$for$u20$ux..i61$GT$4from17hdd79be24f3f9355fE
ffffff00002d2950 T _ZN2ux10conversion72_$LT$impl$u20$core..convert..From$LT$ux..i28$GT$$u20$for$u20$ux..i62$GT$4from17hc189ffe522b8a8e2E
ffffff00002d2950 T _ZN2ux10conversion72_$LT$impl$u20$core..convert..From$LT$ux..i28$GT$$u20$for$u20$ux..i63$GT$4from17hf5693db66290cef1E
ffffff00002d2980 T _ZN2ux10conversion72_$LT$impl$u20$core..convert..From$LT$ux..i29$GT$$u20$for$u20$ux..i30$GT$4from17haf00fd2f9523b7f7E
ffffff00002d2980 T _ZN2ux10conversion72_$LT$impl$u20$core..convert..From$LT$ux..i29$GT$$u20$for$u20$ux..i31$GT$4from17h038d34c8d7eb1d51E
ffffff00002d2950 T _ZN2ux10conversion72_$LT$impl$u20$core..convert..From$LT$ux..i29$GT$$u20$for$u20$ux..i33$GT$4from17h866651507410d28aE
ffffff00002d2950 T _ZN2ux10conversion72_$LT$impl$u20$core..convert..From$LT$ux..i29$GT$$u20$for$u20$ux..i34$GT$4from17h75573224c7ddb310E
ffffff00002d2950 T _ZN2ux10conversion72_$LT$impl$u20$core..convert..From$LT$ux..i29$GT$$u20$for$u20$ux..i35$GT$4from17h1bc69aa4b51056dcE
ffffff00002d2950 T _ZN2ux10conversion72_$LT$impl$u20$core..convert..From$LT$ux..i29$GT$$u20$for$u20$ux..i36$GT$4from17hdfd2c3864f9a23e6E
ffffff00002d2950 T _ZN2ux10conversion72_$LT$impl$u20$core..convert..From$LT$ux..i29$GT$$u20$for$u20$ux..i37$GT$4from17h91dc7ece59e9cbd4E
ffffff00002d2950 T _ZN2ux10conversion72_$LT$impl$u20$core..convert..From$LT$ux..i29$GT$$u20$for$u20$ux..i38$GT$4from17ha45038c50886eca2E
ffffff00002d2950 T _ZN2ux10conversion72_$LT$impl$u20$core..convert..From$LT$ux..i29$GT$$u20$for$u20$ux..i39$GT$4from17h8758d7ad4da0b216E
ffffff00002d2950 T _ZN2ux10conversion72_$LT$impl$u20$core..convert..From$LT$ux..i29$GT$$u20$for$u20$ux..i40$GT$4from17h3e6ea3d81854502bE
ffffff00002d2950 T _ZN2ux10conversion72_$LT$impl$u20$core..convert..From$LT$ux..i29$GT$$u20$for$u20$ux..i41$GT$4from17hbdc8d080ff3cc2dcE
ffffff00002d2950 T _ZN2ux10conversion72_$LT$impl$u20$core..convert..From$LT$ux..i29$GT$$u20$for$u20$ux..i42$GT$4from17h349d69ebd6920210E
ffffff00002d2950 T _ZN2ux10conversion72_$LT$impl$u20$core..convert..From$LT$ux..i29$GT$$u20$for$u20$ux..i43$GT$4from17h032178a9c8b7abe7E
ffffff00002d2950 T _ZN2ux10conversion72_$LT$impl$u20$core..convert..From$LT$ux..i29$GT$$u20$for$u20$ux..i44$GT$4from17h4371eeefa5c90c51E
ffffff00002d2950 T _ZN2ux10conversion72_$LT$impl$u20$core..convert..From$LT$ux..i29$GT$$u20$for$u20$ux..i45$GT$4from17h87e20c2e054ba758E
ffffff00002d2950 T _ZN2ux10conversion72_$LT$impl$u20$core..convert..From$LT$ux..i29$GT$$u20$for$u20$ux..i46$GT$4from17hb9ccea686313b942E
ffffff00002d2950 T _ZN2ux10conversion72_$LT$impl$u20$core..convert..From$LT$ux..i29$GT$$u20$for$u20$ux..i47$GT$4from17h4cda7f45cda2b5daE
ffffff00002d2950 T _ZN2ux10conversion72_$LT$impl$u20$core..convert..From$LT$ux..i29$GT$$u20$for$u20$ux..i48$GT$4from17heaccdf7fab552781E
ffffff00002d2950 T _ZN2ux10conversion72_$LT$impl$u20$core..convert..From$LT$ux..i29$GT$$u20$for$u20$ux..i49$GT$4from17ha2e75deb5e42b2c3E
ffffff00002d2950 T _ZN2ux10conversion72_$LT$impl$u20$core..convert..From$LT$ux..i29$GT$$u20$for$u20$ux..i50$GT$4from17h19d94d6584db0fedE
ffffff00002d2950 T _ZN2ux10conversion72_$LT$impl$u20$core..convert..From$LT$ux..i29$GT$$u20$for$u20$ux..i51$GT$4from17h7d25ae29ac4012b4E
ffffff00002d2950 T _ZN2ux10conversion72_$LT$impl$u20$core..convert..From$LT$ux..i29$GT$$u20$for$u20$ux..i52$GT$4from17hb06daf3134870904E
ffffff00002d2950 T _ZN2ux10conversion72_$LT$impl$u20$core..convert..From$LT$ux..i29$GT$$u20$for$u20$ux..i53$GT$4from17ha79999bf2f750ebaE
ffffff00002d2950 T _ZN2ux10conversion72_$LT$impl$u20$core..convert..From$LT$ux..i29$GT$$u20$for$u20$ux..i54$GT$4from17hd401c503128dbe18E
ffffff00002d2950 T _ZN2ux10conversion72_$LT$impl$u20$core..convert..From$LT$ux..i29$GT$$u20$for$u20$ux..i55$GT$4from17h2f00f3ce966b479eE
ffffff00002d2950 T _ZN2ux10conversion72_$LT$impl$u20$core..convert..From$LT$ux..i29$GT$$u20$for$u20$ux..i56$GT$4from17h6f7779bf09455af3E
ffffff00002d2950 T _ZN2ux10conversion72_$LT$impl$u20$core..convert..From$LT$ux..i29$GT$$u20$for$u20$ux..i57$GT$4from17h2c70ac328d75344aE
ffffff00002d2950 T _ZN2ux10conversion72_$LT$impl$u20$core..convert..From$LT$ux..i29$GT$$u20$for$u20$ux..i58$GT$4from17h787eb264444cc51aE
ffffff00002d2950 T _ZN2ux10conversion72_$LT$impl$u20$core..convert..From$LT$ux..i29$GT$$u20$for$u20$ux..i59$GT$4from17h9d43d2672bd9d38aE
ffffff00002d2950 T _ZN2ux10conversion72_$LT$impl$u20$core..convert..From$LT$ux..i29$GT$$u20$for$u20$ux..i60$GT$4from17he8d6d6e05f488d48E
ffffff00002d2950 T _ZN2ux10conversion72_$LT$impl$u20$core..convert..From$LT$ux..i29$GT$$u20$for$u20$ux..i61$GT$4from17h3cc4ae6e01ab76b3E
ffffff00002d2950 T _ZN2ux10conversion72_$LT$impl$u20$core..convert..From$LT$ux..i29$GT$$u20$for$u20$ux..i62$GT$4from17ha649e0d5187b088aE
ffffff00002d2950 T _ZN2ux10conversion72_$LT$impl$u20$core..convert..From$LT$ux..i29$GT$$u20$for$u20$ux..i63$GT$4from17h5ae124aaa98bb667E
ffffff00002d2980 T _ZN2ux10conversion72_$LT$impl$u20$core..convert..From$LT$ux..i30$GT$$u20$for$u20$ux..i31$GT$4from17he51c56e2fd7805b0E
ffffff00002d2950 T _ZN2ux10conversion72_$LT$impl$u20$core..convert..From$LT$ux..i30$GT$$u20$for$u20$ux..i33$GT$4from17h357fe16089fdfe57E
ffffff00002d2950 T _ZN2ux10conversion72_$LT$impl$u20$core..convert..From$LT$ux..i30$GT$$u20$for$u20$ux..i34$GT$4from17h105cec857aa76bd4E
ffffff00002d2950 T _ZN2ux10conversion72_$LT$impl$u20$core..convert..From$LT$ux..i30$GT$$u20$for$u20$ux..i35$GT$4from17h00dd2a152046ad24E
ffffff00002d2950 T _ZN2ux10conversion72_$LT$impl$u20$core..convert..From$LT$ux..i30$GT$$u20$for$u20$ux..i36$GT$4from17ha6b6733881d08538E
ffffff00002d2950 T _ZN2ux10conversion72_$LT$impl$u20$core..convert..From$LT$ux..i30$GT$$u20$for$u20$ux..i37$GT$4from17hce0500f76faffe63E
ffffff00002d2950 T _ZN2ux10conversion72_$LT$impl$u20$core..convert..From$LT$ux..i30$GT$$u20$for$u20$ux..i38$GT$4from17hc594de7134ea9d4eE
ffffff00002d2950 T _ZN2ux10conversion72_$LT$impl$u20$core..convert..From$LT$ux..i30$GT$$u20$for$u20$ux..i39$GT$4from17h9d831d49d37704b6E
ffffff00002d2950 T _ZN2ux10conversion72_$LT$impl$u20$core..convert..From$LT$ux..i30$GT$$u20$for$u20$ux..i40$GT$4from17h62c155430d37ca13E
ffffff00002d2950 T _ZN2ux10conversion72_$LT$impl$u20$core..convert..From$LT$ux..i30$GT$$u20$for$u20$ux..i41$GT$4from17h0e55fb3f0be81400E
ffffff00002d2950 T _ZN2ux10conversion72_$LT$impl$u20$core..convert..From$LT$ux..i30$GT$$u20$for$u20$ux..i42$GT$4from17h04fadfed3d38d300E
ffffff00002d2950 T _ZN2ux10conversion72_$LT$impl$u20$core..convert..From$LT$ux..i30$GT$$u20$for$u20$ux..i43$GT$4from17h2d85c4d3ca2ec65eE
ffffff00002d2950 T _ZN2ux10conversion72_$LT$impl$u20$core..convert..From$LT$ux..i30$GT$$u20$for$u20$ux..i44$GT$4from17hbf51fc20aebcb4d1E
ffffff00002d2950 T _ZN2ux10conversion72_$LT$impl$u20$core..convert..From$LT$ux..i30$GT$$u20$for$u20$ux..i45$GT$4from17h501c15f6815d89a9E
ffffff00002d2950 T _ZN2ux10conversion72_$LT$impl$u20$core..convert..From$LT$ux..i30$GT$$u20$for$u20$ux..i46$GT$4from17hbfecb7f8170c8240E
ffffff00002d2950 T _ZN2ux10conversion72_$LT$impl$u20$core..convert..From$LT$ux..i30$GT$$u20$for$u20$ux..i47$GT$4from17he865f98a318f5f50E
ffffff00002d2950 T _ZN2ux10conversion72_$LT$impl$u20$core..convert..From$LT$ux..i30$GT$$u20$for$u20$ux..i48$GT$4from17h89479df0d0881a94E
ffffff00002d2950 T _ZN2ux10conversion72_$LT$impl$u20$core..convert..From$LT$ux..i30$GT$$u20$for$u20$ux..i49$GT$4from17hdd66c86237df6478E
ffffff00002d2950 T _ZN2ux10conversion72_$LT$impl$u20$core..convert..From$LT$ux..i30$GT$$u20$for$u20$ux..i50$GT$4from17hfcd4850ff582afbfE
ffffff00002d2950 T _ZN2ux10conversion72_$LT$impl$u20$core..convert..From$LT$ux..i30$GT$$u20$for$u20$ux..i51$GT$4from17h197ecb0f6fa78862E
ffffff00002d2950 T _ZN2ux10conversion72_$LT$impl$u20$core..convert..From$LT$ux..i30$GT$$u20$for$u20$ux..i52$GT$4from17hba61d371e07a2e6aE
ffffff00002d2950 T _ZN2ux10conversion72_$LT$impl$u20$core..convert..From$LT$ux..i30$GT$$u20$for$u20$ux..i53$GT$4from17h6615bbffe96ad22eE
ffffff00002d2950 T _ZN2ux10conversion72_$LT$impl$u20$core..convert..From$LT$ux..i30$GT$$u20$for$u20$ux..i54$GT$4from17h15a7faaddbe32f8dE
ffffff00002d2950 T _ZN2ux10conversion72_$LT$impl$u20$core..convert..From$LT$ux..i30$GT$$u20$for$u20$ux..i55$GT$4from17h8213c58485203f35E
ffffff00002d2950 T _ZN2ux10conversion72_$LT$impl$u20$core..convert..From$LT$ux..i30$GT$$u20$for$u20$ux..i56$GT$4from17h567ad2bb36c9b7f2E
ffffff00002d2950 T _ZN2ux10conversion72_$LT$impl$u20$core..convert..From$LT$ux..i30$GT$$u20$for$u20$ux..i57$GT$4from17h42750b587f3a9865E
ffffff00002d2950 T _ZN2ux10conversion72_$LT$impl$u20$core..convert..From$LT$ux..i30$GT$$u20$for$u20$ux..i58$GT$4from17h1d429ebfb6131d8eE
ffffff00002d2950 T _ZN2ux10conversion72_$LT$impl$u20$core..convert..From$LT$ux..i30$GT$$u20$for$u20$ux..i59$GT$4from17h488b72e478752b2aE
ffffff00002d2950 T _ZN2ux10conversion72_$LT$impl$u20$core..convert..From$LT$ux..i30$GT$$u20$for$u20$ux..i60$GT$4from17h3b864ad19276a202E
ffffff00002d2950 T _ZN2ux10conversion72_$LT$impl$u20$core..convert..From$LT$ux..i30$GT$$u20$for$u20$ux..i61$GT$4from17h16e1247c007e89c6E
ffffff00002d2950 T _ZN2ux10conversion72_$LT$impl$u20$core..convert..From$LT$ux..i30$GT$$u20$for$u20$ux..i62$GT$4from17hffab7e8356777618E
ffffff00002d2950 T _ZN2ux10conversion72_$LT$impl$u20$core..convert..From$LT$ux..i30$GT$$u20$for$u20$ux..i63$GT$4from17h9895571910fad76bE
ffffff00002d2950 T _ZN2ux10conversion72_$LT$impl$u20$core..convert..From$LT$ux..i31$GT$$u20$for$u20$ux..i33$GT$4from17hbf558e3f2ba61643E
ffffff00002d2950 T _ZN2ux10conversion72_$LT$impl$u20$core..convert..From$LT$ux..i31$GT$$u20$for$u20$ux..i34$GT$4from17hf94b5952d4d1940fE
ffffff00002d2950 T _ZN2ux10conversion72_$LT$impl$u20$core..convert..From$LT$ux..i31$GT$$u20$for$u20$ux..i35$GT$4from17h769b66aec495f91eE
ffffff00002d2950 T _ZN2ux10conversion72_$LT$impl$u20$core..convert..From$LT$ux..i31$GT$$u20$for$u20$ux..i36$GT$4from17hb83d3fd466e074a2E
ffffff00002d2950 T _ZN2ux10conversion72_$LT$impl$u20$core..convert..From$LT$ux..i31$GT$$u20$for$u20$ux..i37$GT$4from17h62680697eca8527eE
ffffff00002d2950 T _ZN2ux10conversion72_$LT$impl$u20$core..convert..From$LT$ux..i31$GT$$u20$for$u20$ux..i38$GT$4from17h19866c67c89b494aE
ffffff00002d2950 T _ZN2ux10conversion72_$LT$impl$u20$core..convert..From$LT$ux..i31$GT$$u20$for$u20$ux..i39$GT$4from17h15e592236a50752dE
ffffff00002d2950 T _ZN2ux10conversion72_$LT$impl$u20$core..convert..From$LT$ux..i31$GT$$u20$for$u20$ux..i40$GT$4from17h29d8610e30532f7aE
ffffff00002d2950 T _ZN2ux10conversion72_$LT$impl$u20$core..convert..From$LT$ux..i31$GT$$u20$for$u20$ux..i41$GT$4from17hef9aa28eb4531c73E
ffffff00002d2950 T _ZN2ux10conversion72_$LT$impl$u20$core..convert..From$LT$ux..i31$GT$$u20$for$u20$ux..i42$GT$4from17h2af804dae7fd3b9cE
ffffff00002d2950 T _ZN2ux10conversion72_$LT$impl$u20$core..convert..From$LT$ux..i31$GT$$u20$for$u20$ux..i43$GT$4from17h7cc9b4c35557b938E
ffffff00002d2950 T _ZN2ux10conversion72_$LT$impl$u20$core..convert..From$LT$ux..i31$GT$$u20$for$u20$ux..i44$GT$4from17h495ebd9b6db4e96dE
ffffff00002d2950 T _ZN2ux10conversion72_$LT$impl$u20$core..convert..From$LT$ux..i31$GT$$u20$for$u20$ux..i45$GT$4from17hdf224f74e0d56c73E
ffffff00002d2950 T _ZN2ux10conversion72_$LT$impl$u20$core..convert..From$LT$ux..i31$GT$$u20$for$u20$ux..i46$GT$4from17h1e0f5647fa4df083E
ffffff00002d2950 T _ZN2ux10conversion72_$LT$impl$u20$core..convert..From$LT$ux..i31$GT$$u20$for$u20$ux..i47$GT$4from17h785c2c11b54d2e63E
ffffff00002d2950 T _ZN2ux10conversion72_$LT$impl$u20$core..convert..From$LT$ux..i31$GT$$u20$for$u20$ux..i48$GT$4from17h6108104c27578a0aE
ffffff00002d2950 T _ZN2ux10conversion72_$LT$impl$u20$core..convert..From$LT$ux..i31$GT$$u20$for$u20$ux..i49$GT$4from17h776fa5d22783c0c0E
ffffff00002d2950 T _ZN2ux10conversion72_$LT$impl$u20$core..convert..From$LT$ux..i31$GT$$u20$for$u20$ux..i50$GT$4from17h184c4aa69cf5299cE
ffffff00002d2950 T _ZN2ux10conversion72_$LT$impl$u20$core..convert..From$LT$ux..i31$GT$$u20$for$u20$ux..i51$GT$4from17hae19eed20afefdd9E
ffffff00002d2950 T _ZN2ux10conversion72_$LT$impl$u20$core..convert..From$LT$ux..i31$GT$$u20$for$u20$ux..i52$GT$4from17h0337a175a0f1f9f6E
ffffff00002d2950 T _ZN2ux10conversion72_$LT$impl$u20$core..convert..From$LT$ux..i31$GT$$u20$for$u20$ux..i53$GT$4from17ha12d1ed9b6707722E
ffffff00002d2950 T _ZN2ux10conversion72_$LT$impl$u20$core..convert..From$LT$ux..i31$GT$$u20$for$u20$ux..i54$GT$4from17h5e255787a3366905E
ffffff00002d2950 T _ZN2ux10conversion72_$LT$impl$u20$core..convert..From$LT$ux..i31$GT$$u20$for$u20$ux..i55$GT$4from17hf62e29e12268ff7fE
ffffff00002d2950 T _ZN2ux10conversion72_$LT$impl$u20$core..convert..From$LT$ux..i31$GT$$u20$for$u20$ux..i56$GT$4from17h152b69fe88d03476E
ffffff00002d2950 T _ZN2ux10conversion72_$LT$impl$u20$core..convert..From$LT$ux..i31$GT$$u20$for$u20$ux..i57$GT$4from17h9ebd5b79da5ea457E
ffffff00002d2950 T _ZN2ux10conversion72_$LT$impl$u20$core..convert..From$LT$ux..i31$GT$$u20$for$u20$ux..i58$GT$4from17h01905e606885885eE
ffffff00002d2950 T _ZN2ux10conversion72_$LT$impl$u20$core..convert..From$LT$ux..i31$GT$$u20$for$u20$ux..i59$GT$4from17h9ff8e7bbc0c96dedE
ffffff00002d2950 T _ZN2ux10conversion72_$LT$impl$u20$core..convert..From$LT$ux..i31$GT$$u20$for$u20$ux..i60$GT$4from17hee40708758156e56E
ffffff00002d2950 T _ZN2ux10conversion72_$LT$impl$u20$core..convert..From$LT$ux..i31$GT$$u20$for$u20$ux..i61$GT$4from17h95940c471ab80badE
ffffff00002d2950 T _ZN2ux10conversion72_$LT$impl$u20$core..convert..From$LT$ux..i31$GT$$u20$for$u20$ux..i62$GT$4from17hca54bca7257da836E
ffffff00002d2950 T _ZN2ux10conversion72_$LT$impl$u20$core..convert..From$LT$ux..i31$GT$$u20$for$u20$ux..i63$GT$4from17h94574d34aca57f0fE
ffffff00002d2990 T _ZN2ux10conversion72_$LT$impl$u20$core..convert..From$LT$ux..i33$GT$$u20$for$u20$ux..i34$GT$4from17h87b931c14ce3cfb5E
ffffff00002d2990 T _ZN2ux10conversion72_$LT$impl$u20$core..convert..From$LT$ux..i33$GT$$u20$for$u20$ux..i35$GT$4from17h8e0b3a9a6bc667dbE
ffffff00002d2990 T _ZN2ux10conversion72_$LT$impl$u20$core..convert..From$LT$ux..i33$GT$$u20$for$u20$ux..i36$GT$4from17h4b6e7ecbb7712fefE
ffffff00002d2990 T _ZN2ux10conversion72_$LT$impl$u20$core..convert..From$LT$ux..i33$GT$$u20$for$u20$ux..i37$GT$4from17h1c59ba5f065618f1E
ffffff00002d2990 T _ZN2ux10conversion72_$LT$impl$u20$core..convert..From$LT$ux..i33$GT$$u20$for$u20$ux..i38$GT$4from17h80823de39a4bade3E
ffffff00002d2990 T _ZN2ux10conversion72_$LT$impl$u20$core..convert..From$LT$ux..i33$GT$$u20$for$u20$ux..i39$GT$4from17hb53164d5817a7a9bE
ffffff00002d2990 T _ZN2ux10conversion72_$LT$impl$u20$core..convert..From$LT$ux..i33$GT$$u20$for$u20$ux..i40$GT$4from17h3793de0bb34b832aE
ffffff00002d2990 T _ZN2ux10conversion72_$LT$impl$u20$core..convert..From$LT$ux..i33$GT$$u20$for$u20$ux..i41$GT$4from17h93fd152c4334bacaE
ffffff00002d2990 T _ZN2ux10conversion72_$LT$impl$u20$core..convert..From$LT$ux..i33$GT$$u20$for$u20$ux..i42$GT$4from17h1977ff16ef4a08a4E
ffffff00002d2990 T _ZN2ux10conversion72_$LT$impl$u20$core..convert..From$LT$ux..i33$GT$$u20$for$u20$ux..i43$GT$4from17h3cfe7a00b944f452E
ffffff00002d2990 T _ZN2ux10conversion72_$LT$impl$u20$core..convert..From$LT$ux..i33$GT$$u20$for$u20$ux..i44$GT$4from17hfbef51be30693d61E
ffffff00002d2990 T _ZN2ux10conversion72_$LT$impl$u20$core..convert..From$LT$ux..i33$GT$$u20$for$u20$ux..i45$GT$4from17h77a6214d55a783d5E
ffffff00002d2990 T _ZN2ux10conversion72_$LT$impl$u20$core..convert..From$LT$ux..i33$GT$$u20$for$u20$ux..i46$GT$4from17h156191a707092cdfE
ffffff00002d2990 T _ZN2ux10conversion72_$LT$impl$u20$core..convert..From$LT$ux..i33$GT$$u20$for$u20$ux..i47$GT$4from17h07cea2764e82c608E
ffffff00002d2990 T _ZN2ux10conversion72_$LT$impl$u20$core..convert..From$LT$ux..i33$GT$$u20$for$u20$ux..i48$GT$4from17h82697634ceb652d3E
ffffff00002d2990 T _ZN2ux10conversion72_$LT$impl$u20$core..convert..From$LT$ux..i33$GT$$u20$for$u20$ux..i49$GT$4from17h5a0c9e28a01a5ec5E
ffffff00002d2990 T _ZN2ux10conversion72_$LT$impl$u20$core..convert..From$LT$ux..i33$GT$$u20$for$u20$ux..i50$GT$4from17h0d648f30556a4234E
ffffff00002d2990 T _ZN2ux10conversion72_$LT$impl$u20$core..convert..From$LT$ux..i33$GT$$u20$for$u20$ux..i51$GT$4from17h2c4cb6385ced7d55E
ffffff00002d2990 T _ZN2ux10conversion72_$LT$impl$u20$core..convert..From$LT$ux..i33$GT$$u20$for$u20$ux..i52$GT$4from17hd9dfb822b7f302e2E
ffffff00002d2990 T _ZN2ux10conversion72_$LT$impl$u20$core..convert..From$LT$ux..i33$GT$$u20$for$u20$ux..i53$GT$4from17h3d20c53e43e7f39fE
ffffff00002d2990 T _ZN2ux10conversion72_$LT$impl$u20$core..convert..From$LT$ux..i33$GT$$u20$for$u20$ux..i54$GT$4from17h1750294c011517ffE
ffffff00002d2990 T _ZN2ux10conversion72_$LT$impl$u20$core..convert..From$LT$ux..i33$GT$$u20$for$u20$ux..i55$GT$4from17h6c525a1374423367E
ffffff00002d2990 T _ZN2ux10conversion72_$LT$impl$u20$core..convert..From$LT$ux..i33$GT$$u20$for$u20$ux..i56$GT$4from17h503c1885a89b2a70E
ffffff00002d2990 T _ZN2ux10conversion72_$LT$impl$u20$core..convert..From$LT$ux..i33$GT$$u20$for$u20$ux..i57$GT$4from17h28be6429a295a906E
ffffff00002d2990 T _ZN2ux10conversion72_$LT$impl$u20$core..convert..From$LT$ux..i33$GT$$u20$for$u20$ux..i58$GT$4from17h6b9c8d4813539f53E
ffffff00002d2990 T _ZN2ux10conversion72_$LT$impl$u20$core..convert..From$LT$ux..i33$GT$$u20$for$u20$ux..i59$GT$4from17hbd090353fc1cb21aE
ffffff00002d2990 T _ZN2ux10conversion72_$LT$impl$u20$core..convert..From$LT$ux..i33$GT$$u20$for$u20$ux..i60$GT$4from17hc8a57679d1b628cfE
ffffff00002d2990 T _ZN2ux10conversion72_$LT$impl$u20$core..convert..From$LT$ux..i33$GT$$u20$for$u20$ux..i61$GT$4from17h4c7e75ef30a691bbE
ffffff00002d2990 T _ZN2ux10conversion72_$LT$impl$u20$core..convert..From$LT$ux..i33$GT$$u20$for$u20$ux..i62$GT$4from17h3bc7188f66c925f8E
ffffff00002d2990 T _ZN2ux10conversion72_$LT$impl$u20$core..convert..From$LT$ux..i33$GT$$u20$for$u20$ux..i63$GT$4from17hfcc5fce0af9a70c1E
ffffff00002d2990 T _ZN2ux10conversion72_$LT$impl$u20$core..convert..From$LT$ux..i34$GT$$u20$for$u20$ux..i35$GT$4from17ha4f208147c06075eE
ffffff00002d2990 T _ZN2ux10conversion72_$LT$impl$u20$core..convert..From$LT$ux..i34$GT$$u20$for$u20$ux..i36$GT$4from17h04ddaeac866109feE
ffffff00002d2990 T _ZN2ux10conversion72_$LT$impl$u20$core..convert..From$LT$ux..i34$GT$$u20$for$u20$ux..i37$GT$4from17h85eafdab3c16fb4cE
ffffff00002d2990 T _ZN2ux10conversion72_$LT$impl$u20$core..convert..From$LT$ux..i34$GT$$u20$for$u20$ux..i38$GT$4from17h199af9e73f09a34dE
ffffff00002d2990 T _ZN2ux10conversion72_$LT$impl$u20$core..convert..From$LT$ux..i34$GT$$u20$for$u20$ux..i39$GT$4from17hce877c9749680583E
ffffff00002d2990 T _ZN2ux10conversion72_$LT$impl$u20$core..convert..From$LT$ux..i34$GT$$u20$for$u20$ux..i40$GT$4from17h48f50c799d75dbdeE
ffffff00002d2990 T _ZN2ux10conversion72_$LT$impl$u20$core..convert..From$LT$ux..i34$GT$$u20$for$u20$ux..i41$GT$4from17h66d7e4af141f039cE
ffffff00002d2990 T _ZN2ux10conversion72_$LT$impl$u20$core..convert..From$LT$ux..i34$GT$$u20$for$u20$ux..i42$GT$4from17h71c67fcb868ddf3eE
ffffff00002d2990 T _ZN2ux10conversion72_$LT$impl$u20$core..convert..From$LT$ux..i34$GT$$u20$for$u20$ux..i43$GT$4from17hde91453216639ae7E
ffffff00002d2990 T _ZN2ux10conversion72_$LT$impl$u20$core..convert..From$LT$ux..i34$GT$$u20$for$u20$ux..i44$GT$4from17hf047739e13445184E
ffffff00002d2990 T _ZN2ux10conversion72_$LT$impl$u20$core..convert..From$LT$ux..i34$GT$$u20$for$u20$ux..i45$GT$4from17h31632401e62411b5E
ffffff00002d2990 T _ZN2ux10conversion72_$LT$impl$u20$core..convert..From$LT$ux..i34$GT$$u20$for$u20$ux..i46$GT$4from17hba3c4506143332e1E
ffffff00002d2990 T _ZN2ux10conversion72_$LT$impl$u20$core..convert..From$LT$ux..i34$GT$$u20$for$u20$ux..i47$GT$4from17hd37aa7df93c83417E
ffffff00002d2990 T _ZN2ux10conversion72_$LT$impl$u20$core..convert..From$LT$ux..i34$GT$$u20$for$u20$ux..i48$GT$4from17hf45c58be3a171eeeE
ffffff00002d2990 T _ZN2ux10conversion72_$LT$impl$u20$core..convert..From$LT$ux..i34$GT$$u20$for$u20$ux..i49$GT$4from17ha80e72da9f23af69E
ffffff00002d2990 T _ZN2ux10conversion72_$LT$impl$u20$core..convert..From$LT$ux..i34$GT$$u20$for$u20$ux..i50$GT$4from17hc0c614867a6fb152E
ffffff00002d2990 T _ZN2ux10conversion72_$LT$impl$u20$core..convert..From$LT$ux..i34$GT$$u20$for$u20$ux..i51$GT$4from17hfa777f1c4f2a4600E
ffffff00002d2990 T _ZN2ux10conversion72_$LT$impl$u20$core..convert..From$LT$ux..i34$GT$$u20$for$u20$ux..i52$GT$4from17h1f5fde45ace99b82E
ffffff00002d2990 T _ZN2ux10conversion72_$LT$impl$u20$core..convert..From$LT$ux..i34$GT$$u20$for$u20$ux..i53$GT$4from17ha0853479bba7d63bE
ffffff00002d2990 T _ZN2ux10conversion72_$LT$impl$u20$core..convert..From$LT$ux..i34$GT$$u20$for$u20$ux..i54$GT$4from17hbc90a4bf150a13c4E
ffffff00002d2990 T _ZN2ux10conversion72_$LT$impl$u20$core..convert..From$LT$ux..i34$GT$$u20$for$u20$ux..i55$GT$4from17hdba2d4d3e4b9d997E
ffffff00002d2990 T _ZN2ux10conversion72_$LT$impl$u20$core..convert..From$LT$ux..i34$GT$$u20$for$u20$ux..i56$GT$4from17hbe5fc63e4c506242E
ffffff00002d2990 T _ZN2ux10conversion72_$LT$impl$u20$core..convert..From$LT$ux..i34$GT$$u20$for$u20$ux..i57$GT$4from17hbc36276cc1b8c8eeE
ffffff00002d2990 T _ZN2ux10conversion72_$LT$impl$u20$core..convert..From$LT$ux..i34$GT$$u20$for$u20$ux..i58$GT$4from17hd18c71e6a1dd5e2aE
ffffff00002d2990 T _ZN2ux10conversion72_$LT$impl$u20$core..convert..From$LT$ux..i34$GT$$u20$for$u20$ux..i59$GT$4from17hd54b13fba9ceac6aE
ffffff00002d2990 T _ZN2ux10conversion72_$LT$impl$u20$core..convert..From$LT$ux..i34$GT$$u20$for$u20$ux..i60$GT$4from17hc9d09f6ebbcbfef6E
ffffff00002d2990 T _ZN2ux10conversion72_$LT$impl$u20$core..convert..From$LT$ux..i34$GT$$u20$for$u20$ux..i61$GT$4from17hd4db0e1ce8e3c703E
ffffff00002d2990 T _ZN2ux10conversion72_$LT$impl$u20$core..convert..From$LT$ux..i34$GT$$u20$for$u20$ux..i62$GT$4from17hfc390faf1edae9b3E
ffffff00002d2990 T _ZN2ux10conversion72_$LT$impl$u20$core..convert..From$LT$ux..i34$GT$$u20$for$u20$ux..i63$GT$4from17ha55e835bcc1ef131E
ffffff00002d2990 T _ZN2ux10conversion72_$LT$impl$u20$core..convert..From$LT$ux..i35$GT$$u20$for$u20$ux..i36$GT$4from17h4d139100871060c3E
ffffff00002d2990 T _ZN2ux10conversion72_$LT$impl$u20$core..convert..From$LT$ux..i35$GT$$u20$for$u20$ux..i37$GT$4from17hc3d03056672819d3E
ffffff00002d2990 T _ZN2ux10conversion72_$LT$impl$u20$core..convert..From$LT$ux..i35$GT$$u20$for$u20$ux..i38$GT$4from17h1b8b2e21274baa04E
ffffff00002d2990 T _ZN2ux10conversion72_$LT$impl$u20$core..convert..From$LT$ux..i35$GT$$u20$for$u20$ux..i39$GT$4from17h3b482fdb9dfca0dbE
ffffff00002d2990 T _ZN2ux10conversion72_$LT$impl$u20$core..convert..From$LT$ux..i35$GT$$u20$for$u20$ux..i40$GT$4from17h1158cb943bd24b09E
ffffff00002d2990 T _ZN2ux10conversion72_$LT$impl$u20$core..convert..From$LT$ux..i35$GT$$u20$for$u20$ux..i41$GT$4from17h224e1cdc5fc9e313E
ffffff00002d2990 T _ZN2ux10conversion72_$LT$impl$u20$core..convert..From$LT$ux..i35$GT$$u20$for$u20$ux..i42$GT$4from17hb1d460deae0fea33E
ffffff00002d2990 T _ZN2ux10conversion72_$LT$impl$u20$core..convert..From$LT$ux..i35$GT$$u20$for$u20$ux..i43$GT$4from17h6e19406596d74a95E
ffffff00002d2990 T _ZN2ux10conversion72_$LT$impl$u20$core..convert..From$LT$ux..i35$GT$$u20$for$u20$ux..i44$GT$4from17hf8a4fd7cc28591b4E
ffffff00002d2990 T _ZN2ux10conversion72_$LT$impl$u20$core..convert..From$LT$ux..i35$GT$$u20$for$u20$ux..i45$GT$4from17h02e223b08212c912E
ffffff00002d2990 T _ZN2ux10conversion72_$LT$impl$u20$core..convert..From$LT$ux..i35$GT$$u20$for$u20$ux..i46$GT$4from17hdb5fe60209e0dd74E
ffffff00002d2990 T _ZN2ux10conversion72_$LT$impl$u20$core..convert..From$LT$ux..i35$GT$$u20$for$u20$ux..i47$GT$4from17hb783fabf27f95ab2E
ffffff00002d2990 T _ZN2ux10conversion72_$LT$impl$u20$core..convert..From$LT$ux..i35$GT$$u20$for$u20$ux..i48$GT$4from17h7532254d7d753aa6E
ffffff00002d2990 T _ZN2ux10conversion72_$LT$impl$u20$core..convert..From$LT$ux..i35$GT$$u20$for$u20$ux..i49$GT$4from17h0954e77b9a93ef7dE
ffffff00002d2990 T _ZN2ux10conversion72_$LT$impl$u20$core..convert..From$LT$ux..i35$GT$$u20$for$u20$ux..i50$GT$4from17hb8e65710ad275b3eE
ffffff00002d2990 T _ZN2ux10conversion72_$LT$impl$u20$core..convert..From$LT$ux..i35$GT$$u20$for$u20$ux..i51$GT$4from17ha3d570d31a06486bE
ffffff00002d2990 T _ZN2ux10conversion72_$LT$impl$u20$core..convert..From$LT$ux..i35$GT$$u20$for$u20$ux..i52$GT$4from17h996182ce76813015E
ffffff00002d2990 T _ZN2ux10conversion72_$LT$impl$u20$core..convert..From$LT$ux..i35$GT$$u20$for$u20$ux..i53$GT$4from17h5585dce4b48c7ef6E
ffffff00002d2990 T _ZN2ux10conversion72_$LT$impl$u20$core..convert..From$LT$ux..i35$GT$$u20$for$u20$ux..i54$GT$4from17hcd16a68bd4eb1587E
ffffff00002d2990 T _ZN2ux10conversion72_$LT$impl$u20$core..convert..From$LT$ux..i35$GT$$u20$for$u20$ux..i55$GT$4from17hc84357325ed5d7dcE
ffffff00002d2990 T _ZN2ux10conversion72_$LT$impl$u20$core..convert..From$LT$ux..i35$GT$$u20$for$u20$ux..i56$GT$4from17h64f5d38f9dc83ec8E
ffffff00002d2990 T _ZN2ux10conversion72_$LT$impl$u20$core..convert..From$LT$ux..i35$GT$$u20$for$u20$ux..i57$GT$4from17h4ab1f5ade6489048E
ffffff00002d2990 T _ZN2ux10conversion72_$LT$impl$u20$core..convert..From$LT$ux..i35$GT$$u20$for$u20$ux..i58$GT$4from17h66d0c19e156cc0c6E
ffffff00002d2990 T _ZN2ux10conversion72_$LT$impl$u20$core..convert..From$LT$ux..i35$GT$$u20$for$u20$ux..i59$GT$4from17hc180d27604f0562bE
ffffff00002d2990 T _ZN2ux10conversion72_$LT$impl$u20$core..convert..From$LT$ux..i35$GT$$u20$for$u20$ux..i60$GT$4from17hb6ed95ce65fc3b03E
ffffff00002d2990 T _ZN2ux10conversion72_$LT$impl$u20$core..convert..From$LT$ux..i35$GT$$u20$for$u20$ux..i61$GT$4from17hc72980da52904160E
ffffff00002d2990 T _ZN2ux10conversion72_$LT$impl$u20$core..convert..From$LT$ux..i35$GT$$u20$for$u20$ux..i62$GT$4from17hac080d48fafc099cE
ffffff00002d2990 T _ZN2ux10conversion72_$LT$impl$u20$core..convert..From$LT$ux..i35$GT$$u20$for$u20$ux..i63$GT$4from17hbbfda7398fa16b57E
ffffff00002d2990 T _ZN2ux10conversion72_$LT$impl$u20$core..convert..From$LT$ux..i36$GT$$u20$for$u20$ux..i37$GT$4from17ha382aa72ce66186fE
ffffff00002d2990 T _ZN2ux10conversion72_$LT$impl$u20$core..convert..From$LT$ux..i36$GT$$u20$for$u20$ux..i38$GT$4from17h3908546199d20268E
ffffff00002d2990 T _ZN2ux10conversion72_$LT$impl$u20$core..convert..From$LT$ux..i36$GT$$u20$for$u20$ux..i39$GT$4from17hd4255a9432cf7e4aE
ffffff00002d2990 T _ZN2ux10conversion72_$LT$impl$u20$core..convert..From$LT$ux..i36$GT$$u20$for$u20$ux..i40$GT$4from17he5ce851c8cf38f2cE
ffffff00002d2990 T _ZN2ux10conversion72_$LT$impl$u20$core..convert..From$LT$ux..i36$GT$$u20$for$u20$ux..i41$GT$4from17hea5a4a87346f9685E
ffffff00002d2990 T _ZN2ux10conversion72_$LT$impl$u20$core..convert..From$LT$ux..i36$GT$$u20$for$u20$ux..i42$GT$4from17h74b0b07705b24d0aE
ffffff00002d2990 T _ZN2ux10conversion72_$LT$impl$u20$core..convert..From$LT$ux..i36$GT$$u20$for$u20$ux..i43$GT$4from17hed49e617a1ed2c9eE
ffffff00002d2990 T _ZN2ux10conversion72_$LT$impl$u20$core..convert..From$LT$ux..i36$GT$$u20$for$u20$ux..i44$GT$4from17h59b9e7c2833e862dE
ffffff00002d2990 T _ZN2ux10conversion72_$LT$impl$u20$core..convert..From$LT$ux..i36$GT$$u20$for$u20$ux..i45$GT$4from17h5fca52fde46bbd8fE
ffffff00002d2990 T _ZN2ux10conversion72_$LT$impl$u20$core..convert..From$LT$ux..i36$GT$$u20$for$u20$ux..i46$GT$4from17hc74f25cd3473d0aaE
ffffff00002d2990 T _ZN2ux10conversion72_$LT$impl$u20$core..convert..From$LT$ux..i36$GT$$u20$for$u20$ux..i47$GT$4from17h46569952f2ab770cE
ffffff00002d2990 T _ZN2ux10conversion72_$LT$impl$u20$core..convert..From$LT$ux..i36$GT$$u20$for$u20$ux..i48$GT$4from17h063c37419ef0f2f6E
ffffff00002d2990 T _ZN2ux10conversion72_$LT$impl$u20$core..convert..From$LT$ux..i36$GT$$u20$for$u20$ux..i49$GT$4from17h48483c27d766b793E
ffffff00002d2990 T _ZN2ux10conversion72_$LT$impl$u20$core..convert..From$LT$ux..i36$GT$$u20$for$u20$ux..i50$GT$4from17h097c55f24561b8f4E
ffffff00002d2990 T _ZN2ux10conversion72_$LT$impl$u20$core..convert..From$LT$ux..i36$GT$$u20$for$u20$ux..i51$GT$4from17h807394e44f729758E
ffffff00002d2990 T _ZN2ux10conversion72_$LT$impl$u20$core..convert..From$LT$ux..i36$GT$$u20$for$u20$ux..i52$GT$4from17h83740afb07cb7cffE
ffffff00002d2990 T _ZN2ux10conversion72_$LT$impl$u20$core..convert..From$LT$ux..i36$GT$$u20$for$u20$ux..i53$GT$4from17he61f439c5ccc4c0dE
ffffff00002d2990 T _ZN2ux10conversion72_$LT$impl$u20$core..convert..From$LT$ux..i36$GT$$u20$for$u20$ux..i54$GT$4from17h76e28405dd179914E
ffffff00002d2990 T _ZN2ux10conversion72_$LT$impl$u20$core..convert..From$LT$ux..i36$GT$$u20$for$u20$ux..i55$GT$4from17hb9cce7e9a7eae051E
ffffff00002d2990 T _ZN2ux10conversion72_$LT$impl$u20$core..convert..From$LT$ux..i36$GT$$u20$for$u20$ux..i56$GT$4from17h007dcaa1e6ca4f59E
ffffff00002d2990 T _ZN2ux10conversion72_$LT$impl$u20$core..convert..From$LT$ux..i36$GT$$u20$for$u20$ux..i57$GT$4from17h5f818aab2e8fa894E
ffffff00002d2990 T _ZN2ux10conversion72_$LT$impl$u20$core..convert..From$LT$ux..i36$GT$$u20$for$u20$ux..i58$GT$4from17h0ea583643c34ab49E
ffffff00002d2990 T _ZN2ux10conversion72_$LT$impl$u20$core..convert..From$LT$ux..i36$GT$$u20$for$u20$ux..i59$GT$4from17h05df1612db2f37d1E
ffffff00002d2990 T _ZN2ux10conversion72_$LT$impl$u20$core..convert..From$LT$ux..i36$GT$$u20$for$u20$ux..i60$GT$4from17h87ffbf769f694746E
ffffff00002d2990 T _ZN2ux10conversion72_$LT$impl$u20$core..convert..From$LT$ux..i36$GT$$u20$for$u20$ux..i61$GT$4from17hb33a52d17b306fdcE
ffffff00002d2990 T _ZN2ux10conversion72_$LT$impl$u20$core..convert..From$LT$ux..i36$GT$$u20$for$u20$ux..i62$GT$4from17h97f4b6b017fc8f8dE
ffffff00002d2990 T _ZN2ux10conversion72_$LT$impl$u20$core..convert..From$LT$ux..i36$GT$$u20$for$u20$ux..i63$GT$4from17h0006c75b0e748203E
ffffff00002d2990 T _ZN2ux10conversion72_$LT$impl$u20$core..convert..From$LT$ux..i37$GT$$u20$for$u20$ux..i38$GT$4from17hf81c4d9d765a6123E
ffffff00002d2990 T _ZN2ux10conversion72_$LT$impl$u20$core..convert..From$LT$ux..i37$GT$$u20$for$u20$ux..i39$GT$4from17h633ce57a41e72f9fE
ffffff00002d2990 T _ZN2ux10conversion72_$LT$impl$u20$core..convert..From$LT$ux..i37$GT$$u20$for$u20$ux..i40$GT$4from17h4bd831fb83d5dae9E
ffffff00002d2990 T _ZN2ux10conversion72_$LT$impl$u20$core..convert..From$LT$ux..i37$GT$$u20$for$u20$ux..i41$GT$4from17h93d9fafeb0763050E
ffffff00002d2990 T _ZN2ux10conversion72_$LT$impl$u20$core..convert..From$LT$ux..i37$GT$$u20$for$u20$ux..i42$GT$4from17h2712a72d3c940389E
ffffff00002d2990 T _ZN2ux10conversion72_$LT$impl$u20$core..convert..From$LT$ux..i37$GT$$u20$for$u20$ux..i43$GT$4from17h543b5da870a6c5e5E
ffffff00002d2990 T _ZN2ux10conversion72_$LT$impl$u20$core..convert..From$LT$ux..i37$GT$$u20$for$u20$ux..i44$GT$4from17h0c2d0b364e8791f4E
ffffff00002d2990 T _ZN2ux10conversion72_$LT$impl$u20$core..convert..From$LT$ux..i37$GT$$u20$for$u20$ux..i45$GT$4from17h6bc9d395d0060d85E
ffffff00002d2990 T _ZN2ux10conversion72_$LT$impl$u20$core..convert..From$LT$ux..i37$GT$$u20$for$u20$ux..i46$GT$4from17hb6166c82e3092cceE
ffffff00002d2990 T _ZN2ux10conversion72_$LT$impl$u20$core..convert..From$LT$ux..i37$GT$$u20$for$u20$ux..i47$GT$4from17hc3e7c214592b8102E
ffffff00002d2990 T _ZN2ux10conversion72_$LT$impl$u20$core..convert..From$LT$ux..i37$GT$$u20$for$u20$ux..i48$GT$4from17h583dbe01d4bc06afE
ffffff00002d2990 T _ZN2ux10conversion72_$LT$impl$u20$core..convert..From$LT$ux..i37$GT$$u20$for$u20$ux..i49$GT$4from17h487985db6a73958cE
ffffff00002d2990 T _ZN2ux10conversion72_$LT$impl$u20$core..convert..From$LT$ux..i37$GT$$u20$for$u20$ux..i50$GT$4from17h2815914566a50c19E
ffffff00002d2990 T _ZN2ux10conversion72_$LT$impl$u20$core..convert..From$LT$ux..i37$GT$$u20$for$u20$ux..i51$GT$4from17h889a8b68f7512d66E
ffffff00002d2990 T _ZN2ux10conversion72_$LT$impl$u20$core..convert..From$LT$ux..i37$GT$$u20$for$u20$ux..i52$GT$4from17h25cd234667e15338E
ffffff00002d2990 T _ZN2ux10conversion72_$LT$impl$u20$core..convert..From$LT$ux..i37$GT$$u20$for$u20$ux..i53$GT$4from17h80c4d674455ad018E
ffffff00002d2990 T _ZN2ux10conversion72_$LT$impl$u20$core..convert..From$LT$ux..i37$GT$$u20$for$u20$ux..i54$GT$4from17hecdf9a736eb6d651E
ffffff00002d2990 T _ZN2ux10conversion72_$LT$impl$u20$core..convert..From$LT$ux..i37$GT$$u20$for$u20$ux..i55$GT$4from17hdf42f60969c088fdE
ffffff00002d2990 T _ZN2ux10conversion72_$LT$impl$u20$core..convert..From$LT$ux..i37$GT$$u20$for$u20$ux..i56$GT$4from17hceeda4d8150772f8E
ffffff00002d2990 T _ZN2ux10conversion72_$LT$impl$u20$core..convert..From$LT$ux..i37$GT$$u20$for$u20$ux..i57$GT$4from17hb1b28673652b5699E
ffffff00002d2990 T _ZN2ux10conversion72_$LT$impl$u20$core..convert..From$LT$ux..i37$GT$$u20$for$u20$ux..i58$GT$4from17h040efbee5fefcb1fE
ffffff00002d2990 T _ZN2ux10conversion72_$LT$impl$u20$core..convert..From$LT$ux..i37$GT$$u20$for$u20$ux..i59$GT$4from17h178d4662402908b4E
ffffff00002d2990 T _ZN2ux10conversion72_$LT$impl$u20$core..convert..From$LT$ux..i37$GT$$u20$for$u20$ux..i60$GT$4from17hc36fe3161d375934E
ffffff00002d2990 T _ZN2ux10conversion72_$LT$impl$u20$core..convert..From$LT$ux..i37$GT$$u20$for$u20$ux..i61$GT$4from17h43794e4f0b28af17E
ffffff00002d2990 T _ZN2ux10conversion72_$LT$impl$u20$core..convert..From$LT$ux..i37$GT$$u20$for$u20$ux..i62$GT$4from17h5b2d9405a6a91eddE
ffffff00002d2990 T _ZN2ux10conversion72_$LT$impl$u20$core..convert..From$LT$ux..i37$GT$$u20$for$u20$ux..i63$GT$4from17h4ff50881edd0283dE
ffffff00002d2990 T _ZN2ux10conversion72_$LT$impl$u20$core..convert..From$LT$ux..i38$GT$$u20$for$u20$ux..i39$GT$4from17h90d0a828fe76ebe9E
ffffff00002d2990 T _ZN2ux10conversion72_$LT$impl$u20$core..convert..From$LT$ux..i38$GT$$u20$for$u20$ux..i40$GT$4from17h80cc032b1ba98fedE
ffffff00002d2990 T _ZN2ux10conversion72_$LT$impl$u20$core..convert..From$LT$ux..i38$GT$$u20$for$u20$ux..i41$GT$4from17hf8cd147497b704e4E
ffffff00002d2990 T _ZN2ux10conversion72_$LT$impl$u20$core..convert..From$LT$ux..i38$GT$$u20$for$u20$ux..i42$GT$4from17hd25d2602edfe2760E
ffffff00002d2990 T _ZN2ux10conversion72_$LT$impl$u20$core..convert..From$LT$ux..i38$GT$$u20$for$u20$ux..i43$GT$4from17habb99cf3b2deb803E
ffffff00002d2990 T _ZN2ux10conversion72_$LT$impl$u20$core..convert..From$LT$ux..i38$GT$$u20$for$u20$ux..i44$GT$4from17he832c05e833fc501E
ffffff00002d2990 T _ZN2ux10conversion72_$LT$impl$u20$core..convert..From$LT$ux..i38$GT$$u20$for$u20$ux..i45$GT$4from17h70258cabadd291baE
ffffff00002d2990 T _ZN2ux10conversion72_$LT$impl$u20$core..convert..From$LT$ux..i38$GT$$u20$for$u20$ux..i46$GT$4from17h2f9f1ab865251285E
ffffff00002d2990 T _ZN2ux10conversion72_$LT$impl$u20$core..convert..From$LT$ux..i38$GT$$u20$for$u20$ux..i47$GT$4from17hf319f05bef217123E
ffffff00002d2990 T _ZN2ux10conversion72_$LT$impl$u20$core..convert..From$LT$ux..i38$GT$$u20$for$u20$ux..i48$GT$4from17h21b74e2fe4b5ce46E
ffffff00002d2990 T _ZN2ux10conversion72_$LT$impl$u20$core..convert..From$LT$ux..i38$GT$$u20$for$u20$ux..i49$GT$4from17h3862fb1895298e93E
ffffff00002d2990 T _ZN2ux10conversion72_$LT$impl$u20$core..convert..From$LT$ux..i38$GT$$u20$for$u20$ux..i50$GT$4from17h4c131311a8a1dfe9E
ffffff00002d2990 T _ZN2ux10conversion72_$LT$impl$u20$core..convert..From$LT$ux..i38$GT$$u20$for$u20$ux..i51$GT$4from17hbaa689c9786aab0dE
ffffff00002d2990 T _ZN2ux10conversion72_$LT$impl$u20$core..convert..From$LT$ux..i38$GT$$u20$for$u20$ux..i52$GT$4from17h9b9ab01fb03842b8E
ffffff00002d2990 T _ZN2ux10conversion72_$LT$impl$u20$core..convert..From$LT$ux..i38$GT$$u20$for$u20$ux..i53$GT$4from17hfcb756fbca8b4350E
ffffff00002d2990 T _ZN2ux10conversion72_$LT$impl$u20$core..convert..From$LT$ux..i38$GT$$u20$for$u20$ux..i54$GT$4from17hacbb0a1764ea7beaE
ffffff00002d2990 T _ZN2ux10conversion72_$LT$impl$u20$core..convert..From$LT$ux..i38$GT$$u20$for$u20$ux..i55$GT$4from17h912796c6552894aeE
ffffff00002d2990 T _ZN2ux10conversion72_$LT$impl$u20$core..convert..From$LT$ux..i38$GT$$u20$for$u20$ux..i56$GT$4from17h4234eda21f9b0192E
ffffff00002d2990 T _ZN2ux10conversion72_$LT$impl$u20$core..convert..From$LT$ux..i38$GT$$u20$for$u20$ux..i57$GT$4from17h01fcb4d6336198cdE
ffffff00002d2990 T _ZN2ux10conversion72_$LT$impl$u20$core..convert..From$LT$ux..i38$GT$$u20$for$u20$ux..i58$GT$4from17h213dadf45c548f27E
ffffff00002d2990 T _ZN2ux10conversion72_$LT$impl$u20$core..convert..From$LT$ux..i38$GT$$u20$for$u20$ux..i59$GT$4from17h6b93fe8f9c5af49cE
ffffff00002d2990 T _ZN2ux10conversion72_$LT$impl$u20$core..convert..From$LT$ux..i38$GT$$u20$for$u20$ux..i60$GT$4from17h2f311bf1bc3ec0dcE
ffffff00002d2990 T _ZN2ux10conversion72_$LT$impl$u20$core..convert..From$LT$ux..i38$GT$$u20$for$u20$ux..i61$GT$4from17h47789c0574d0ad9eE
ffffff00002d2990 T _ZN2ux10conversion72_$LT$impl$u20$core..convert..From$LT$ux..i38$GT$$u20$for$u20$ux..i62$GT$4from17h133fb99f3c5911aaE
ffffff00002d2990 T _ZN2ux10conversion72_$LT$impl$u20$core..convert..From$LT$ux..i38$GT$$u20$for$u20$ux..i63$GT$4from17h4d3b3a4c518b6233E
ffffff00002d2990 T _ZN2ux10conversion72_$LT$impl$u20$core..convert..From$LT$ux..i39$GT$$u20$for$u20$ux..i40$GT$4from17hfd8781d3ee8d4dc9E
ffffff00002d2990 T _ZN2ux10conversion72_$LT$impl$u20$core..convert..From$LT$ux..i39$GT$$u20$for$u20$ux..i41$GT$4from17h6dccca7f2f2edd37E
ffffff00002d2990 T _ZN2ux10conversion72_$LT$impl$u20$core..convert..From$LT$ux..i39$GT$$u20$for$u20$ux..i42$GT$4from17hfc63d144294821cdE
ffffff00002d2990 T _ZN2ux10conversion72_$LT$impl$u20$core..convert..From$LT$ux..i39$GT$$u20$for$u20$ux..i43$GT$4from17h16dd4d826d864182E
ffffff00002d2990 T _ZN2ux10conversion72_$LT$impl$u20$core..convert..From$LT$ux..i39$GT$$u20$for$u20$ux..i44$GT$4from17h0004aa0812616910E
ffffff00002d2990 T _ZN2ux10conversion72_$LT$impl$u20$core..convert..From$LT$ux..i39$GT$$u20$for$u20$ux..i45$GT$4from17ha45dde3d7b630a74E
ffffff00002d2990 T _ZN2ux10conversion72_$LT$impl$u20$core..convert..From$LT$ux..i39$GT$$u20$for$u20$ux..i46$GT$4from17h5d967c267905f7f4E
ffffff00002d2990 T _ZN2ux10conversion72_$LT$impl$u20$core..convert..From$LT$ux..i39$GT$$u20$for$u20$ux..i47$GT$4from17h14059db064aeb2c3E
ffffff00002d2990 T _ZN2ux10conversion72_$LT$impl$u20$core..convert..From$LT$ux..i39$GT$$u20$for$u20$ux..i48$GT$4from17h1932fcd8ee8497fdE
ffffff00002d2990 T _ZN2ux10conversion72_$LT$impl$u20$core..convert..From$LT$ux..i39$GT$$u20$for$u20$ux..i49$GT$4from17h7884d7c743fa537fE
ffffff00002d2990 T _ZN2ux10conversion72_$LT$impl$u20$core..convert..From$LT$ux..i39$GT$$u20$for$u20$ux..i50$GT$4from17h0da9df75549465a0E
ffffff00002d2990 T _ZN2ux10conversion72_$LT$impl$u20$core..convert..From$LT$ux..i39$GT$$u20$for$u20$ux..i51$GT$4from17hafb6019865990ccdE
ffffff00002d2990 T _ZN2ux10conversion72_$LT$impl$u20$core..convert..From$LT$ux..i39$GT$$u20$for$u20$ux..i52$GT$4from17hd3e407bc7d0dba06E
ffffff00002d2990 T _ZN2ux10conversion72_$LT$impl$u20$core..convert..From$LT$ux..i39$GT$$u20$for$u20$ux..i53$GT$4from17h27ef836869591c64E
ffffff00002d2990 T _ZN2ux10conversion72_$LT$impl$u20$core..convert..From$LT$ux..i39$GT$$u20$for$u20$ux..i54$GT$4from17h8f0b5d5cf281c324E
ffffff00002d2990 T _ZN2ux10conversion72_$LT$impl$u20$core..convert..From$LT$ux..i39$GT$$u20$for$u20$ux..i55$GT$4from17hda35aaf76bbf8433E
ffffff00002d2990 T _ZN2ux10conversion72_$LT$impl$u20$core..convert..From$LT$ux..i39$GT$$u20$for$u20$ux..i56$GT$4from17hecec40039bfc0a9bE
ffffff00002d2990 T _ZN2ux10conversion72_$LT$impl$u20$core..convert..From$LT$ux..i39$GT$$u20$for$u20$ux..i57$GT$4from17h915a44fdb0d55700E
ffffff00002d2990 T _ZN2ux10conversion72_$LT$impl$u20$core..convert..From$LT$ux..i39$GT$$u20$for$u20$ux..i58$GT$4from17hdd950a2e1206a476E
ffffff00002d2990 T _ZN2ux10conversion72_$LT$impl$u20$core..convert..From$LT$ux..i39$GT$$u20$for$u20$ux..i59$GT$4from17h148329f96dddf50aE
ffffff00002d2990 T _ZN2ux10conversion72_$LT$impl$u20$core..convert..From$LT$ux..i39$GT$$u20$for$u20$ux..i60$GT$4from17hb67de4fc3ff302efE
ffffff00002d2990 T _ZN2ux10conversion72_$LT$impl$u20$core..convert..From$LT$ux..i39$GT$$u20$for$u20$ux..i61$GT$4from17h3af0b417a4640b97E
ffffff00002d2990 T _ZN2ux10conversion72_$LT$impl$u20$core..convert..From$LT$ux..i39$GT$$u20$for$u20$ux..i62$GT$4from17h2b56a5a508a9a347E
ffffff00002d2990 T _ZN2ux10conversion72_$LT$impl$u20$core..convert..From$LT$ux..i39$GT$$u20$for$u20$ux..i63$GT$4from17hefcb81aacf7a16cdE
ffffff00002d2990 T _ZN2ux10conversion72_$LT$impl$u20$core..convert..From$LT$ux..i40$GT$$u20$for$u20$ux..i41$GT$4from17ha404c8329c2d4bd1E
ffffff00002d2990 T _ZN2ux10conversion72_$LT$impl$u20$core..convert..From$LT$ux..i40$GT$$u20$for$u20$ux..i42$GT$4from17h0b4ca896e19f8d4bE
ffffff00002d2990 T _ZN2ux10conversion72_$LT$impl$u20$core..convert..From$LT$ux..i40$GT$$u20$for$u20$ux..i43$GT$4from17h791470612af1eef0E
ffffff00002d2990 T _ZN2ux10conversion72_$LT$impl$u20$core..convert..From$LT$ux..i40$GT$$u20$for$u20$ux..i44$GT$4from17h466001a6346cd2f9E
ffffff00002d2990 T _ZN2ux10conversion72_$LT$impl$u20$core..convert..From$LT$ux..i40$GT$$u20$for$u20$ux..i45$GT$4from17hd145788438157628E
ffffff00002d2990 T _ZN2ux10conversion72_$LT$impl$u20$core..convert..From$LT$ux..i40$GT$$u20$for$u20$ux..i46$GT$4from17h285300cd5e861b7dE
ffffff00002d2990 T _ZN2ux10conversion72_$LT$impl$u20$core..convert..From$LT$ux..i40$GT$$u20$for$u20$ux..i47$GT$4from17h485ac8e8a74d0aa0E
ffffff00002d2990 T _ZN2ux10conversion72_$LT$impl$u20$core..convert..From$LT$ux..i40$GT$$u20$for$u20$ux..i48$GT$4from17h2a214bac47a357feE
ffffff00002d2990 T _ZN2ux10conversion72_$LT$impl$u20$core..convert..From$LT$ux..i40$GT$$u20$for$u20$ux..i49$GT$4from17h0acd5adae8248b59E
ffffff00002d2990 T _ZN2ux10conversion72_$LT$impl$u20$core..convert..From$LT$ux..i40$GT$$u20$for$u20$ux..i50$GT$4from17h644edaea78bdd956E
ffffff00002d2990 T _ZN2ux10conversion72_$LT$impl$u20$core..convert..From$LT$ux..i40$GT$$u20$for$u20$ux..i51$GT$4from17h34568f63e34604e6E
ffffff00002d2990 T _ZN2ux10conversion72_$LT$impl$u20$core..convert..From$LT$ux..i40$GT$$u20$for$u20$ux..i52$GT$4from17h27a89376bba9606cE
ffffff00002d2990 T _ZN2ux10conversion72_$LT$impl$u20$core..convert..From$LT$ux..i40$GT$$u20$for$u20$ux..i53$GT$4from17h0f0c56869a6dc2ecE
ffffff00002d2990 T _ZN2ux10conversion72_$LT$impl$u20$core..convert..From$LT$ux..i40$GT$$u20$for$u20$ux..i54$GT$4from17h84735b2183d8720bE
ffffff00002d2990 T _ZN2ux10conversion72_$LT$impl$u20$core..convert..From$LT$ux..i40$GT$$u20$for$u20$ux..i55$GT$4from17h10d56a64882a2926E
ffffff00002d2990 T _ZN2ux10conversion72_$LT$impl$u20$core..convert..From$LT$ux..i40$GT$$u20$for$u20$ux..i56$GT$4from17h1a6212a6ada1c1ccE
ffffff00002d2990 T _ZN2ux10conversion72_$LT$impl$u20$core..convert..From$LT$ux..i40$GT$$u20$for$u20$ux..i57$GT$4from17h6f679df286a4135eE
ffffff00002d2990 T _ZN2ux10conversion72_$LT$impl$u20$core..convert..From$LT$ux..i40$GT$$u20$for$u20$ux..i58$GT$4from17h62cf3945db9fa868E
ffffff00002d2990 T _ZN2ux10conversion72_$LT$impl$u20$core..convert..From$LT$ux..i40$GT$$u20$for$u20$ux..i59$GT$4from17h38683fdd35e8f418E
ffffff00002d2990 T _ZN2ux10conversion72_$LT$impl$u20$core..convert..From$LT$ux..i40$GT$$u20$for$u20$ux..i60$GT$4from17h2f317e70241299a2E
ffffff00002d2990 T _ZN2ux10conversion72_$LT$impl$u20$core..convert..From$LT$ux..i40$GT$$u20$for$u20$ux..i61$GT$4from17h9147ed71cd938d56E
ffffff00002d2990 T _ZN2ux10conversion72_$LT$impl$u20$core..convert..From$LT$ux..i40$GT$$u20$for$u20$ux..i62$GT$4from17h4977532ce7e5de88E
ffffff00002d2990 T _ZN2ux10conversion72_$LT$impl$u20$core..convert..From$LT$ux..i40$GT$$u20$for$u20$ux..i63$GT$4from17hb6672b01b160c737E
ffffff00002d2990 T _ZN2ux10conversion72_$LT$impl$u20$core..convert..From$LT$ux..i41$GT$$u20$for$u20$ux..i42$GT$4from17h2be7c29033885772E
ffffff00002d2990 T _ZN2ux10conversion72_$LT$impl$u20$core..convert..From$LT$ux..i41$GT$$u20$for$u20$ux..i43$GT$4from17h8677c3745c8b4f68E
ffffff00002d2990 T _ZN2ux10conversion72_$LT$impl$u20$core..convert..From$LT$ux..i41$GT$$u20$for$u20$ux..i44$GT$4from17h030f7571c207ab76E
ffffff00002d2990 T _ZN2ux10conversion72_$LT$impl$u20$core..convert..From$LT$ux..i41$GT$$u20$for$u20$ux..i45$GT$4from17ha4ee361c1932a469E
ffffff00002d2990 T _ZN2ux10conversion72_$LT$impl$u20$core..convert..From$LT$ux..i41$GT$$u20$for$u20$ux..i46$GT$4from17h1154839ad1dea674E
ffffff00002d2990 T _ZN2ux10conversion72_$LT$impl$u20$core..convert..From$LT$ux..i41$GT$$u20$for$u20$ux..i47$GT$4from17hb63c14e1a342cd0dE
ffffff00002d2990 T _ZN2ux10conversion72_$LT$impl$u20$core..convert..From$LT$ux..i41$GT$$u20$for$u20$ux..i48$GT$4from17h9a3dbaa5fc707b87E
ffffff00002d2990 T _ZN2ux10conversion72_$LT$impl$u20$core..convert..From$LT$ux..i41$GT$$u20$for$u20$ux..i49$GT$4from17hd3e1e03aabd28ad5E
ffffff00002d2990 T _ZN2ux10conversion72_$LT$impl$u20$core..convert..From$LT$ux..i41$GT$$u20$for$u20$ux..i50$GT$4from17he288afca65ebe00bE
ffffff00002d2990 T _ZN2ux10conversion72_$LT$impl$u20$core..convert..From$LT$ux..i41$GT$$u20$for$u20$ux..i51$GT$4from17h3b4841a5cf7c0893E
ffffff00002d2990 T _ZN2ux10conversion72_$LT$impl$u20$core..convert..From$LT$ux..i41$GT$$u20$for$u20$ux..i52$GT$4from17h5c6ecef7cfec681bE
ffffff00002d2990 T _ZN2ux10conversion72_$LT$impl$u20$core..convert..From$LT$ux..i41$GT$$u20$for$u20$ux..i53$GT$4from17h0afce427e826af90E
ffffff00002d2990 T _ZN2ux10conversion72_$LT$impl$u20$core..convert..From$LT$ux..i41$GT$$u20$for$u20$ux..i54$GT$4from17h7c4e1f1f70a25387E
ffffff00002d2990 T _ZN2ux10conversion72_$LT$impl$u20$core..convert..From$LT$ux..i41$GT$$u20$for$u20$ux..i55$GT$4from17h1214c93987005b49E
ffffff00002d2990 T _ZN2ux10conversion72_$LT$impl$u20$core..convert..From$LT$ux..i41$GT$$u20$for$u20$ux..i56$GT$4from17h903dc5c30c6b8ee0E
ffffff00002d2990 T _ZN2ux10conversion72_$LT$impl$u20$core..convert..From$LT$ux..i41$GT$$u20$for$u20$ux..i57$GT$4from17hac83e1f2b4ac18a1E
ffffff00002d2990 T _ZN2ux10conversion72_$LT$impl$u20$core..convert..From$LT$ux..i41$GT$$u20$for$u20$ux..i58$GT$4from17h15f54b6049f6f26bE
ffffff00002d2990 T _ZN2ux10conversion72_$LT$impl$u20$core..convert..From$LT$ux..i41$GT$$u20$for$u20$ux..i59$GT$4from17hf6e7d570d1e6d584E
ffffff00002d2990 T _ZN2ux10conversion72_$LT$impl$u20$core..convert..From$LT$ux..i41$GT$$u20$for$u20$ux..i60$GT$4from17h24e78d280f73dc1dE
ffffff00002d2990 T _ZN2ux10conversion72_$LT$impl$u20$core..convert..From$LT$ux..i41$GT$$u20$for$u20$ux..i61$GT$4from17hb2120783352016aaE
ffffff00002d2990 T _ZN2ux10conversion72_$LT$impl$u20$core..convert..From$LT$ux..i41$GT$$u20$for$u20$ux..i62$GT$4from17h59898ce29cb7c0a2E
ffffff00002d2990 T _ZN2ux10conversion72_$LT$impl$u20$core..convert..From$LT$ux..i41$GT$$u20$for$u20$ux..i63$GT$4from17h20e4c2382e462a46E
ffffff00002d2990 T _ZN2ux10conversion72_$LT$impl$u20$core..convert..From$LT$ux..i42$GT$$u20$for$u20$ux..i43$GT$4from17h72a98d0bd55a8d6eE
ffffff00002d2990 T _ZN2ux10conversion72_$LT$impl$u20$core..convert..From$LT$ux..i42$GT$$u20$for$u20$ux..i44$GT$4from17h51ff852d73484388E
ffffff00002d2990 T _ZN2ux10conversion72_$LT$impl$u20$core..convert..From$LT$ux..i42$GT$$u20$for$u20$ux..i45$GT$4from17h813f230062a20e85E
ffffff00002d2990 T _ZN2ux10conversion72_$LT$impl$u20$core..convert..From$LT$ux..i42$GT$$u20$for$u20$ux..i46$GT$4from17h2e98b08e3184ffbcE
ffffff00002d2990 T _ZN2ux10conversion72_$LT$impl$u20$core..convert..From$LT$ux..i42$GT$$u20$for$u20$ux..i47$GT$4from17h442eff6c9928ba19E
ffffff00002d2990 T _ZN2ux10conversion72_$LT$impl$u20$core..convert..From$LT$ux..i42$GT$$u20$for$u20$ux..i48$GT$4from17h1c684426c4e8b3caE
ffffff00002d2990 T _ZN2ux10conversion72_$LT$impl$u20$core..convert..From$LT$ux..i42$GT$$u20$for$u20$ux..i49$GT$4from17h38620cc747cf80fbE
ffffff00002d2990 T _ZN2ux10conversion72_$LT$impl$u20$core..convert..From$LT$ux..i42$GT$$u20$for$u20$ux..i50$GT$4from17hf572b1020e87c167E
ffffff00002d2990 T _ZN2ux10conversion72_$LT$impl$u20$core..convert..From$LT$ux..i42$GT$$u20$for$u20$ux..i51$GT$4from17h68a794cc2851b929E
ffffff00002d2990 T _ZN2ux10conversion72_$LT$impl$u20$core..convert..From$LT$ux..i42$GT$$u20$for$u20$ux..i52$GT$4from17h5bb9b9f58f28bc53E
ffffff00002d2990 T _ZN2ux10conversion72_$LT$impl$u20$core..convert..From$LT$ux..i42$GT$$u20$for$u20$ux..i53$GT$4from17h207a02ec83c79ce6E
ffffff00002d2990 T _ZN2ux10conversion72_$LT$impl$u20$core..convert..From$LT$ux..i42$GT$$u20$for$u20$ux..i54$GT$4from17h49bdd751ee557699E
ffffff00002d2990 T _ZN2ux10conversion72_$LT$impl$u20$core..convert..From$LT$ux..i42$GT$$u20$for$u20$ux..i55$GT$4from17h7691857bfdf94f1dE
ffffff00002d2990 T _ZN2ux10conversion72_$LT$impl$u20$core..convert..From$LT$ux..i42$GT$$u20$for$u20$ux..i56$GT$4from17h54a76c47992c8ae7E
ffffff00002d2990 T _ZN2ux10conversion72_$LT$impl$u20$core..convert..From$LT$ux..i42$GT$$u20$for$u20$ux..i57$GT$4from17h83b4ab1aba9d15f9E
ffffff00002d2990 T _ZN2ux10conversion72_$LT$impl$u20$core..convert..From$LT$ux..i42$GT$$u20$for$u20$ux..i58$GT$4from17h2862e953e5c0e906E
ffffff00002d2990 T _ZN2ux10conversion72_$LT$impl$u20$core..convert..From$LT$ux..i42$GT$$u20$for$u20$ux..i59$GT$4from17hca75bc570b095998E
ffffff00002d2990 T _ZN2ux10conversion72_$LT$impl$u20$core..convert..From$LT$ux..i42$GT$$u20$for$u20$ux..i60$GT$4from17hcd55d6bc3fcdd429E
ffffff00002d2990 T _ZN2ux10conversion72_$LT$impl$u20$core..convert..From$LT$ux..i42$GT$$u20$for$u20$ux..i61$GT$4from17h638d8fbe5b5a61feE
ffffff00002d2990 T _ZN2ux10conversion72_$LT$impl$u20$core..convert..From$LT$ux..i42$GT$$u20$for$u20$ux..i62$GT$4from17hc62f67d5f55204a1E
ffffff00002d2990 T _ZN2ux10conversion72_$LT$impl$u20$core..convert..From$LT$ux..i42$GT$$u20$for$u20$ux..i63$GT$4from17h6ed45c2975f3a1f2E
ffffff00002d2990 T _ZN2ux10conversion72_$LT$impl$u20$core..convert..From$LT$ux..i43$GT$$u20$for$u20$ux..i44$GT$4from17h765145cda83ec169E
ffffff00002d2990 T _ZN2ux10conversion72_$LT$impl$u20$core..convert..From$LT$ux..i43$GT$$u20$for$u20$ux..i45$GT$4from17ha453706c57561e3dE
ffffff00002d2990 T _ZN2ux10conversion72_$LT$impl$u20$core..convert..From$LT$ux..i43$GT$$u20$for$u20$ux..i46$GT$4from17h7d46eaa7f6d23d05E
ffffff00002d2990 T _ZN2ux10conversion72_$LT$impl$u20$core..convert..From$LT$ux..i43$GT$$u20$for$u20$ux..i47$GT$4from17hec7797d30ac3e654E
ffffff00002d2990 T _ZN2ux10conversion72_$LT$impl$u20$core..convert..From$LT$ux..i43$GT$$u20$for$u20$ux..i48$GT$4from17h7945012ceabba507E
ffffff00002d2990 T _ZN2ux10conversion72_$LT$impl$u20$core..convert..From$LT$ux..i43$GT$$u20$for$u20$ux..i49$GT$4from17h508a692f4354a058E
ffffff00002d2990 T _ZN2ux10conversion72_$LT$impl$u20$core..convert..From$LT$ux..i43$GT$$u20$for$u20$ux..i50$GT$4from17h80489ec28a4f4909E
ffffff00002d2990 T _ZN2ux10conversion72_$LT$impl$u20$core..convert..From$LT$ux..i43$GT$$u20$for$u20$ux..i51$GT$4from17h11627206e026048aE
ffffff00002d2990 T _ZN2ux10conversion72_$LT$impl$u20$core..convert..From$LT$ux..i43$GT$$u20$for$u20$ux..i52$GT$4from17hd95421289067fb0dE
ffffff00002d2990 T _ZN2ux10conversion72_$LT$impl$u20$core..convert..From$LT$ux..i43$GT$$u20$for$u20$ux..i53$GT$4from17h0fe6abeafc147a78E
ffffff00002d2990 T _ZN2ux10conversion72_$LT$impl$u20$core..convert..From$LT$ux..i43$GT$$u20$for$u20$ux..i54$GT$4from17haaf76b9b1fd222cfE
ffffff00002d2990 T _ZN2ux10conversion72_$LT$impl$u20$core..convert..From$LT$ux..i43$GT$$u20$for$u20$ux..i55$GT$4from17hcdfeb7475369cb8fE
ffffff00002d2990 T _ZN2ux10conversion72_$LT$impl$u20$core..convert..From$LT$ux..i43$GT$$u20$for$u20$ux..i56$GT$4from17ha6fde550e556abe4E
ffffff00002d2990 T _ZN2ux10conversion72_$LT$impl$u20$core..convert..From$LT$ux..i43$GT$$u20$for$u20$ux..i57$GT$4from17h56145fa9b550c53fE
ffffff00002d2990 T _ZN2ux10conversion72_$LT$impl$u20$core..convert..From$LT$ux..i43$GT$$u20$for$u20$ux..i58$GT$4from17ha7cb254fc3d05ecaE
ffffff00002d2990 T _ZN2ux10conversion72_$LT$impl$u20$core..convert..From$LT$ux..i43$GT$$u20$for$u20$ux..i59$GT$4from17h3ca2e8a7fba824d4E
ffffff00002d2990 T _ZN2ux10conversion72_$LT$impl$u20$core..convert..From$LT$ux..i43$GT$$u20$for$u20$ux..i60$GT$4from17h2f3b2554ff600299E
ffffff00002d2990 T _ZN2ux10conversion72_$LT$impl$u20$core..convert..From$LT$ux..i43$GT$$u20$for$u20$ux..i61$GT$4from17h53cc129b0bf1da14E
ffffff00002d2990 T _ZN2ux10conversion72_$LT$impl$u20$core..convert..From$LT$ux..i43$GT$$u20$for$u20$ux..i62$GT$4from17hcdab92739eba63e3E
ffffff00002d2990 T _ZN2ux10conversion72_$LT$impl$u20$core..convert..From$LT$ux..i43$GT$$u20$for$u20$ux..i63$GT$4from17had4f957fd0b6ac2bE
ffffff00002d2990 T _ZN2ux10conversion72_$LT$impl$u20$core..convert..From$LT$ux..i44$GT$$u20$for$u20$ux..i45$GT$4from17hce15726db3a9ce92E
ffffff00002d2990 T _ZN2ux10conversion72_$LT$impl$u20$core..convert..From$LT$ux..i44$GT$$u20$for$u20$ux..i46$GT$4from17h484520c6c8eac71cE
ffffff00002d2990 T _ZN2ux10conversion72_$LT$impl$u20$core..convert..From$LT$ux..i44$GT$$u20$for$u20$ux..i47$GT$4from17h12ca81e6347a3b0bE
ffffff00002d2990 T _ZN2ux10conversion72_$LT$impl$u20$core..convert..From$LT$ux..i44$GT$$u20$for$u20$ux..i48$GT$4from17hf885606f28d45a5fE
ffffff00002d2990 T _ZN2ux10conversion72_$LT$impl$u20$core..convert..From$LT$ux..i44$GT$$u20$for$u20$ux..i49$GT$4from17hfd8f8b5b27b42e43E
ffffff00002d2990 T _ZN2ux10conversion72_$LT$impl$u20$core..convert..From$LT$ux..i44$GT$$u20$for$u20$ux..i50$GT$4from17h6b23aa4d5505af70E
ffffff00002d2990 T _ZN2ux10conversion72_$LT$impl$u20$core..convert..From$LT$ux..i44$GT$$u20$for$u20$ux..i51$GT$4from17ha791fac015d24e2cE
ffffff00002d2990 T _ZN2ux10conversion72_$LT$impl$u20$core..convert..From$LT$ux..i44$GT$$u20$for$u20$ux..i52$GT$4from17hd510d2397902c56bE
ffffff00002d2990 T _ZN2ux10conversion72_$LT$impl$u20$core..convert..From$LT$ux..i44$GT$$u20$for$u20$ux..i53$GT$4from17h00546816a78f5eabE
ffffff00002d2990 T _ZN2ux10conversion72_$LT$impl$u20$core..convert..From$LT$ux..i44$GT$$u20$for$u20$ux..i54$GT$4from17h51bb353bd968ed60E
ffffff00002d2990 T _ZN2ux10conversion72_$LT$impl$u20$core..convert..From$LT$ux..i44$GT$$u20$for$u20$ux..i55$GT$4from17hda06a2443dbbf223E
ffffff00002d2990 T _ZN2ux10conversion72_$LT$impl$u20$core..convert..From$LT$ux..i44$GT$$u20$for$u20$ux..i56$GT$4from17hcd3c921a6f6b4a18E
ffffff00002d2990 T _ZN2ux10conversion72_$LT$impl$u20$core..convert..From$LT$ux..i44$GT$$u20$for$u20$ux..i57$GT$4from17h22b85c68650b2976E
ffffff00002d2990 T _ZN2ux10conversion72_$LT$impl$u20$core..convert..From$LT$ux..i44$GT$$u20$for$u20$ux..i58$GT$4from17h6ce83bc1153c0153E
ffffff00002d2990 T _ZN2ux10conversion72_$LT$impl$u20$core..convert..From$LT$ux..i44$GT$$u20$for$u20$ux..i59$GT$4from17h443dff0816b6e049E
ffffff00002d2990 T _ZN2ux10conversion72_$LT$impl$u20$core..convert..From$LT$ux..i44$GT$$u20$for$u20$ux..i60$GT$4from17h074b8b8ba0316765E
ffffff00002d2990 T _ZN2ux10conversion72_$LT$impl$u20$core..convert..From$LT$ux..i44$GT$$u20$for$u20$ux..i61$GT$4from17hee8e6e89b692b658E
ffffff00002d2990 T _ZN2ux10conversion72_$LT$impl$u20$core..convert..From$LT$ux..i44$GT$$u20$for$u20$ux..i62$GT$4from17h69e27b140b553952E
ffffff00002d2990 T _ZN2ux10conversion72_$LT$impl$u20$core..convert..From$LT$ux..i44$GT$$u20$for$u20$ux..i63$GT$4from17hfc7ea59cc293c0a5E
ffffff00002d2990 T _ZN2ux10conversion72_$LT$impl$u20$core..convert..From$LT$ux..i45$GT$$u20$for$u20$ux..i46$GT$4from17hc16490ab939bf7ceE
ffffff00002d2990 T _ZN2ux10conversion72_$LT$impl$u20$core..convert..From$LT$ux..i45$GT$$u20$for$u20$ux..i47$GT$4from17h1892d04081097288E
ffffff00002d2990 T _ZN2ux10conversion72_$LT$impl$u20$core..convert..From$LT$ux..i45$GT$$u20$for$u20$ux..i48$GT$4from17h1c15df84a2d5f53bE
ffffff00002d2990 T _ZN2ux10conversion72_$LT$impl$u20$core..convert..From$LT$ux..i45$GT$$u20$for$u20$ux..i49$GT$4from17heef3a25042610b8fE
ffffff00002d2990 T _ZN2ux10conversion72_$LT$impl$u20$core..convert..From$LT$ux..i45$GT$$u20$for$u20$ux..i50$GT$4from17hef963d3dbe542044E
ffffff00002d2990 T _ZN2ux10conversion72_$LT$impl$u20$core..convert..From$LT$ux..i45$GT$$u20$for$u20$ux..i51$GT$4from17hfd9a0d11ffad22f4E
ffffff00002d2990 T _ZN2ux10conversion72_$LT$impl$u20$core..convert..From$LT$ux..i45$GT$$u20$for$u20$ux..i52$GT$4from17h86491770952ee791E
ffffff00002d2990 T _ZN2ux10conversion72_$LT$impl$u20$core..convert..From$LT$ux..i45$GT$$u20$for$u20$ux..i53$GT$4from17hd3a6bbe7749f9b87E
ffffff00002d2990 T _ZN2ux10conversion72_$LT$impl$u20$core..convert..From$LT$ux..i45$GT$$u20$for$u20$ux..i54$GT$4from17h116c6e446ee06279E
ffffff00002d2990 T _ZN2ux10conversion72_$LT$impl$u20$core..convert..From$LT$ux..i45$GT$$u20$for$u20$ux..i55$GT$4from17he000875c481e50f5E
ffffff00002d2990 T _ZN2ux10conversion72_$LT$impl$u20$core..convert..From$LT$ux..i45$GT$$u20$for$u20$ux..i56$GT$4from17h1cd03baa1dbbe25bE
ffffff00002d2990 T _ZN2ux10conversion72_$LT$impl$u20$core..convert..From$LT$ux..i45$GT$$u20$for$u20$ux..i57$GT$4from17h21012df857177a8cE
ffffff00002d2990 T _ZN2ux10conversion72_$LT$impl$u20$core..convert..From$LT$ux..i45$GT$$u20$for$u20$ux..i58$GT$4from17h66323f9c32fff896E
ffffff00002d2990 T _ZN2ux10conversion72_$LT$impl$u20$core..convert..From$LT$ux..i45$GT$$u20$for$u20$ux..i59$GT$4from17hf8eeaf0704319e9cE
ffffff00002d2990 T _ZN2ux10conversion72_$LT$impl$u20$core..convert..From$LT$ux..i45$GT$$u20$for$u20$ux..i60$GT$4from17h1109afd43ab1afd9E
ffffff00002d2990 T _ZN2ux10conversion72_$LT$impl$u20$core..convert..From$LT$ux..i45$GT$$u20$for$u20$ux..i61$GT$4from17hc3f2863a40155302E
ffffff00002d2990 T _ZN2ux10conversion72_$LT$impl$u20$core..convert..From$LT$ux..i45$GT$$u20$for$u20$ux..i62$GT$4from17h071272563dcb8022E
ffffff00002d2990 T _ZN2ux10conversion72_$LT$impl$u20$core..convert..From$LT$ux..i45$GT$$u20$for$u20$ux..i63$GT$4from17h4ba6960334dd21e0E
ffffff00002d2990 T _ZN2ux10conversion72_$LT$impl$u20$core..convert..From$LT$ux..i46$GT$$u20$for$u20$ux..i47$GT$4from17hd5f74a038b8b161aE
ffffff00002d2990 T _ZN2ux10conversion72_$LT$impl$u20$core..convert..From$LT$ux..i46$GT$$u20$for$u20$ux..i48$GT$4from17h400a6222a0d7939bE
ffffff00002d2990 T _ZN2ux10conversion72_$LT$impl$u20$core..convert..From$LT$ux..i46$GT$$u20$for$u20$ux..i49$GT$4from17h263a2be53823134bE
ffffff00002d2990 T _ZN2ux10conversion72_$LT$impl$u20$core..convert..From$LT$ux..i46$GT$$u20$for$u20$ux..i50$GT$4from17h93d078c12f8a1b70E
ffffff00002d2990 T _ZN2ux10conversion72_$LT$impl$u20$core..convert..From$LT$ux..i46$GT$$u20$for$u20$ux..i51$GT$4from17h2d19b0190b0c7f25E
ffffff00002d2990 T _ZN2ux10conversion72_$LT$impl$u20$core..convert..From$LT$ux..i46$GT$$u20$for$u20$ux..i52$GT$4from17he4e8d4594ab3988eE
ffffff00002d2990 T _ZN2ux10conversion72_$LT$impl$u20$core..convert..From$LT$ux..i46$GT$$u20$for$u20$ux..i53$GT$4from17h8a444abc26b2a063E
ffffff00002d2990 T _ZN2ux10conversion72_$LT$impl$u20$core..convert..From$LT$ux..i46$GT$$u20$for$u20$ux..i54$GT$4from17heda2c9ea7075a861E
ffffff00002d2990 T _ZN2ux10conversion72_$LT$impl$u20$core..convert..From$LT$ux..i46$GT$$u20$for$u20$ux..i55$GT$4from17hc7cf99f244439e1fE
ffffff00002d2990 T _ZN2ux10conversion72_$LT$impl$u20$core..convert..From$LT$ux..i46$GT$$u20$for$u20$ux..i56$GT$4from17h49ded0f2a5742b6eE
ffffff00002d2990 T _ZN2ux10conversion72_$LT$impl$u20$core..convert..From$LT$ux..i46$GT$$u20$for$u20$ux..i57$GT$4from17hbda48e12ae1afaa1E
ffffff00002d2990 T _ZN2ux10conversion72_$LT$impl$u20$core..convert..From$LT$ux..i46$GT$$u20$for$u20$ux..i58$GT$4from17hd1df36e9b33cf0d3E
ffffff00002d2990 T _ZN2ux10conversion72_$LT$impl$u20$core..convert..From$LT$ux..i46$GT$$u20$for$u20$ux..i59$GT$4from17h2b76aba17ac942c6E
ffffff00002d2990 T _ZN2ux10conversion72_$LT$impl$u20$core..convert..From$LT$ux..i46$GT$$u20$for$u20$ux..i60$GT$4from17hcb794e8095ab7dfaE
ffffff00002d2990 T _ZN2ux10conversion72_$LT$impl$u20$core..convert..From$LT$ux..i46$GT$$u20$for$u20$ux..i61$GT$4from17ha3280f20bbb67babE
ffffff00002d2990 T _ZN2ux10conversion72_$LT$impl$u20$core..convert..From$LT$ux..i46$GT$$u20$for$u20$ux..i62$GT$4from17hfc857d847971b748E
ffffff00002d2990 T _ZN2ux10conversion72_$LT$impl$u20$core..convert..From$LT$ux..i46$GT$$u20$for$u20$ux..i63$GT$4from17he0b0487d4492a445E
ffffff00002d2990 T _ZN2ux10conversion72_$LT$impl$u20$core..convert..From$LT$ux..i47$GT$$u20$for$u20$ux..i48$GT$4from17h5139f376badaa9b9E
ffffff00002d2990 T _ZN2ux10conversion72_$LT$impl$u20$core..convert..From$LT$ux..i47$GT$$u20$for$u20$ux..i49$GT$4from17ha56c3249f8395a94E
ffffff00002d2990 T _ZN2ux10conversion72_$LT$impl$u20$core..convert..From$LT$ux..i47$GT$$u20$for$u20$ux..i50$GT$4from17ha3b21645ea850e4aE
ffffff00002d2990 T _ZN2ux10conversion72_$LT$impl$u20$core..convert..From$LT$ux..i47$GT$$u20$for$u20$ux..i51$GT$4from17he35a4559b69f7c82E
ffffff00002d2990 T _ZN2ux10conversion72_$LT$impl$u20$core..convert..From$LT$ux..i47$GT$$u20$for$u20$ux..i52$GT$4from17h81894e1d815dc13cE
ffffff00002d2990 T _ZN2ux10conversion72_$LT$impl$u20$core..convert..From$LT$ux..i47$GT$$u20$for$u20$ux..i53$GT$4from17h41b027fafaf5c91bE
ffffff00002d2990 T _ZN2ux10conversion72_$LT$impl$u20$core..convert..From$LT$ux..i47$GT$$u20$for$u20$ux..i54$GT$4from17h885a09055bfeb489E
ffffff00002d2990 T _ZN2ux10conversion72_$LT$impl$u20$core..convert..From$LT$ux..i47$GT$$u20$for$u20$ux..i55$GT$4from17hdbd1f074f52a5859E
ffffff00002d2990 T _ZN2ux10conversion72_$LT$impl$u20$core..convert..From$LT$ux..i47$GT$$u20$for$u20$ux..i56$GT$4from17hf18098e62726ea52E
ffffff00002d2990 T _ZN2ux10conversion72_$LT$impl$u20$core..convert..From$LT$ux..i47$GT$$u20$for$u20$ux..i57$GT$4from17hbe21e654f5db42feE
ffffff00002d2990 T _ZN2ux10conversion72_$LT$impl$u20$core..convert..From$LT$ux..i47$GT$$u20$for$u20$ux..i58$GT$4from17h2696a82f6066997bE
ffffff00002d2990 T _ZN2ux10conversion72_$LT$impl$u20$core..convert..From$LT$ux..i47$GT$$u20$for$u20$ux..i59$GT$4from17h591c30bf646150c0E
ffffff00002d2990 T _ZN2ux10conversion72_$LT$impl$u20$core..convert..From$LT$ux..i47$GT$$u20$for$u20$ux..i60$GT$4from17h1e70fd5d22aff02aE
ffffff00002d2990 T _ZN2ux10conversion72_$LT$impl$u20$core..convert..From$LT$ux..i47$GT$$u20$for$u20$ux..i61$GT$4from17h67fc3003db42cb32E
ffffff00002d2990 T _ZN2ux10conversion72_$LT$impl$u20$core..convert..From$LT$ux..i47$GT$$u20$for$u20$ux..i62$GT$4from17h9b6afeb41af71debE
ffffff00002d2990 T _ZN2ux10conversion72_$LT$impl$u20$core..convert..From$LT$ux..i47$GT$$u20$for$u20$ux..i63$GT$4from17h588a4e0aae8b2b96E
ffffff00002d2990 T _ZN2ux10conversion72_$LT$impl$u20$core..convert..From$LT$ux..i48$GT$$u20$for$u20$ux..i49$GT$4from17h7e9ed5c9e9f8f193E
ffffff00002d2990 T _ZN2ux10conversion72_$LT$impl$u20$core..convert..From$LT$ux..i48$GT$$u20$for$u20$ux..i50$GT$4from17h2fddfcefd151b59dE
ffffff00002d2990 T _ZN2ux10conversion72_$LT$impl$u20$core..convert..From$LT$ux..i48$GT$$u20$for$u20$ux..i51$GT$4from17h987c6e1fd0833c13E
ffffff00002d2990 T _ZN2ux10conversion72_$LT$impl$u20$core..convert..From$LT$ux..i48$GT$$u20$for$u20$ux..i52$GT$4from17hd72a9443d51796a4E
ffffff00002d2990 T _ZN2ux10conversion72_$LT$impl$u20$core..convert..From$LT$ux..i48$GT$$u20$for$u20$ux..i53$GT$4from17h9c34e30ec7616360E
ffffff00002d2990 T _ZN2ux10conversion72_$LT$impl$u20$core..convert..From$LT$ux..i48$GT$$u20$for$u20$ux..i54$GT$4from17h0de7a0bae1c66113E
ffffff00002d2990 T _ZN2ux10conversion72_$LT$impl$u20$core..convert..From$LT$ux..i48$GT$$u20$for$u20$ux..i55$GT$4from17h9692ca65a5279814E
ffffff00002d2990 T _ZN2ux10conversion72_$LT$impl$u20$core..convert..From$LT$ux..i48$GT$$u20$for$u20$ux..i56$GT$4from17he9825b9af5704da4E
ffffff00002d2990 T _ZN2ux10conversion72_$LT$impl$u20$core..convert..From$LT$ux..i48$GT$$u20$for$u20$ux..i57$GT$4from17h8ae079ab4b7d2d41E
ffffff00002d2990 T _ZN2ux10conversion72_$LT$impl$u20$core..convert..From$LT$ux..i48$GT$$u20$for$u20$ux..i58$GT$4from17hb7f687af56d5d5a7E
ffffff00002d2990 T _ZN2ux10conversion72_$LT$impl$u20$core..convert..From$LT$ux..i48$GT$$u20$for$u20$ux..i59$GT$4from17h4a0361647c266f4aE
ffffff00002d2990 T _ZN2ux10conversion72_$LT$impl$u20$core..convert..From$LT$ux..i48$GT$$u20$for$u20$ux..i60$GT$4from17h761388b05a466126E
ffffff00002d2990 T _ZN2ux10conversion72_$LT$impl$u20$core..convert..From$LT$ux..i48$GT$$u20$for$u20$ux..i61$GT$4from17h70887b26f4caf79eE
ffffff00002d2990 T _ZN2ux10conversion72_$LT$impl$u20$core..convert..From$LT$ux..i48$GT$$u20$for$u20$ux..i62$GT$4from17h34e0f8c38975bff8E
ffffff00002d2990 T _ZN2ux10conversion72_$LT$impl$u20$core..convert..From$LT$ux..i48$GT$$u20$for$u20$ux..i63$GT$4from17he1669c80a823bee9E
ffffff00002d2990 T _ZN2ux10conversion72_$LT$impl$u20$core..convert..From$LT$ux..i49$GT$$u20$for$u20$ux..i50$GT$4from17h1b19da916d6cb503E
ffffff00002d2990 T _ZN2ux10conversion72_$LT$impl$u20$core..convert..From$LT$ux..i49$GT$$u20$for$u20$ux..i51$GT$4from17h3148783cdb55d564E
ffffff00002d2990 T _ZN2ux10conversion72_$LT$impl$u20$core..convert..From$LT$ux..i49$GT$$u20$for$u20$ux..i52$GT$4from17h1065495ce5344954E
ffffff00002d2990 T _ZN2ux10conversion72_$LT$impl$u20$core..convert..From$LT$ux..i49$GT$$u20$for$u20$ux..i53$GT$4from17h212a59b8d15360c3E
ffffff00002d2990 T _ZN2ux10conversion72_$LT$impl$u20$core..convert..From$LT$ux..i49$GT$$u20$for$u20$ux..i54$GT$4from17hf0ab65f67bcea956E
ffffff00002d2990 T _ZN2ux10conversion72_$LT$impl$u20$core..convert..From$LT$ux..i49$GT$$u20$for$u20$ux..i55$GT$4from17h9d7e47605888925eE
ffffff00002d2990 T _ZN2ux10conversion72_$LT$impl$u20$core..convert..From$LT$ux..i49$GT$$u20$for$u20$ux..i56$GT$4from17h2028b2a8132b0b64E
ffffff00002d2990 T _ZN2ux10conversion72_$LT$impl$u20$core..convert..From$LT$ux..i49$GT$$u20$for$u20$ux..i57$GT$4from17hdcc14d71635d3977E
ffffff00002d2990 T _ZN2ux10conversion72_$LT$impl$u20$core..convert..From$LT$ux..i49$GT$$u20$for$u20$ux..i58$GT$4from17hab4e5693183d949aE
ffffff00002d2990 T _ZN2ux10conversion72_$LT$impl$u20$core..convert..From$LT$ux..i49$GT$$u20$for$u20$ux..i59$GT$4from17hef8ec7bc1c514853E
ffffff00002d2990 T _ZN2ux10conversion72_$LT$impl$u20$core..convert..From$LT$ux..i49$GT$$u20$for$u20$ux..i60$GT$4from17h955051fd2bd2d595E
ffffff00002d2990 T _ZN2ux10conversion72_$LT$impl$u20$core..convert..From$LT$ux..i49$GT$$u20$for$u20$ux..i61$GT$4from17h5fd580038352dfe8E
ffffff00002d2990 T _ZN2ux10conversion72_$LT$impl$u20$core..convert..From$LT$ux..i49$GT$$u20$for$u20$ux..i62$GT$4from17h5690e66f35570498E
ffffff00002d2990 T _ZN2ux10conversion72_$LT$impl$u20$core..convert..From$LT$ux..i49$GT$$u20$for$u20$ux..i63$GT$4from17hdd3251cc69aff127E
ffffff00002d2990 T _ZN2ux10conversion72_$LT$impl$u20$core..convert..From$LT$ux..i50$GT$$u20$for$u20$ux..i51$GT$4from17hc2767d9be9cbdf87E
ffffff00002d2990 T _ZN2ux10conversion72_$LT$impl$u20$core..convert..From$LT$ux..i50$GT$$u20$for$u20$ux..i52$GT$4from17h91cb4c1649d848f6E
ffffff00002d2990 T _ZN2ux10conversion72_$LT$impl$u20$core..convert..From$LT$ux..i50$GT$$u20$for$u20$ux..i53$GT$4from17h576d78d9ee735d9eE
ffffff00002d2990 T _ZN2ux10conversion72_$LT$impl$u20$core..convert..From$LT$ux..i50$GT$$u20$for$u20$ux..i54$GT$4from17hee9de7032f937f57E
ffffff00002d2990 T _ZN2ux10conversion72_$LT$impl$u20$core..convert..From$LT$ux..i50$GT$$u20$for$u20$ux..i55$GT$4from17h55c14a2f68c60030E
ffffff00002d2990 T _ZN2ux10conversion72_$LT$impl$u20$core..convert..From$LT$ux..i50$GT$$u20$for$u20$ux..i56$GT$4from17hcec85e161d42d7baE
ffffff00002d2990 T _ZN2ux10conversion72_$LT$impl$u20$core..convert..From$LT$ux..i50$GT$$u20$for$u20$ux..i57$GT$4from17h1985f6755fca4031E
ffffff00002d2990 T _ZN2ux10conversion72_$LT$impl$u20$core..convert..From$LT$ux..i50$GT$$u20$for$u20$ux..i58$GT$4from17h3e1fe6bf8449066aE
ffffff00002d2990 T _ZN2ux10conversion72_$LT$impl$u20$core..convert..From$LT$ux..i50$GT$$u20$for$u20$ux..i59$GT$4from17h83da832b4521f1b3E
ffffff00002d2990 T _ZN2ux10conversion72_$LT$impl$u20$core..convert..From$LT$ux..i50$GT$$u20$for$u20$ux..i60$GT$4from17h773b6e71c7116462E
ffffff00002d2990 T _ZN2ux10conversion72_$LT$impl$u20$core..convert..From$LT$ux..i50$GT$$u20$for$u20$ux..i61$GT$4from17h3e6a1ea8ce13c5adE
ffffff00002d2990 T _ZN2ux10conversion72_$LT$impl$u20$core..convert..From$LT$ux..i50$GT$$u20$for$u20$ux..i62$GT$4from17h0c76c65986a93891E
ffffff00002d2990 T _ZN2ux10conversion72_$LT$impl$u20$core..convert..From$LT$ux..i50$GT$$u20$for$u20$ux..i63$GT$4from17hd6fd876db5ef3b04E
ffffff00002d2990 T _ZN2ux10conversion72_$LT$impl$u20$core..convert..From$LT$ux..i51$GT$$u20$for$u20$ux..i52$GT$4from17h6f193f94bfd81651E
ffffff00002d2990 T _ZN2ux10conversion72_$LT$impl$u20$core..convert..From$LT$ux..i51$GT$$u20$for$u20$ux..i53$GT$4from17hd7c0a0eedd3bd8a3E
ffffff00002d2990 T _ZN2ux10conversion72_$LT$impl$u20$core..convert..From$LT$ux..i51$GT$$u20$for$u20$ux..i54$GT$4from17h3c0318b5fb80e7c1E
ffffff00002d2990 T _ZN2ux10conversion72_$LT$impl$u20$core..convert..From$LT$ux..i51$GT$$u20$for$u20$ux..i55$GT$4from17heb20c1094e456af3E
ffffff00002d2990 T _ZN2ux10conversion72_$LT$impl$u20$core..convert..From$LT$ux..i51$GT$$u20$for$u20$ux..i56$GT$4from17h9921797efb1e372eE
ffffff00002d2990 T _ZN2ux10conversion72_$LT$impl$u20$core..convert..From$LT$ux..i51$GT$$u20$for$u20$ux..i57$GT$4from17h16463e62f06e2778E
ffffff00002d2990 T _ZN2ux10conversion72_$LT$impl$u20$core..convert..From$LT$ux..i51$GT$$u20$for$u20$ux..i58$GT$4from17h0b27ebd4aa429171E
ffffff00002d2990 T _ZN2ux10conversion72_$LT$impl$u20$core..convert..From$LT$ux..i51$GT$$u20$for$u20$ux..i59$GT$4from17hed52f6f7dbaa4c62E
ffffff00002d2990 T _ZN2ux10conversion72_$LT$impl$u20$core..convert..From$LT$ux..i51$GT$$u20$for$u20$ux..i60$GT$4from17h1789b6c6bf195de2E
ffffff00002d2990 T _ZN2ux10conversion72_$LT$impl$u20$core..convert..From$LT$ux..i51$GT$$u20$for$u20$ux..i61$GT$4from17h0b2ead999b8204fcE
ffffff00002d2990 T _ZN2ux10conversion72_$LT$impl$u20$core..convert..From$LT$ux..i51$GT$$u20$for$u20$ux..i62$GT$4from17h325c94674d4ca9a2E
ffffff00002d2990 T _ZN2ux10conversion72_$LT$impl$u20$core..convert..From$LT$ux..i51$GT$$u20$for$u20$ux..i63$GT$4from17ha238aab1762b1b54E
ffffff00002d2990 T _ZN2ux10conversion72_$LT$impl$u20$core..convert..From$LT$ux..i52$GT$$u20$for$u20$ux..i53$GT$4from17hb3a8e5d37ede3e82E
ffffff00002d2990 T _ZN2ux10conversion72_$LT$impl$u20$core..convert..From$LT$ux..i52$GT$$u20$for$u20$ux..i54$GT$4from17h5a0316dc8ad9ba77E
ffffff00002d2990 T _ZN2ux10conversion72_$LT$impl$u20$core..convert..From$LT$ux..i52$GT$$u20$for$u20$ux..i55$GT$4from17h4bced01c662f218fE
ffffff00002d2990 T _ZN2ux10conversion72_$LT$impl$u20$core..convert..From$LT$ux..i52$GT$$u20$for$u20$ux..i56$GT$4from17he1a84c0f4b603f44E
ffffff00002d2990 T _ZN2ux10conversion72_$LT$impl$u20$core..convert..From$LT$ux..i52$GT$$u20$for$u20$ux..i57$GT$4from17h3c8b27e7ab3702ffE
ffffff00002d2990 T _ZN2ux10conversion72_$LT$impl$u20$core..convert..From$LT$ux..i52$GT$$u20$for$u20$ux..i58$GT$4from17h83ee54e7e4561cdbE
ffffff00002d2990 T _ZN2ux10conversion72_$LT$impl$u20$core..convert..From$LT$ux..i52$GT$$u20$for$u20$ux..i59$GT$4from17h3230285bc9785581E
ffffff00002d2990 T _ZN2ux10conversion72_$LT$impl$u20$core..convert..From$LT$ux..i52$GT$$u20$for$u20$ux..i60$GT$4from17h13024e2d9d65842aE
ffffff00002d2990 T _ZN2ux10conversion72_$LT$impl$u20$core..convert..From$LT$ux..i52$GT$$u20$for$u20$ux..i61$GT$4from17h27f62ddb248b63baE
ffffff00002d2990 T _ZN2ux10conversion72_$LT$impl$u20$core..convert..From$LT$ux..i52$GT$$u20$for$u20$ux..i62$GT$4from17hd0609a739d128f34E
ffffff00002d2990 T _ZN2ux10conversion72_$LT$impl$u20$core..convert..From$LT$ux..i52$GT$$u20$for$u20$ux..i63$GT$4from17hdbf85c7f6ef79a7bE
ffffff00002d2990 T _ZN2ux10conversion72_$LT$impl$u20$core..convert..From$LT$ux..i53$GT$$u20$for$u20$ux..i54$GT$4from17h168a8f93f648e2daE
ffffff00002d2990 T _ZN2ux10conversion72_$LT$impl$u20$core..convert..From$LT$ux..i53$GT$$u20$for$u20$ux..i55$GT$4from17h1e66c7b671656328E
ffffff00002d2990 T _ZN2ux10conversion72_$LT$impl$u20$core..convert..From$LT$ux..i53$GT$$u20$for$u20$ux..i56$GT$4from17h7d4e29157e98a5c2E
ffffff00002d2990 T _ZN2ux10conversion72_$LT$impl$u20$core..convert..From$LT$ux..i53$GT$$u20$for$u20$ux..i57$GT$4from17h77910b3a420f0dcaE
ffffff00002d2990 T _ZN2ux10conversion72_$LT$impl$u20$core..convert..From$LT$ux..i53$GT$$u20$for$u20$ux..i58$GT$4from17haa01599ee5d784c9E
ffffff00002d2990 T _ZN2ux10conversion72_$LT$impl$u20$core..convert..From$LT$ux..i53$GT$$u20$for$u20$ux..i59$GT$4from17h46f93f1fbac2bb2aE
ffffff00002d2990 T _ZN2ux10conversion72_$LT$impl$u20$core..convert..From$LT$ux..i53$GT$$u20$for$u20$ux..i60$GT$4from17h6af88ab77a34bc04E
ffffff00002d2990 T _ZN2ux10conversion72_$LT$impl$u20$core..convert..From$LT$ux..i53$GT$$u20$for$u20$ux..i61$GT$4from17h6c54ed767975b6ccE
ffffff00002d2990 T _ZN2ux10conversion72_$LT$impl$u20$core..convert..From$LT$ux..i53$GT$$u20$for$u20$ux..i62$GT$4from17h5cd01e7cecf6b162E
ffffff00002d2990 T _ZN2ux10conversion72_$LT$impl$u20$core..convert..From$LT$ux..i53$GT$$u20$for$u20$ux..i63$GT$4from17h7356595ab8cde52cE
ffffff00002d2990 T _ZN2ux10conversion72_$LT$impl$u20$core..convert..From$LT$ux..i54$GT$$u20$for$u20$ux..i55$GT$4from17hf4a9662c838d36ccE
ffffff00002d2990 T _ZN2ux10conversion72_$LT$impl$u20$core..convert..From$LT$ux..i54$GT$$u20$for$u20$ux..i56$GT$4from17hbe547b8de4058129E
ffffff00002d2990 T _ZN2ux10conversion72_$LT$impl$u20$core..convert..From$LT$ux..i54$GT$$u20$for$u20$ux..i57$GT$4from17h2c2c48d23e3de5bbE
ffffff00002d2990 T _ZN2ux10conversion72_$LT$impl$u20$core..convert..From$LT$ux..i54$GT$$u20$for$u20$ux..i58$GT$4from17he3c8e95a1e1ee2dcE
ffffff00002d2990 T _ZN2ux10conversion72_$LT$impl$u20$core..convert..From$LT$ux..i54$GT$$u20$for$u20$ux..i59$GT$4from17hfd4d72c26b8180e0E
ffffff00002d2990 T _ZN2ux10conversion72_$LT$impl$u20$core..convert..From$LT$ux..i54$GT$$u20$for$u20$ux..i60$GT$4from17h105371d3eb36c335E
ffffff00002d2990 T _ZN2ux10conversion72_$LT$impl$u20$core..convert..From$LT$ux..i54$GT$$u20$for$u20$ux..i61$GT$4from17h5e7a474e66199beaE
ffffff00002d2990 T _ZN2ux10conversion72_$LT$impl$u20$core..convert..From$LT$ux..i54$GT$$u20$for$u20$ux..i62$GT$4from17hda4ff02a231810b8E
ffffff00002d2990 T _ZN2ux10conversion72_$LT$impl$u20$core..convert..From$LT$ux..i54$GT$$u20$for$u20$ux..i63$GT$4from17hb775541adb705911E
ffffff00002d2990 T _ZN2ux10conversion72_$LT$impl$u20$core..convert..From$LT$ux..i55$GT$$u20$for$u20$ux..i56$GT$4from17h8b29cd57e2f337f9E
ffffff00002d2990 T _ZN2ux10conversion72_$LT$impl$u20$core..convert..From$LT$ux..i55$GT$$u20$for$u20$ux..i57$GT$4from17h8328d64b1144b506E
ffffff00002d2990 T _ZN2ux10conversion72_$LT$impl$u20$core..convert..From$LT$ux..i55$GT$$u20$for$u20$ux..i58$GT$4from17he37c840fea7fad7eE
ffffff00002d2990 T _ZN2ux10conversion72_$LT$impl$u20$core..convert..From$LT$ux..i55$GT$$u20$for$u20$ux..i59$GT$4from17h78303371913d36e4E
ffffff00002d2990 T _ZN2ux10conversion72_$LT$impl$u20$core..convert..From$LT$ux..i55$GT$$u20$for$u20$ux..i60$GT$4from17h34eb64160414e31bE
ffffff00002d2990 T _ZN2ux10conversion72_$LT$impl$u20$core..convert..From$LT$ux..i55$GT$$u20$for$u20$ux..i61$GT$4from17h9ccb52836d2a6c4dE
ffffff00002d2990 T _ZN2ux10conversion72_$LT$impl$u20$core..convert..From$LT$ux..i55$GT$$u20$for$u20$ux..i62$GT$4from17hfd35e0c995591fb6E
ffffff00002d2990 T _ZN2ux10conversion72_$LT$impl$u20$core..convert..From$LT$ux..i55$GT$$u20$for$u20$ux..i63$GT$4from17hffa4526eccb96fedE
ffffff00002d2990 T _ZN2ux10conversion72_$LT$impl$u20$core..convert..From$LT$ux..i56$GT$$u20$for$u20$ux..i57$GT$4from17hef2ddf4b68f2441dE
ffffff00002d2990 T _ZN2ux10conversion72_$LT$impl$u20$core..convert..From$LT$ux..i56$GT$$u20$for$u20$ux..i58$GT$4from17h482e8a3b9ae0553dE
ffffff00002d2990 T _ZN2ux10conversion72_$LT$impl$u20$core..convert..From$LT$ux..i56$GT$$u20$for$u20$ux..i59$GT$4from17h9cc333e9b56cb590E
ffffff00002d2990 T _ZN2ux10conversion72_$LT$impl$u20$core..convert..From$LT$ux..i56$GT$$u20$for$u20$ux..i60$GT$4from17h62467d62e8693355E
ffffff00002d2990 T _ZN2ux10conversion72_$LT$impl$u20$core..convert..From$LT$ux..i56$GT$$u20$for$u20$ux..i61$GT$4from17h3d1c54ff96b0f074E
ffffff00002d2990 T _ZN2ux10conversion72_$LT$impl$u20$core..convert..From$LT$ux..i56$GT$$u20$for$u20$ux..i62$GT$4from17h5f3b2806570e36a0E
ffffff00002d2990 T _ZN2ux10conversion72_$LT$impl$u20$core..convert..From$LT$ux..i56$GT$$u20$for$u20$ux..i63$GT$4from17h5991bfee55fb6d1cE
ffffff00002d2990 T _ZN2ux10conversion72_$LT$impl$u20$core..convert..From$LT$ux..i57$GT$$u20$for$u20$ux..i58$GT$4from17h3ccc407774feacb9E
ffffff00002d2990 T _ZN2ux10conversion72_$LT$impl$u20$core..convert..From$LT$ux..i57$GT$$u20$for$u20$ux..i59$GT$4from17h1d06a8e0cc29986eE
ffffff00002d2990 T _ZN2ux10conversion72_$LT$impl$u20$core..convert..From$LT$ux..i57$GT$$u20$for$u20$ux..i60$GT$4from17h600b958f888515b9E
ffffff00002d2990 T _ZN2ux10conversion72_$LT$impl$u20$core..convert..From$LT$ux..i57$GT$$u20$for$u20$ux..i61$GT$4from17hb840c551a54eebe4E
ffffff00002d2990 T _ZN2ux10conversion72_$LT$impl$u20$core..convert..From$LT$ux..i57$GT$$u20$for$u20$ux..i62$GT$4from17h0904a0b7a215d063E
ffffff00002d2990 T _ZN2ux10conversion72_$LT$impl$u20$core..convert..From$LT$ux..i57$GT$$u20$for$u20$ux..i63$GT$4from17h131a0531bc83ecc0E
ffffff00002d2990 T _ZN2ux10conversion72_$LT$impl$u20$core..convert..From$LT$ux..i58$GT$$u20$for$u20$ux..i59$GT$4from17h6d3f1eb584f91202E
ffffff00002d2990 T _ZN2ux10conversion72_$LT$impl$u20$core..convert..From$LT$ux..i58$GT$$u20$for$u20$ux..i60$GT$4from17h075a51ccfcb1be1dE
ffffff00002d2990 T _ZN2ux10conversion72_$LT$impl$u20$core..convert..From$LT$ux..i58$GT$$u20$for$u20$ux..i61$GT$4from17h60ae8034e7c81749E
ffffff00002d2990 T _ZN2ux10conversion72_$LT$impl$u20$core..convert..From$LT$ux..i58$GT$$u20$for$u20$ux..i62$GT$4from17h02562bac26c533dbE
ffffff00002d2990 T _ZN2ux10conversion72_$LT$impl$u20$core..convert..From$LT$ux..i58$GT$$u20$for$u20$ux..i63$GT$4from17hb6a9980914db7fc6E
ffffff00002d2990 T _ZN2ux10conversion72_$LT$impl$u20$core..convert..From$LT$ux..i59$GT$$u20$for$u20$ux..i60$GT$4from17h31da88cc86a3f9ffE
ffffff00002d2990 T _ZN2ux10conversion72_$LT$impl$u20$core..convert..From$LT$ux..i59$GT$$u20$for$u20$ux..i61$GT$4from17h930ccf17faae0fa8E
ffffff00002d2990 T _ZN2ux10conversion72_$LT$impl$u20$core..convert..From$LT$ux..i59$GT$$u20$for$u20$ux..i62$GT$4from17hfd05b4f81a31fafaE
ffffff00002d2990 T _ZN2ux10conversion72_$LT$impl$u20$core..convert..From$LT$ux..i59$GT$$u20$for$u20$ux..i63$GT$4from17h948d17c179c81686E
ffffff00002d2990 T _ZN2ux10conversion72_$LT$impl$u20$core..convert..From$LT$ux..i60$GT$$u20$for$u20$ux..i61$GT$4from17hc3c43b899f13abd9E
ffffff00002d2990 T _ZN2ux10conversion72_$LT$impl$u20$core..convert..From$LT$ux..i60$GT$$u20$for$u20$ux..i62$GT$4from17h74ad6444119d0b63E
ffffff00002d2990 T _ZN2ux10conversion72_$LT$impl$u20$core..convert..From$LT$ux..i60$GT$$u20$for$u20$ux..i63$GT$4from17h4f843ae99b4ea303E
ffffff00002d2990 T _ZN2ux10conversion72_$LT$impl$u20$core..convert..From$LT$ux..i61$GT$$u20$for$u20$ux..i62$GT$4from17h317d9dfea4584788E
ffffff00002d2990 T _ZN2ux10conversion72_$LT$impl$u20$core..convert..From$LT$ux..i61$GT$$u20$for$u20$ux..i63$GT$4from17hf8c66d61cb2ab934E
ffffff00002d2990 T _ZN2ux10conversion72_$LT$impl$u20$core..convert..From$LT$ux..i62$GT$$u20$for$u20$ux..i63$GT$4from17h94dd376dce40bbeaE
ffffff00002d2970 T _ZN2ux10conversion72_$LT$impl$u20$core..convert..From$LT$ux..u10$GT$$u20$for$u20$ux..u11$GT$4from17ha74e8bb0c9000bf8E
ffffff00002d2970 T _ZN2ux10conversion72_$LT$impl$u20$core..convert..From$LT$ux..u10$GT$$u20$for$u20$ux..u12$GT$4from17hdb55a93a4886051fE
ffffff00002d2970 T _ZN2ux10conversion72_$LT$impl$u20$core..convert..From$LT$ux..u10$GT$$u20$for$u20$ux..u13$GT$4from17ha0ad32960ec95128E
ffffff00002d2970 T _ZN2ux10conversion72_$LT$impl$u20$core..convert..From$LT$ux..u10$GT$$u20$for$u20$ux..u14$GT$4from17h86f7b337e961906aE
ffffff00002d2970 T _ZN2ux10conversion72_$LT$impl$u20$core..convert..From$LT$ux..u10$GT$$u20$for$u20$ux..u15$GT$4from17he148308bc6296d67E
ffffff00002d28d0 T _ZN2ux10conversion72_$LT$impl$u20$core..convert..From$LT$ux..u10$GT$$u20$for$u20$ux..u17$GT$4from17h3bce5f6a54f21163E
ffffff00002d28d0 T _ZN2ux10conversion72_$LT$impl$u20$core..convert..From$LT$ux..u10$GT$$u20$for$u20$ux..u18$GT$4from17h66878e0e7c1044e0E
ffffff00002d28d0 T _ZN2ux10conversion72_$LT$impl$u20$core..convert..From$LT$ux..u10$GT$$u20$for$u20$ux..u19$GT$4from17h8530c9b3bea6b33dE
ffffff00002d28d0 T _ZN2ux10conversion72_$LT$impl$u20$core..convert..From$LT$ux..u10$GT$$u20$for$u20$ux..u20$GT$4from17h76e06a4670e92fe5E
ffffff00002d28d0 T _ZN2ux10conversion72_$LT$impl$u20$core..convert..From$LT$ux..u10$GT$$u20$for$u20$ux..u21$GT$4from17h0c8fab8a2e99745eE
ffffff00002d28d0 T _ZN2ux10conversion72_$LT$impl$u20$core..convert..From$LT$ux..u10$GT$$u20$for$u20$ux..u22$GT$4from17h2340d7fdf131f3d5E
ffffff00002d28d0 T _ZN2ux10conversion72_$LT$impl$u20$core..convert..From$LT$ux..u10$GT$$u20$for$u20$ux..u23$GT$4from17hbeb98a5b32e628e7E
ffffff00002d28d0 T _ZN2ux10conversion72_$LT$impl$u20$core..convert..From$LT$ux..u10$GT$$u20$for$u20$ux..u24$GT$4from17h608e0f79567dfb4fE
ffffff00002d28d0 T _ZN2ux10conversion72_$LT$impl$u20$core..convert..From$LT$ux..u10$GT$$u20$for$u20$ux..u25$GT$4from17h22fb2b007f7a083cE
ffffff00002d28d0 T _ZN2ux10conversion72_$LT$impl$u20$core..convert..From$LT$ux..u10$GT$$u20$for$u20$ux..u26$GT$4from17h08d9e128e05d88edE
ffffff00002d28d0 T _ZN2ux10conversion72_$LT$impl$u20$core..convert..From$LT$ux..u10$GT$$u20$for$u20$ux..u27$GT$4from17hda43b6b59997e622E
ffffff00002d28d0 T _ZN2ux10conversion72_$LT$impl$u20$core..convert..From$LT$ux..u10$GT$$u20$for$u20$ux..u28$GT$4from17hc97ef0839fd8a35eE
ffffff00002d28d0 T _ZN2ux10conversion72_$LT$impl$u20$core..convert..From$LT$ux..u10$GT$$u20$for$u20$ux..u29$GT$4from17h71f4fe303a3bf6a8E
ffffff00002d28d0 T _ZN2ux10conversion72_$LT$impl$u20$core..convert..From$LT$ux..u10$GT$$u20$for$u20$ux..u30$GT$4from17h7f375ef3ae306dc7E
ffffff00002d28d0 T _ZN2ux10conversion72_$LT$impl$u20$core..convert..From$LT$ux..u10$GT$$u20$for$u20$ux..u31$GT$4from17h297650d62431bfbdE
ffffff00002d28e0 T _ZN2ux10conversion72_$LT$impl$u20$core..convert..From$LT$ux..u10$GT$$u20$for$u20$ux..u33$GT$4from17h97c35a14f2e7dcc2E
ffffff00002d28e0 T _ZN2ux10conversion72_$LT$impl$u20$core..convert..From$LT$ux..u10$GT$$u20$for$u20$ux..u34$GT$4from17h9e4540b1b9765ec4E
ffffff00002d28e0 T _ZN2ux10conversion72_$LT$impl$u20$core..convert..From$LT$ux..u10$GT$$u20$for$u20$ux..u35$GT$4from17h2e5e2a2760f40b28E
ffffff00002d28e0 T _ZN2ux10conversion72_$LT$impl$u20$core..convert..From$LT$ux..u10$GT$$u20$for$u20$ux..u36$GT$4from17hf55df0bb8a4c2133E
ffffff00002d28e0 T _ZN2ux10conversion72_$LT$impl$u20$core..convert..From$LT$ux..u10$GT$$u20$for$u20$ux..u37$GT$4from17h350d406be62d3529E
ffffff00002d28e0 T _ZN2ux10conversion72_$LT$impl$u20$core..convert..From$LT$ux..u10$GT$$u20$for$u20$ux..u38$GT$4from17h6b13ce429e3c00d4E
ffffff00002d28e0 T _ZN2ux10conversion72_$LT$impl$u20$core..convert..From$LT$ux..u10$GT$$u20$for$u20$ux..u39$GT$4from17h66b1feae24d2c2e0E
ffffff00002d28e0 T _ZN2ux10conversion72_$LT$impl$u20$core..convert..From$LT$ux..u10$GT$$u20$for$u20$ux..u40$GT$4from17h320e8d5990cb7b66E
ffffff00002d28e0 T _ZN2ux10conversion72_$LT$impl$u20$core..convert..From$LT$ux..u10$GT$$u20$for$u20$ux..u41$GT$4from17h451197864db0ce1bE
ffffff00002d28e0 T _ZN2ux10conversion72_$LT$impl$u20$core..convert..From$LT$ux..u10$GT$$u20$for$u20$ux..u42$GT$4from17habc64dd22b45a54dE
ffffff00002d28e0 T _ZN2ux10conversion72_$LT$impl$u20$core..convert..From$LT$ux..u10$GT$$u20$for$u20$ux..u43$GT$4from17h726bf1ae94db5380E
ffffff00002d28e0 T _ZN2ux10conversion72_$LT$impl$u20$core..convert..From$LT$ux..u10$GT$$u20$for$u20$ux..u44$GT$4from17hae1c11ad7500fbe1E
ffffff00002d28e0 T _ZN2ux10conversion72_$LT$impl$u20$core..convert..From$LT$ux..u10$GT$$u20$for$u20$ux..u45$GT$4from17h1ee9d92c9ebf6b96E
ffffff00002d28e0 T _ZN2ux10conversion72_$LT$impl$u20$core..convert..From$LT$ux..u10$GT$$u20$for$u20$ux..u46$GT$4from17h836c67b7d0b95078E
ffffff00002d28e0 T _ZN2ux10conversion72_$LT$impl$u20$core..convert..From$LT$ux..u10$GT$$u20$for$u20$ux..u47$GT$4from17hbfdd84608774d0d8E
ffffff00002d28e0 T _ZN2ux10conversion72_$LT$impl$u20$core..convert..From$LT$ux..u10$GT$$u20$for$u20$ux..u48$GT$4from17hb4f7377ed4ec33c4E
ffffff00002d28e0 T _ZN2ux10conversion72_$LT$impl$u20$core..convert..From$LT$ux..u10$GT$$u20$for$u20$ux..u49$GT$4from17h34c3ca04aadbe484E
ffffff00002d28e0 T _ZN2ux10conversion72_$LT$impl$u20$core..convert..From$LT$ux..u10$GT$$u20$for$u20$ux..u50$GT$4from17h24d31b70a94a93f0E
ffffff00002d28e0 T _ZN2ux10conversion72_$LT$impl$u20$core..convert..From$LT$ux..u10$GT$$u20$for$u20$ux..u51$GT$4from17h0152d0e0d4cf746bE
ffffff00002d28e0 T _ZN2ux10conversion72_$LT$impl$u20$core..convert..From$LT$ux..u10$GT$$u20$for$u20$ux..u52$GT$4from17h9786b39e96b08f83E
ffffff00002d28e0 T _ZN2ux10conversion72_$LT$impl$u20$core..convert..From$LT$ux..u10$GT$$u20$for$u20$ux..u53$GT$4from17h98f500ec7b6cbc93E
ffffff00002d28e0 T _ZN2ux10conversion72_$LT$impl$u20$core..convert..From$LT$ux..u10$GT$$u20$for$u20$ux..u54$GT$4from17h345ab2dc22166e67E
ffffff00002d28e0 T _ZN2ux10conversion72_$LT$impl$u20$core..convert..From$LT$ux..u10$GT$$u20$for$u20$ux..u55$GT$4from17h1e67ef67348e129bE
ffffff00002d28e0 T _ZN2ux10conversion72_$LT$impl$u20$core..convert..From$LT$ux..u10$GT$$u20$for$u20$ux..u56$GT$4from17h028f935551f74dcbE
ffffff00002d28e0 T _ZN2ux10conversion72_$LT$impl$u20$core..convert..From$LT$ux..u10$GT$$u20$for$u20$ux..u57$GT$4from17h41bee82e3a5a2a1dE
ffffff00002d28e0 T _ZN2ux10conversion72_$LT$impl$u20$core..convert..From$LT$ux..u10$GT$$u20$for$u20$ux..u58$GT$4from17h16b788640ab09c6bE
ffffff00002d28e0 T _ZN2ux10conversion72_$LT$impl$u20$core..convert..From$LT$ux..u10$GT$$u20$for$u20$ux..u59$GT$4from17h4c314f09c08f7135E
ffffff00002d28e0 T _ZN2ux10conversion72_$LT$impl$u20$core..convert..From$LT$ux..u10$GT$$u20$for$u20$ux..u60$GT$4from17hd81b62111252dd2eE
ffffff00002d28e0 T _ZN2ux10conversion72_$LT$impl$u20$core..convert..From$LT$ux..u10$GT$$u20$for$u20$ux..u61$GT$4from17h7be4bc9a19645a6fE
ffffff00002d28e0 T _ZN2ux10conversion72_$LT$impl$u20$core..convert..From$LT$ux..u10$GT$$u20$for$u20$ux..u62$GT$4from17hf5b7901aad9f3fd4E
ffffff00002d28e0 T _ZN2ux10conversion72_$LT$impl$u20$core..convert..From$LT$ux..u10$GT$$u20$for$u20$ux..u63$GT$4from17h725bd47891ed655fE
ffffff00002d2970 T _ZN2ux10conversion72_$LT$impl$u20$core..convert..From$LT$ux..u11$GT$$u20$for$u20$ux..u12$GT$4from17ha2aecf85461cdcceE
ffffff00002d2970 T _ZN2ux10conversion72_$LT$impl$u20$core..convert..From$LT$ux..u11$GT$$u20$for$u20$ux..u13$GT$4from17h75449617782ed311E
ffffff00002d2970 T _ZN2ux10conversion72_$LT$impl$u20$core..convert..From$LT$ux..u11$GT$$u20$for$u20$ux..u14$GT$4from17hf2a463404cccfc47E
ffffff00002d2970 T _ZN2ux10conversion72_$LT$impl$u20$core..convert..From$LT$ux..u11$GT$$u20$for$u20$ux..u15$GT$4from17h9c9883651515993bE
ffffff00002d28d0 T _ZN2ux10conversion72_$LT$impl$u20$core..convert..From$LT$ux..u11$GT$$u20$for$u20$ux..u17$GT$4from17h24510d73f94c4e5cE
ffffff00002d28d0 T _ZN2ux10conversion72_$LT$impl$u20$core..convert..From$LT$ux..u11$GT$$u20$for$u20$ux..u18$GT$4from17hb2eff16d286b83fcE
ffffff00002d28d0 T _ZN2ux10conversion72_$LT$impl$u20$core..convert..From$LT$ux..u11$GT$$u20$for$u20$ux..u19$GT$4from17h596bbfc5ce0468faE
ffffff00002d28d0 T _ZN2ux10conversion72_$LT$impl$u20$core..convert..From$LT$ux..u11$GT$$u20$for$u20$ux..u20$GT$4from17h43869460290c6b7cE
ffffff00002d28d0 T _ZN2ux10conversion72_$LT$impl$u20$core..convert..From$LT$ux..u11$GT$$u20$for$u20$ux..u21$GT$4from17h2096d30f0eb1a777E
ffffff00002d28d0 T _ZN2ux10conversion72_$LT$impl$u20$core..convert..From$LT$ux..u11$GT$$u20$for$u20$ux..u22$GT$4from17h42a9cca64430f44dE
ffffff00002d28d0 T _ZN2ux10conversion72_$LT$impl$u20$core..convert..From$LT$ux..u11$GT$$u20$for$u20$ux..u23$GT$4from17had845368b0b1c9d0E
ffffff00002d28d0 T _ZN2ux10conversion72_$LT$impl$u20$core..convert..From$LT$ux..u11$GT$$u20$for$u20$ux..u24$GT$4from17hd8abc0414a309f42E
ffffff00002d28d0 T _ZN2ux10conversion72_$LT$impl$u20$core..convert..From$LT$ux..u11$GT$$u20$for$u20$ux..u25$GT$4from17h006c337d905032b8E
ffffff00002d28d0 T _ZN2ux10conversion72_$LT$impl$u20$core..convert..From$LT$ux..u11$GT$$u20$for$u20$ux..u26$GT$4from17h4f69c0667e8493f2E
ffffff00002d28d0 T _ZN2ux10conversion72_$LT$impl$u20$core..convert..From$LT$ux..u11$GT$$u20$for$u20$ux..u27$GT$4from17hf241485c5aa12ed1E
ffffff00002d28d0 T _ZN2ux10conversion72_$LT$impl$u20$core..convert..From$LT$ux..u11$GT$$u20$for$u20$ux..u28$GT$4from17h322faf658a798842E
ffffff00002d28d0 T _ZN2ux10conversion72_$LT$impl$u20$core..convert..From$LT$ux..u11$GT$$u20$for$u20$ux..u29$GT$4from17hd02d319bb2ff000cE
ffffff00002d28d0 T _ZN2ux10conversion72_$LT$impl$u20$core..convert..From$LT$ux..u11$GT$$u20$for$u20$ux..u30$GT$4from17h808fd442cb8fbb4dE
ffffff00002d28d0 T _ZN2ux10conversion72_$LT$impl$u20$core..convert..From$LT$ux..u11$GT$$u20$for$u20$ux..u31$GT$4from17hcc7dd69969af09e9E
ffffff00002d28e0 T _ZN2ux10conversion72_$LT$impl$u20$core..convert..From$LT$ux..u11$GT$$u20$for$u20$ux..u33$GT$4from17hffdd7f6f682e7c0cE
ffffff00002d28e0 T _ZN2ux10conversion72_$LT$impl$u20$core..convert..From$LT$ux..u11$GT$$u20$for$u20$ux..u34$GT$4from17h90c1e46dd6d5ab61E
ffffff00002d28e0 T _ZN2ux10conversion72_$LT$impl$u20$core..convert..From$LT$ux..u11$GT$$u20$for$u20$ux..u35$GT$4from17hf6a4b215095f25a0E
ffffff00002d28e0 T _ZN2ux10conversion72_$LT$impl$u20$core..convert..From$LT$ux..u11$GT$$u20$for$u20$ux..u36$GT$4from17hb9b93bfc357d3b6aE
ffffff00002d28e0 T _ZN2ux10conversion72_$LT$impl$u20$core..convert..From$LT$ux..u11$GT$$u20$for$u20$ux..u37$GT$4from17hda0e818d52c5d77aE
ffffff00002d28e0 T _ZN2ux10conversion72_$LT$impl$u20$core..convert..From$LT$ux..u11$GT$$u20$for$u20$ux..u38$GT$4from17h66bf5b31e9f60b16E
ffffff00002d28e0 T _ZN2ux10conversion72_$LT$impl$u20$core..convert..From$LT$ux..u11$GT$$u20$for$u20$ux..u39$GT$4from17h891adc70697a7efdE
ffffff00002d28e0 T _ZN2ux10conversion72_$LT$impl$u20$core..convert..From$LT$ux..u11$GT$$u20$for$u20$ux..u40$GT$4from17hd284fe512d4b3c74E
ffffff00002d28e0 T _ZN2ux10conversion72_$LT$impl$u20$core..convert..From$LT$ux..u11$GT$$u20$for$u20$ux..u41$GT$4from17hefba0c0a1c55a20aE
ffffff00002d28e0 T _ZN2ux10conversion72_$LT$impl$u20$core..convert..From$LT$ux..u11$GT$$u20$for$u20$ux..u42$GT$4from17hb3648337ef86edc1E
ffffff00002d28e0 T _ZN2ux10conversion72_$LT$impl$u20$core..convert..From$LT$ux..u11$GT$$u20$for$u20$ux..u43$GT$4from17hef7c523276f36344E
ffffff00002d28e0 T _ZN2ux10conversion72_$LT$impl$u20$core..convert..From$LT$ux..u11$GT$$u20$for$u20$ux..u44$GT$4from17hc7e7bae4fe600e4dE
ffffff00002d28e0 T _ZN2ux10conversion72_$LT$impl$u20$core..convert..From$LT$ux..u11$GT$$u20$for$u20$ux..u45$GT$4from17hbe98f761527a0dedE
ffffff00002d28e0 T _ZN2ux10conversion72_$LT$impl$u20$core..convert..From$LT$ux..u11$GT$$u20$for$u20$ux..u46$GT$4from17h06b1c1a70bf56670E
ffffff00002d28e0 T _ZN2ux10conversion72_$LT$impl$u20$core..convert..From$LT$ux..u11$GT$$u20$for$u20$ux..u47$GT$4from17h8bdaa62211221b87E
ffffff00002d28e0 T _ZN2ux10conversion72_$LT$impl$u20$core..convert..From$LT$ux..u11$GT$$u20$for$u20$ux..u48$GT$4from17hefa97d1d5d7e9336E
ffffff00002d28e0 T _ZN2ux10conversion72_$LT$impl$u20$core..convert..From$LT$ux..u11$GT$$u20$for$u20$ux..u49$GT$4from17h127f0d0603b4d4f9E
ffffff00002d28e0 T _ZN2ux10conversion72_$LT$impl$u20$core..convert..From$LT$ux..u11$GT$$u20$for$u20$ux..u50$GT$4from17h42e609c4a31719c2E
ffffff00002d28e0 T _ZN2ux10conversion72_$LT$impl$u20$core..convert..From$LT$ux..u11$GT$$u20$for$u20$ux..u51$GT$4from17ha24f066ce71bc67cE
ffffff00002d28e0 T _ZN2ux10conversion72_$LT$impl$u20$core..convert..From$LT$ux..u11$GT$$u20$for$u20$ux..u52$GT$4from17h59b22fa21c3514a9E
ffffff00002d28e0 T _ZN2ux10conversion72_$LT$impl$u20$core..convert..From$LT$ux..u11$GT$$u20$for$u20$ux..u53$GT$4from17h291246e53d627d9eE
ffffff00002d28e0 T _ZN2ux10conversion72_$LT$impl$u20$core..convert..From$LT$ux..u11$GT$$u20$for$u20$ux..u54$GT$4from17h8a26d59f7dda0ecfE
ffffff00002d28e0 T _ZN2ux10conversion72_$LT$impl$u20$core..convert..From$LT$ux..u11$GT$$u20$for$u20$ux..u55$GT$4from17h185505d950b79b64E
ffffff00002d28e0 T _ZN2ux10conversion72_$LT$impl$u20$core..convert..From$LT$ux..u11$GT$$u20$for$u20$ux..u56$GT$4from17h992808caa0744f03E
ffffff00002d28e0 T _ZN2ux10conversion72_$LT$impl$u20$core..convert..From$LT$ux..u11$GT$$u20$for$u20$ux..u57$GT$4from17h9ac3bff5d78881d0E
ffffff00002d28e0 T _ZN2ux10conversion72_$LT$impl$u20$core..convert..From$LT$ux..u11$GT$$u20$for$u20$ux..u58$GT$4from17hf75d223cf3051da9E
ffffff00002d28e0 T _ZN2ux10conversion72_$LT$impl$u20$core..convert..From$LT$ux..u11$GT$$u20$for$u20$ux..u59$GT$4from17h64f9fc3f4ae3c1d8E
ffffff00002d28e0 T _ZN2ux10conversion72_$LT$impl$u20$core..convert..From$LT$ux..u11$GT$$u20$for$u20$ux..u60$GT$4from17he2ccdc0789f32356E
ffffff00002d28e0 T _ZN2ux10conversion72_$LT$impl$u20$core..convert..From$LT$ux..u11$GT$$u20$for$u20$ux..u61$GT$4from17h39568ea3c6fb5710E
ffffff00002d28e0 T _ZN2ux10conversion72_$LT$impl$u20$core..convert..From$LT$ux..u11$GT$$u20$for$u20$ux..u62$GT$4from17h8010a1488b3cc9afE
ffffff00002d28e0 T _ZN2ux10conversion72_$LT$impl$u20$core..convert..From$LT$ux..u11$GT$$u20$for$u20$ux..u63$GT$4from17haec7f179b0071298E
ffffff00002d2970 T _ZN2ux10conversion72_$LT$impl$u20$core..convert..From$LT$ux..u12$GT$$u20$for$u20$ux..u13$GT$4from17he1787a67f5eb32c6E
ffffff00002d2970 T _ZN2ux10conversion72_$LT$impl$u20$core..convert..From$LT$ux..u12$GT$$u20$for$u20$ux..u14$GT$4from17h0ff3eaf869a24b9fE
ffffff00002d2970 T _ZN2ux10conversion72_$LT$impl$u20$core..convert..From$LT$ux..u12$GT$$u20$for$u20$ux..u15$GT$4from17h3fd4b4928740b27aE
ffffff00002d28d0 T _ZN2ux10conversion72_$LT$impl$u20$core..convert..From$LT$ux..u12$GT$$u20$for$u20$ux..u17$GT$4from17h45adec2c72023c35E
ffffff00002d28d0 T _ZN2ux10conversion72_$LT$impl$u20$core..convert..From$LT$ux..u12$GT$$u20$for$u20$ux..u18$GT$4from17h30b39df3e1df22dfE
ffffff00002d28d0 T _ZN2ux10conversion72_$LT$impl$u20$core..convert..From$LT$ux..u12$GT$$u20$for$u20$ux..u19$GT$4from17ha6afac821fa48aacE
ffffff00002d28d0 T _ZN2ux10conversion72_$LT$impl$u20$core..convert..From$LT$ux..u12$GT$$u20$for$u20$ux..u20$GT$4from17h8e801ef4df8fb666E
ffffff00002d28d0 T _ZN2ux10conversion72_$LT$impl$u20$core..convert..From$LT$ux..u12$GT$$u20$for$u20$ux..u21$GT$4from17hda11d573f577f50bE
ffffff00002d28d0 T _ZN2ux10conversion72_$LT$impl$u20$core..convert..From$LT$ux..u12$GT$$u20$for$u20$ux..u22$GT$4from17haabf844fb41f268eE
ffffff00002d28d0 T _ZN2ux10conversion72_$LT$impl$u20$core..convert..From$LT$ux..u12$GT$$u20$for$u20$ux..u23$GT$4from17hb4f26e46d73e03f4E
ffffff00002d28d0 T _ZN2ux10conversion72_$LT$impl$u20$core..convert..From$LT$ux..u12$GT$$u20$for$u20$ux..u24$GT$4from17hf39af15ed142ac32E
ffffff00002d28d0 T _ZN2ux10conversion72_$LT$impl$u20$core..convert..From$LT$ux..u12$GT$$u20$for$u20$ux..u25$GT$4from17hc57df78d4af95f16E
ffffff00002d28d0 T _ZN2ux10conversion72_$LT$impl$u20$core..convert..From$LT$ux..u12$GT$$u20$for$u20$ux..u26$GT$4from17h4fe359f8359f271dE
ffffff00002d28d0 T _ZN2ux10conversion72_$LT$impl$u20$core..convert..From$LT$ux..u12$GT$$u20$for$u20$ux..u27$GT$4from17h149ed5e457b0e70bE
ffffff00002d28d0 T _ZN2ux10conversion72_$LT$impl$u20$core..convert..From$LT$ux..u12$GT$$u20$for$u20$ux..u28$GT$4from17h83f0562e5c91f196E
ffffff00002d28d0 T _ZN2ux10conversion72_$LT$impl$u20$core..convert..From$LT$ux..u12$GT$$u20$for$u20$ux..u29$GT$4from17hc67880fe58b3dcfbE
ffffff00002d28d0 T _ZN2ux10conversion72_$LT$impl$u20$core..convert..From$LT$ux..u12$GT$$u20$for$u20$ux..u30$GT$4from17h499c25c0f5a14f92E
ffffff00002d28d0 T _ZN2ux10conversion72_$LT$impl$u20$core..convert..From$LT$ux..u12$GT$$u20$for$u20$ux..u31$GT$4from17h3955dc92160c1ac5E
ffffff00002d28e0 T _ZN2ux10conversion72_$LT$impl$u20$core..convert..From$LT$ux..u12$GT$$u20$for$u20$ux..u33$GT$4from17h355ce3990e8ab9d3E
ffffff00002d28e0 T _ZN2ux10conversion72_$LT$impl$u20$core..convert..From$LT$ux..u12$GT$$u20$for$u20$ux..u34$GT$4from17h3308d891ad630798E
ffffff00002d28e0 T _ZN2ux10conversion72_$LT$impl$u20$core..convert..From$LT$ux..u12$GT$$u20$for$u20$ux..u35$GT$4from17hfbf0941c420e45cbE
ffffff00002d28e0 T _ZN2ux10conversion72_$LT$impl$u20$core..convert..From$LT$ux..u12$GT$$u20$for$u20$ux..u36$GT$4from17h650b5593e09b065aE
ffffff00002d28e0 T _ZN2ux10conversion72_$LT$impl$u20$core..convert..From$LT$ux..u12$GT$$u20$for$u20$ux..u37$GT$4from17hff5a2019eca361eeE
ffffff00002d28e0 T _ZN2ux10conversion72_$LT$impl$u20$core..convert..From$LT$ux..u12$GT$$u20$for$u20$ux..u38$GT$4from17h9ddb557b67b42b73E
ffffff00002d28e0 T _ZN2ux10conversion72_$LT$impl$u20$core..convert..From$LT$ux..u12$GT$$u20$for$u20$ux..u39$GT$4from17ha4fac013f8e0bd11E
ffffff00002d28e0 T _ZN2ux10conversion72_$LT$impl$u20$core..convert..From$LT$ux..u12$GT$$u20$for$u20$ux..u40$GT$4from17h8c0096493561d29fE
ffffff00002d28e0 T _ZN2ux10conversion72_$LT$impl$u20$core..convert..From$LT$ux..u12$GT$$u20$for$u20$ux..u41$GT$4from17hd6438cfcc953a6afE
ffffff00002d28e0 T _ZN2ux10conversion72_$LT$impl$u20$core..convert..From$LT$ux..u12$GT$$u20$for$u20$ux..u42$GT$4from17hba145c8af7e8f16aE
ffffff00002d28e0 T _ZN2ux10conversion72_$LT$impl$u20$core..convert..From$LT$ux..u12$GT$$u20$for$u20$ux..u43$GT$4from17h3921cdabf530eda3E
ffffff00002d28e0 T _ZN2ux10conversion72_$LT$impl$u20$core..convert..From$LT$ux..u12$GT$$u20$for$u20$ux..u44$GT$4from17h0dc5f529fced54daE
ffffff00002d28e0 T _ZN2ux10conversion72_$LT$impl$u20$core..convert..From$LT$ux..u12$GT$$u20$for$u20$ux..u45$GT$4from17hbf12a4029c5e991eE
ffffff00002d28e0 T _ZN2ux10conversion72_$LT$impl$u20$core..convert..From$LT$ux..u12$GT$$u20$for$u20$ux..u46$GT$4from17ha2e2ab7031e2b0d3E
ffffff00002d28e0 T _ZN2ux10conversion72_$LT$impl$u20$core..convert..From$LT$ux..u12$GT$$u20$for$u20$ux..u47$GT$4from17h8b4d3b878f7b87ecE
ffffff00002d28e0 T _ZN2ux10conversion72_$LT$impl$u20$core..convert..From$LT$ux..u12$GT$$u20$for$u20$ux..u48$GT$4from17h06bc508be2995946E
ffffff00002d28e0 T _ZN2ux10conversion72_$LT$impl$u20$core..convert..From$LT$ux..u12$GT$$u20$for$u20$ux..u49$GT$4from17h1782216a75ac5fa2E
ffffff00002d28e0 T _ZN2ux10conversion72_$LT$impl$u20$core..convert..From$LT$ux..u12$GT$$u20$for$u20$ux..u50$GT$4from17hd47f9e5584bdf6f1E
ffffff00002d28e0 T _ZN2ux10conversion72_$LT$impl$u20$core..convert..From$LT$ux..u12$GT$$u20$for$u20$ux..u51$GT$4from17h005a2b65dc9b87fdE
ffffff00002d28e0 T _ZN2ux10conversion72_$LT$impl$u20$core..convert..From$LT$ux..u12$GT$$u20$for$u20$ux..u52$GT$4from17ha62cea4d447d6902E
ffffff00002d28e0 T _ZN2ux10conversion72_$LT$impl$u20$core..convert..From$LT$ux..u12$GT$$u20$for$u20$ux..u53$GT$4from17he5f17ae18c0d5205E
ffffff00002d28e0 T _ZN2ux10conversion72_$LT$impl$u20$core..convert..From$LT$ux..u12$GT$$u20$for$u20$ux..u54$GT$4from17hb1fd166b7d845960E
ffffff00002d28e0 T _ZN2ux10conversion72_$LT$impl$u20$core..convert..From$LT$ux..u12$GT$$u20$for$u20$ux..u55$GT$4from17h43060de74938fed7E
ffffff00002d28e0 T _ZN2ux10conversion72_$LT$impl$u20$core..convert..From$LT$ux..u12$GT$$u20$for$u20$ux..u56$GT$4from17hc767cf1494a5a153E
ffffff00002d28e0 T _ZN2ux10conversion72_$LT$impl$u20$core..convert..From$LT$ux..u12$GT$$u20$for$u20$ux..u57$GT$4from17h4b682c9d83ea57b0E
ffffff00002d28e0 T _ZN2ux10conversion72_$LT$impl$u20$core..convert..From$LT$ux..u12$GT$$u20$for$u20$ux..u58$GT$4from17h9e19cf8d2b522480E
ffffff00002d28e0 T _ZN2ux10conversion72_$LT$impl$u20$core..convert..From$LT$ux..u12$GT$$u20$for$u20$ux..u59$GT$4from17hac1353ba7a8601edE
ffffff00002d28e0 T _ZN2ux10conversion72_$LT$impl$u20$core..convert..From$LT$ux..u12$GT$$u20$for$u20$ux..u60$GT$4from17h569cdb01eead0cb2E
ffffff00002d28e0 T _ZN2ux10conversion72_$LT$impl$u20$core..convert..From$LT$ux..u12$GT$$u20$for$u20$ux..u61$GT$4from17h86908ac40ffbcb48E
ffffff00002d28e0 T _ZN2ux10conversion72_$LT$impl$u20$core..convert..From$LT$ux..u12$GT$$u20$for$u20$ux..u62$GT$4from17h8a9ad0fd9dbc9f9aE
ffffff00002d28e0 T _ZN2ux10conversion72_$LT$impl$u20$core..convert..From$LT$ux..u12$GT$$u20$for$u20$ux..u63$GT$4from17he79aa84a66b85927E
ffffff00002d2970 T _ZN2ux10conversion72_$LT$impl$u20$core..convert..From$LT$ux..u13$GT$$u20$for$u20$ux..u14$GT$4from17h1348fc8f938543caE
ffffff00002d2970 T _ZN2ux10conversion72_$LT$impl$u20$core..convert..From$LT$ux..u13$GT$$u20$for$u20$ux..u15$GT$4from17h811d3f335e3f60c8E
ffffff00002d28d0 T _ZN2ux10conversion72_$LT$impl$u20$core..convert..From$LT$ux..u13$GT$$u20$for$u20$ux..u17$GT$4from17h9dbb3bd5cf1609afE
ffffff00002d28d0 T _ZN2ux10conversion72_$LT$impl$u20$core..convert..From$LT$ux..u13$GT$$u20$for$u20$ux..u18$GT$4from17h7d52adeffd4892afE
ffffff00002d28d0 T _ZN2ux10conversion72_$LT$impl$u20$core..convert..From$LT$ux..u13$GT$$u20$for$u20$ux..u19$GT$4from17h49bd3e98f4da3763E
ffffff00002d28d0 T _ZN2ux10conversion72_$LT$impl$u20$core..convert..From$LT$ux..u13$GT$$u20$for$u20$ux..u20$GT$4from17hc2e804f0da530f8bE
ffffff00002d28d0 T _ZN2ux10conversion72_$LT$impl$u20$core..convert..From$LT$ux..u13$GT$$u20$for$u20$ux..u21$GT$4from17hdc0eb9429b06a1a1E
ffffff00002d28d0 T _ZN2ux10conversion72_$LT$impl$u20$core..convert..From$LT$ux..u13$GT$$u20$for$u20$ux..u22$GT$4from17h094e6a8bba312873E
ffffff00002d28d0 T _ZN2ux10conversion72_$LT$impl$u20$core..convert..From$LT$ux..u13$GT$$u20$for$u20$ux..u23$GT$4from17h6baa1f93fd9804f1E
ffffff00002d28d0 T _ZN2ux10conversion72_$LT$impl$u20$core..convert..From$LT$ux..u13$GT$$u20$for$u20$ux..u24$GT$4from17hca5addd3a571936fE
ffffff00002d28d0 T _ZN2ux10conversion72_$LT$impl$u20$core..convert..From$LT$ux..u13$GT$$u20$for$u20$ux..u25$GT$4from17h6e78b72c9545f6edE
ffffff00002d28d0 T _ZN2ux10conversion72_$LT$impl$u20$core..convert..From$LT$ux..u13$GT$$u20$for$u20$ux..u26$GT$4from17h446168116edfb5e7E
ffffff00002d28d0 T _ZN2ux10conversion72_$LT$impl$u20$core..convert..From$LT$ux..u13$GT$$u20$for$u20$ux..u27$GT$4from17h427e4ea22ea5a66bE
ffffff00002d28d0 T _ZN2ux10conversion72_$LT$impl$u20$core..convert..From$LT$ux..u13$GT$$u20$for$u20$ux..u28$GT$4from17h63ba87e261500954E
ffffff00002d28d0 T _ZN2ux10conversion72_$LT$impl$u20$core..convert..From$LT$ux..u13$GT$$u20$for$u20$ux..u29$GT$4from17h9bc2eb9a25be823eE
ffffff00002d28d0 T _ZN2ux10conversion72_$LT$impl$u20$core..convert..From$LT$ux..u13$GT$$u20$for$u20$ux..u30$GT$4from17h5f7089fa8998da32E
ffffff00002d28d0 T _ZN2ux10conversion72_$LT$impl$u20$core..convert..From$LT$ux..u13$GT$$u20$for$u20$ux..u31$GT$4from17h9492e3de1703a91fE
ffffff00002d28e0 T _ZN2ux10conversion72_$LT$impl$u20$core..convert..From$LT$ux..u13$GT$$u20$for$u20$ux..u33$GT$4from17h6ed56df5b487942fE
ffffff00002d28e0 T _ZN2ux10conversion72_$LT$impl$u20$core..convert..From$LT$ux..u13$GT$$u20$for$u20$ux..u34$GT$4from17h8b4a88de57385d3fE
ffffff00002d28e0 T _ZN2ux10conversion72_$LT$impl$u20$core..convert..From$LT$ux..u13$GT$$u20$for$u20$ux..u35$GT$4from17h9a9955491cc21fe9E
ffffff00002d28e0 T _ZN2ux10conversion72_$LT$impl$u20$core..convert..From$LT$ux..u13$GT$$u20$for$u20$ux..u36$GT$4from17h7b7a57adc6a17f43E
ffffff00002d28e0 T _ZN2ux10conversion72_$LT$impl$u20$core..convert..From$LT$ux..u13$GT$$u20$for$u20$ux..u37$GT$4from17h4b884e7480d02d3eE
ffffff00002d28e0 T _ZN2ux10conversion72_$LT$impl$u20$core..convert..From$LT$ux..u13$GT$$u20$for$u20$ux..u38$GT$4from17h90e8a4e0094b6e21E
ffffff00002d28e0 T _ZN2ux10conversion72_$LT$impl$u20$core..convert..From$LT$ux..u13$GT$$u20$for$u20$ux..u39$GT$4from17h31757c4f5da71e42E
ffffff00002d28e0 T _ZN2ux10conversion72_$LT$impl$u20$core..convert..From$LT$ux..u13$GT$$u20$for$u20$ux..u40$GT$4from17h2eb5e34cbe278251E
ffffff00002d28e0 T _ZN2ux10conversion72_$LT$impl$u20$core..convert..From$LT$ux..u13$GT$$u20$for$u20$ux..u41$GT$4from17h3d2db00a301a7c30E
ffffff00002d28e0 T _ZN2ux10conversion72_$LT$impl$u20$core..convert..From$LT$ux..u13$GT$$u20$for$u20$ux..u42$GT$4from17hb0adbd6b108cf51eE
ffffff00002d28e0 T _ZN2ux10conversion72_$LT$impl$u20$core..convert..From$LT$ux..u13$GT$$u20$for$u20$ux..u43$GT$4from17h44cfe11c8a871dcfE
ffffff00002d28e0 T _ZN2ux10conversion72_$LT$impl$u20$core..convert..From$LT$ux..u13$GT$$u20$for$u20$ux..u44$GT$4from17hc1261c915b754cd0E
ffffff00002d28e0 T _ZN2ux10conversion72_$LT$impl$u20$core..convert..From$LT$ux..u13$GT$$u20$for$u20$ux..u45$GT$4from17h2bd2500eb141c7e1E
ffffff00002d28e0 T _ZN2ux10conversion72_$LT$impl$u20$core..convert..From$LT$ux..u13$GT$$u20$for$u20$ux..u46$GT$4from17ha2ccdb6c0bf16bd0E
ffffff00002d28e0 T _ZN2ux10conversion72_$LT$impl$u20$core..convert..From$LT$ux..u13$GT$$u20$for$u20$ux..u47$GT$4from17hc9c5183273327b5eE
ffffff00002d28e0 T _ZN2ux10conversion72_$LT$impl$u20$core..convert..From$LT$ux..u13$GT$$u20$for$u20$ux..u48$GT$4from17h18a7f32e661fcd3cE
ffffff00002d28e0 T _ZN2ux10conversion72_$LT$impl$u20$core..convert..From$LT$ux..u13$GT$$u20$for$u20$ux..u49$GT$4from17h7b4e0bc524839b0aE
ffffff00002d28e0 T _ZN2ux10conversion72_$LT$impl$u20$core..convert..From$LT$ux..u13$GT$$u20$for$u20$ux..u50$GT$4from17h7eb4998d12e9b748E
ffffff00002d28e0 T _ZN2ux10conversion72_$LT$impl$u20$core..convert..From$LT$ux..u13$GT$$u20$for$u20$ux..u51$GT$4from17heb364ca0ef286e47E
ffffff00002d28e0 T _ZN2ux10conversion72_$LT$impl$u20$core..convert..From$LT$ux..u13$GT$$u20$for$u20$ux..u52$GT$4from17h1cc1f1a24bf2064eE
ffffff00002d28e0 T _ZN2ux10conversion72_$LT$impl$u20$core..convert..From$LT$ux..u13$GT$$u20$for$u20$ux..u53$GT$4from17h05703b9ad2611cb2E
ffffff00002d28e0 T _ZN2ux10conversion72_$LT$impl$u20$core..convert..From$LT$ux..u13$GT$$u20$for$u20$ux..u54$GT$4from17h754f68f296426f0cE
ffffff00002d28e0 T _ZN2ux10conversion72_$LT$impl$u20$core..convert..From$LT$ux..u13$GT$$u20$for$u20$ux..u55$GT$4from17hcce15027ee79ec84E
ffffff00002d28e0 T _ZN2ux10conversion72_$LT$impl$u20$core..convert..From$LT$ux..u13$GT$$u20$for$u20$ux..u56$GT$4from17h8041f07215781a6bE
ffffff00002d28e0 T _ZN2ux10conversion72_$LT$impl$u20$core..convert..From$LT$ux..u13$GT$$u20$for$u20$ux..u57$GT$4from17hb3c78961c91dcc6dE
ffffff00002d28e0 T _ZN2ux10conversion72_$LT$impl$u20$core..convert..From$LT$ux..u13$GT$$u20$for$u20$ux..u58$GT$4from17h1f49fe27d17e5aa5E
ffffff00002d28e0 T _ZN2ux10conversion72_$LT$impl$u20$core..convert..From$LT$ux..u13$GT$$u20$for$u20$ux..u59$GT$4from17he09b23584b4ae5fcE
ffffff00002d28e0 T _ZN2ux10conversion72_$LT$impl$u20$core..convert..From$LT$ux..u13$GT$$u20$for$u20$ux..u60$GT$4from17h4545914870ca5215E
ffffff00002d28e0 T _ZN2ux10conversion72_$LT$impl$u20$core..convert..From$LT$ux..u13$GT$$u20$for$u20$ux..u61$GT$4from17hb0a01f4ea614bfd3E
ffffff00002d28e0 T _ZN2ux10conversion72_$LT$impl$u20$core..convert..From$LT$ux..u13$GT$$u20$for$u20$ux..u62$GT$4from17hc61d0cef3017c871E
ffffff00002d28e0 T _ZN2ux10conversion72_$LT$impl$u20$core..convert..From$LT$ux..u13$GT$$u20$for$u20$ux..u63$GT$4from17he90f2791de09e513E
ffffff00002d2970 T _ZN2ux10conversion72_$LT$impl$u20$core..convert..From$LT$ux..u14$GT$$u20$for$u20$ux..u15$GT$4from17h37b3a25c8579ae5aE
ffffff00002d28d0 T _ZN2ux10conversion72_$LT$impl$u20$core..convert..From$LT$ux..u14$GT$$u20$for$u20$ux..u17$GT$4from17hec3acb88b393e4b1E
ffffff00002d28d0 T _ZN2ux10conversion72_$LT$impl$u20$core..convert..From$LT$ux..u14$GT$$u20$for$u20$ux..u18$GT$4from17ha64fe0e6fa33a2d5E
ffffff00002d28d0 T _ZN2ux10conversion72_$LT$impl$u20$core..convert..From$LT$ux..u14$GT$$u20$for$u20$ux..u19$GT$4from17h8eb203ad8b7794caE
ffffff00002d28d0 T _ZN2ux10conversion72_$LT$impl$u20$core..convert..From$LT$ux..u14$GT$$u20$for$u20$ux..u20$GT$4from17h243e41455f8238b9E
ffffff00002d28d0 T _ZN2ux10conversion72_$LT$impl$u20$core..convert..From$LT$ux..u14$GT$$u20$for$u20$ux..u21$GT$4from17h4989f18fae2ab84dE
ffffff00002d28d0 T _ZN2ux10conversion72_$LT$impl$u20$core..convert..From$LT$ux..u14$GT$$u20$for$u20$ux..u22$GT$4from17hfdc0bfd98405cf08E
ffffff00002d28d0 T _ZN2ux10conversion72_$LT$impl$u20$core..convert..From$LT$ux..u14$GT$$u20$for$u20$ux..u23$GT$4from17h0a721f4c79e0cb79E
ffffff00002d28d0 T _ZN2ux10conversion72_$LT$impl$u20$core..convert..From$LT$ux..u14$GT$$u20$for$u20$ux..u24$GT$4from17h6300522f5d5a10f0E
ffffff00002d28d0 T _ZN2ux10conversion72_$LT$impl$u20$core..convert..From$LT$ux..u14$GT$$u20$for$u20$ux..u25$GT$4from17h6a402bbc5e633817E
ffffff00002d28d0 T _ZN2ux10conversion72_$LT$impl$u20$core..convert..From$LT$ux..u14$GT$$u20$for$u20$ux..u26$GT$4from17hb1490023d647f28aE
ffffff00002d28d0 T _ZN2ux10conversion72_$LT$impl$u20$core..convert..From$LT$ux..u14$GT$$u20$for$u20$ux..u27$GT$4from17heaa1b48e16bb4625E
ffffff00002d28d0 T _ZN2ux10conversion72_$LT$impl$u20$core..convert..From$LT$ux..u14$GT$$u20$for$u20$ux..u28$GT$4from17h2b756c7ef4db75ecE
ffffff00002d28d0 T _ZN2ux10conversion72_$LT$impl$u20$core..convert..From$LT$ux..u14$GT$$u20$for$u20$ux..u29$GT$4from17h67bc177d31b17cf7E
ffffff00002d28d0 T _ZN2ux10conversion72_$LT$impl$u20$core..convert..From$LT$ux..u14$GT$$u20$for$u20$ux..u30$GT$4from17h11a70c8986705000E
ffffff00002d28d0 T _ZN2ux10conversion72_$LT$impl$u20$core..convert..From$LT$ux..u14$GT$$u20$for$u20$ux..u31$GT$4from17h5be80e6b66bb01aaE
ffffff00002d28e0 T _ZN2ux10conversion72_$LT$impl$u20$core..convert..From$LT$ux..u14$GT$$u20$for$u20$ux..u33$GT$4from17hf485e119b37062f8E
ffffff00002d28e0 T _ZN2ux10conversion72_$LT$impl$u20$core..convert..From$LT$ux..u14$GT$$u20$for$u20$ux..u34$GT$4from17h08612f18195a76b9E
ffffff00002d28e0 T _ZN2ux10conversion72_$LT$impl$u20$core..convert..From$LT$ux..u14$GT$$u20$for$u20$ux..u35$GT$4from17hc87d7e6ba5aed186E
ffffff00002d28e0 T _ZN2ux10conversion72_$LT$impl$u20$core..convert..From$LT$ux..u14$GT$$u20$for$u20$ux..u36$GT$4from17h1175bb73017c60a7E
ffffff00002d28e0 T _ZN2ux10conversion72_$LT$impl$u20$core..convert..From$LT$ux..u14$GT$$u20$for$u20$ux..u37$GT$4from17h6fad7de0d09c10d3E
ffffff00002d28e0 T _ZN2ux10conversion72_$LT$impl$u20$core..convert..From$LT$ux..u14$GT$$u20$for$u20$ux..u38$GT$4from17h19336e9c5836f00dE
ffffff00002d28e0 T _ZN2ux10conversion72_$LT$impl$u20$core..convert..From$LT$ux..u14$GT$$u20$for$u20$ux..u39$GT$4from17h525a231dc5e8a270E
ffffff00002d28e0 T _ZN2ux10conversion72_$LT$impl$u20$core..convert..From$LT$ux..u14$GT$$u20$for$u20$ux..u40$GT$4from17h78f08439f17e0756E
ffffff00002d28e0 T _ZN2ux10conversion72_$LT$impl$u20$core..convert..From$LT$ux..u14$GT$$u20$for$u20$ux..u41$GT$4from17h857a54fb71eac168E
ffffff00002d28e0 T _ZN2ux10conversion72_$LT$impl$u20$core..convert..From$LT$ux..u14$GT$$u20$for$u20$ux..u42$GT$4from17h05179e6e54691510E
ffffff00002d28e0 T _ZN2ux10conversion72_$LT$impl$u20$core..convert..From$LT$ux..u14$GT$$u20$for$u20$ux..u43$GT$4from17hb79f275b7fd2cf8bE
ffffff00002d28e0 T _ZN2ux10conversion72_$LT$impl$u20$core..convert..From$LT$ux..u14$GT$$u20$for$u20$ux..u44$GT$4from17hfffe8148d7169041E
ffffff00002d28e0 T _ZN2ux10conversion72_$LT$impl$u20$core..convert..From$LT$ux..u14$GT$$u20$for$u20$ux..u45$GT$4from17h52c6378693c1067eE
ffffff00002d28e0 T _ZN2ux10conversion72_$LT$impl$u20$core..convert..From$LT$ux..u14$GT$$u20$for$u20$ux..u46$GT$4from17hcb3f1e484045e729E
ffffff00002d28e0 T _ZN2ux10conversion72_$LT$impl$u20$core..convert..From$LT$ux..u14$GT$$u20$for$u20$ux..u47$GT$4from17hffe633e6f8aa9ebcE
ffffff00002d28e0 T _ZN2ux10conversion72_$LT$impl$u20$core..convert..From$LT$ux..u14$GT$$u20$for$u20$ux..u48$GT$4from17h95e4cfec4ca89ed1E
ffffff00002d28e0 T _ZN2ux10conversion72_$LT$impl$u20$core..convert..From$LT$ux..u14$GT$$u20$for$u20$ux..u49$GT$4from17hba48003f17591afeE
ffffff00002d28e0 T _ZN2ux10conversion72_$LT$impl$u20$core..convert..From$LT$ux..u14$GT$$u20$for$u20$ux..u50$GT$4from17h0fea1257e47ddbe5E
ffffff00002d28e0 T _ZN2ux10conversion72_$LT$impl$u20$core..convert..From$LT$ux..u14$GT$$u20$for$u20$ux..u51$GT$4from17haeee2f318d3aadeeE
ffffff00002d28e0 T _ZN2ux10conversion72_$LT$impl$u20$core..convert..From$LT$ux..u14$GT$$u20$for$u20$ux..u52$GT$4from17hdbae98228967879bE
ffffff00002d28e0 T _ZN2ux10conversion72_$LT$impl$u20$core..convert..From$LT$ux..u14$GT$$u20$for$u20$ux..u53$GT$4from17h5828ba7672cf491fE
ffffff00002d28e0 T _ZN2ux10conversion72_$LT$impl$u20$core..convert..From$LT$ux..u14$GT$$u20$for$u20$ux..u54$GT$4from17h9016afba1683e5e0E
ffffff00002d28e0 T _ZN2ux10conversion72_$LT$impl$u20$core..convert..From$LT$ux..u14$GT$$u20$for$u20$ux..u55$GT$4from17hed3f0d41ca96f451E
ffffff00002d28e0 T _ZN2ux10conversion72_$LT$impl$u20$core..convert..From$LT$ux..u14$GT$$u20$for$u20$ux..u56$GT$4from17hf8f8da1f43599003E
ffffff00002d28e0 T _ZN2ux10conversion72_$LT$impl$u20$core..convert..From$LT$ux..u14$GT$$u20$for$u20$ux..u57$GT$4from17h04173f856392df90E
ffffff00002d28e0 T _ZN2ux10conversion72_$LT$impl$u20$core..convert..From$LT$ux..u14$GT$$u20$for$u20$ux..u58$GT$4from17hae3e713011b0de9cE
ffffff00002d28e0 T _ZN2ux10conversion72_$LT$impl$u20$core..convert..From$LT$ux..u14$GT$$u20$for$u20$ux..u59$GT$4from17h2a1905902bd384f3E
ffffff00002d28e0 T _ZN2ux10conversion72_$LT$impl$u20$core..convert..From$LT$ux..u14$GT$$u20$for$u20$ux..u60$GT$4from17hb0bbc4e060f97ecbE
ffffff00002d28e0 T _ZN2ux10conversion72_$LT$impl$u20$core..convert..From$LT$ux..u14$GT$$u20$for$u20$ux..u61$GT$4from17h80b6b4f363671041E
ffffff00002d28e0 T _ZN2ux10conversion72_$LT$impl$u20$core..convert..From$LT$ux..u14$GT$$u20$for$u20$ux..u62$GT$4from17hb131209893a22757E
ffffff00002d28e0 T _ZN2ux10conversion72_$LT$impl$u20$core..convert..From$LT$ux..u14$GT$$u20$for$u20$ux..u63$GT$4from17h13cb4808708cc00fE
ffffff00002d28d0 T _ZN2ux10conversion72_$LT$impl$u20$core..convert..From$LT$ux..u15$GT$$u20$for$u20$ux..u17$GT$4from17h2c2cba8f799ca0efE
ffffff00002d28d0 T _ZN2ux10conversion72_$LT$impl$u20$core..convert..From$LT$ux..u15$GT$$u20$for$u20$ux..u18$GT$4from17he8f23db740f5f7b8E
ffffff00002d28d0 T _ZN2ux10conversion72_$LT$impl$u20$core..convert..From$LT$ux..u15$GT$$u20$for$u20$ux..u19$GT$4from17hb61c26ece2177accE
ffffff00002d28d0 T _ZN2ux10conversion72_$LT$impl$u20$core..convert..From$LT$ux..u15$GT$$u20$for$u20$ux..u20$GT$4from17hb01bb703a35a3ef6E
ffffff00002d28d0 T _ZN2ux10conversion72_$LT$impl$u20$core..convert..From$LT$ux..u15$GT$$u20$for$u20$ux..u21$GT$4from17h2a21c730dc098559E
ffffff00002d28d0 T _ZN2ux10conversion72_$LT$impl$u20$core..convert..From$LT$ux..u15$GT$$u20$for$u20$ux..u22$GT$4from17h9c8c2ed0d0f12d16E
ffffff00002d28d0 T _ZN2ux10conversion72_$LT$impl$u20$core..convert..From$LT$ux..u15$GT$$u20$for$u20$ux..u23$GT$4from17hb7c36fcfdf1d4770E
ffffff00002d28d0 T _ZN2ux10conversion72_$LT$impl$u20$core..convert..From$LT$ux..u15$GT$$u20$for$u20$ux..u24$GT$4from17h28444bb89c248cd3E
ffffff00002d28d0 T _ZN2ux10conversion72_$LT$impl$u20$core..convert..From$LT$ux..u15$GT$$u20$for$u20$ux..u25$GT$4from17he52cd2d4361207beE
ffffff00002d28d0 T _ZN2ux10conversion72_$LT$impl$u20$core..convert..From$LT$ux..u15$GT$$u20$for$u20$ux..u26$GT$4from17h502718ad657e232dE
ffffff00002d28d0 T _ZN2ux10conversion72_$LT$impl$u20$core..convert..From$LT$ux..u15$GT$$u20$for$u20$ux..u27$GT$4from17h80ff2b468d24ba15E
ffffff00002d28d0 T _ZN2ux10conversion72_$LT$impl$u20$core..convert..From$LT$ux..u15$GT$$u20$for$u20$ux..u28$GT$4from17h96467ea6c81bc60dE
ffffff00002d28d0 T _ZN2ux10conversion72_$LT$impl$u20$core..convert..From$LT$ux..u15$GT$$u20$for$u20$ux..u29$GT$4from17hdd61f7dc1546b161E
ffffff00002d28d0 T _ZN2ux10conversion72_$LT$impl$u20$core..convert..From$LT$ux..u15$GT$$u20$for$u20$ux..u30$GT$4from17h12c37a59c2a58c23E
ffffff00002d28d0 T _ZN2ux10conversion72_$LT$impl$u20$core..convert..From$LT$ux..u15$GT$$u20$for$u20$ux..u31$GT$4from17hcb81f28c8e9fbb51E
ffffff00002d28e0 T _ZN2ux10conversion72_$LT$impl$u20$core..convert..From$LT$ux..u15$GT$$u20$for$u20$ux..u33$GT$4from17he8f103ec6fc3e2c0E
ffffff00002d28e0 T _ZN2ux10conversion72_$LT$impl$u20$core..convert..From$LT$ux..u15$GT$$u20$for$u20$ux..u34$GT$4from17h41616a289e345148E
ffffff00002d28e0 T _ZN2ux10conversion72_$LT$impl$u20$core..convert..From$LT$ux..u15$GT$$u20$for$u20$ux..u35$GT$4from17h0c537beccdbb9db7E
ffffff00002d28e0 T _ZN2ux10conversion72_$LT$impl$u20$core..convert..From$LT$ux..u15$GT$$u20$for$u20$ux..u36$GT$4from17h9c2b41d47f07b7a4E
ffffff00002d28e0 T _ZN2ux10conversion72_$LT$impl$u20$core..convert..From$LT$ux..u15$GT$$u20$for$u20$ux..u37$GT$4from17h78b0503c0873debeE
ffffff00002d28e0 T _ZN2ux10conversion72_$LT$impl$u20$core..convert..From$LT$ux..u15$GT$$u20$for$u20$ux..u38$GT$4from17hc59c0380d8153337E
ffffff00002d28e0 T _ZN2ux10conversion72_$LT$impl$u20$core..convert..From$LT$ux..u15$GT$$u20$for$u20$ux..u39$GT$4from17h0c81ddcf9c6c7f0cE
ffffff00002d28e0 T _ZN2ux10conversion72_$LT$impl$u20$core..convert..From$LT$ux..u15$GT$$u20$for$u20$ux..u40$GT$4from17h663cf4ad8d153566E
ffffff00002d28e0 T _ZN2ux10conversion72_$LT$impl$u20$core..convert..From$LT$ux..u15$GT$$u20$for$u20$ux..u41$GT$4from17h41c7bbe3fa9ad002E
ffffff00002d28e0 T _ZN2ux10conversion72_$LT$impl$u20$core..convert..From$LT$ux..u15$GT$$u20$for$u20$ux..u42$GT$4from17h7350a26f6da54c52E
ffffff00002d28e0 T _ZN2ux10conversion72_$LT$impl$u20$core..convert..From$LT$ux..u15$GT$$u20$for$u20$ux..u43$GT$4from17h0d76b051ff3bef95E
ffffff00002d28e0 T _ZN2ux10conversion72_$LT$impl$u20$core..convert..From$LT$ux..u15$GT$$u20$for$u20$ux..u44$GT$4from17hbb38b75ef4b91d6fE
ffffff00002d28e0 T _ZN2ux10conversion72_$LT$impl$u20$core..convert..From$LT$ux..u15$GT$$u20$for$u20$ux..u45$GT$4from17h74405c3068f0ca5bE
ffffff00002d28e0 T _ZN2ux10conversion72_$LT$impl$u20$core..convert..From$LT$ux..u15$GT$$u20$for$u20$ux..u46$GT$4from17h2f0a37b8b524e9ceE
ffffff00002d28e0 T _ZN2ux10conversion72_$LT$impl$u20$core..convert..From$LT$ux..u15$GT$$u20$for$u20$ux..u47$GT$4from17hdda2fe2cf600d17aE
ffffff00002d28e0 T _ZN2ux10conversion72_$LT$impl$u20$core..convert..From$LT$ux..u15$GT$$u20$for$u20$ux..u48$GT$4from17h8a075a85951b9e2cE
ffffff00002d28e0 T _ZN2ux10conversion72_$LT$impl$u20$core..convert..From$LT$ux..u15$GT$$u20$for$u20$ux..u49$GT$4from17hdcc7ccf732c27110E
ffffff00002d28e0 T _ZN2ux10conversion72_$LT$impl$u20$core..convert..From$LT$ux..u15$GT$$u20$for$u20$ux..u50$GT$4from17h0bda7e4108ce11adE
ffffff00002d28e0 T _ZN2ux10conversion72_$LT$impl$u20$core..convert..From$LT$ux..u15$GT$$u20$for$u20$ux..u51$GT$4from17hab992a10d1663b72E
ffffff00002d28e0 T _ZN2ux10conversion72_$LT$impl$u20$core..convert..From$LT$ux..u15$GT$$u20$for$u20$ux..u52$GT$4from17ha78babc630a2a5d4E
ffffff00002d28e0 T _ZN2ux10conversion72_$LT$impl$u20$core..convert..From$LT$ux..u15$GT$$u20$for$u20$ux..u53$GT$4from17h3857d57bc4391e0aE
ffffff00002d28e0 T _ZN2ux10conversion72_$LT$impl$u20$core..convert..From$LT$ux..u15$GT$$u20$for$u20$ux..u54$GT$4from17h7e4e483c909929adE
ffffff00002d28e0 T _ZN2ux10conversion72_$LT$impl$u20$core..convert..From$LT$ux..u15$GT$$u20$for$u20$ux..u55$GT$4from17hc5a1699ad8ff993aE
ffffff00002d28e0 T _ZN2ux10conversion72_$LT$impl$u20$core..convert..From$LT$ux..u15$GT$$u20$for$u20$ux..u56$GT$4from17h01fb7bebfa46c10aE
ffffff00002d28e0 T _ZN2ux10conversion72_$LT$impl$u20$core..convert..From$LT$ux..u15$GT$$u20$for$u20$ux..u57$GT$4from17h7a623a822466a667E
ffffff00002d28e0 T _ZN2ux10conversion72_$LT$impl$u20$core..convert..From$LT$ux..u15$GT$$u20$for$u20$ux..u58$GT$4from17hf8baecea1d99b3c4E
ffffff00002d28e0 T _ZN2ux10conversion72_$LT$impl$u20$core..convert..From$LT$ux..u15$GT$$u20$for$u20$ux..u59$GT$4from17hefd191e3860b937aE
ffffff00002d28e0 T _ZN2ux10conversion72_$LT$impl$u20$core..convert..From$LT$ux..u15$GT$$u20$for$u20$ux..u60$GT$4from17h5e0fa337ed9ad6c1E
ffffff00002d28e0 T _ZN2ux10conversion72_$LT$impl$u20$core..convert..From$LT$ux..u15$GT$$u20$for$u20$ux..u61$GT$4from17hf7f96c085e80b302E
ffffff00002d28e0 T _ZN2ux10conversion72_$LT$impl$u20$core..convert..From$LT$ux..u15$GT$$u20$for$u20$ux..u62$GT$4from17hb5f5f34f1f3a2bd3E
ffffff00002d28e0 T _ZN2ux10conversion72_$LT$impl$u20$core..convert..From$LT$ux..u15$GT$$u20$for$u20$ux..u63$GT$4from17h37424486930b24e8E
ffffff00002d2980 T _ZN2ux10conversion72_$LT$impl$u20$core..convert..From$LT$ux..u17$GT$$u20$for$u20$ux..u18$GT$4from17hdca76dec66cadea3E
ffffff00002d2980 T _ZN2ux10conversion72_$LT$impl$u20$core..convert..From$LT$ux..u17$GT$$u20$for$u20$ux..u19$GT$4from17h729f87138cb7cdbeE
ffffff00002d2980 T _ZN2ux10conversion72_$LT$impl$u20$core..convert..From$LT$ux..u17$GT$$u20$for$u20$ux..u20$GT$4from17hee5e9a363dda994bE
ffffff00002d2980 T _ZN2ux10conversion72_$LT$impl$u20$core..convert..From$LT$ux..u17$GT$$u20$for$u20$ux..u21$GT$4from17h635f93bda0a6803bE
ffffff00002d2980 T _ZN2ux10conversion72_$LT$impl$u20$core..convert..From$LT$ux..u17$GT$$u20$for$u20$ux..u22$GT$4from17h946ce0794fdc9eecE
ffffff00002d2980 T _ZN2ux10conversion72_$LT$impl$u20$core..convert..From$LT$ux..u17$GT$$u20$for$u20$ux..u23$GT$4from17h99df6698f623b609E
ffffff00002d2980 T _ZN2ux10conversion72_$LT$impl$u20$core..convert..From$LT$ux..u17$GT$$u20$for$u20$ux..u24$GT$4from17hb5484f4f127cb468E
ffffff00002d2980 T _ZN2ux10conversion72_$LT$impl$u20$core..convert..From$LT$ux..u17$GT$$u20$for$u20$ux..u25$GT$4from17h8b79b802e2708c59E
ffffff00002d2980 T _ZN2ux10conversion72_$LT$impl$u20$core..convert..From$LT$ux..u17$GT$$u20$for$u20$ux..u26$GT$4from17ha3dfeaa08206582dE
ffffff00002d2980 T _ZN2ux10conversion72_$LT$impl$u20$core..convert..From$LT$ux..u17$GT$$u20$for$u20$ux..u27$GT$4from17hd5b9e7aa3b4502aeE
ffffff00002d2980 T _ZN2ux10conversion72_$LT$impl$u20$core..convert..From$LT$ux..u17$GT$$u20$for$u20$ux..u28$GT$4from17h7bd90c85e89b7440E
ffffff00002d2980 T _ZN2ux10conversion72_$LT$impl$u20$core..convert..From$LT$ux..u17$GT$$u20$for$u20$ux..u29$GT$4from17h51bfdb7c98e48e55E
ffffff00002d2980 T _ZN2ux10conversion72_$LT$impl$u20$core..convert..From$LT$ux..u17$GT$$u20$for$u20$ux..u30$GT$4from17h95d7548ac4ecd8f5E
ffffff00002d2980 T _ZN2ux10conversion72_$LT$impl$u20$core..convert..From$LT$ux..u17$GT$$u20$for$u20$ux..u31$GT$4from17h2f5410e9319c2fb5E
ffffff00002d28f0 T _ZN2ux10conversion72_$LT$impl$u20$core..convert..From$LT$ux..u17$GT$$u20$for$u20$ux..u33$GT$4from17h7a5e84a54759a58bE
ffffff00002d28f0 T _ZN2ux10conversion72_$LT$impl$u20$core..convert..From$LT$ux..u17$GT$$u20$for$u20$ux..u34$GT$4from17h0cd879fd7a5e8fa6E
ffffff00002d28f0 T _ZN2ux10conversion72_$LT$impl$u20$core..convert..From$LT$ux..u17$GT$$u20$for$u20$ux..u35$GT$4from17hccb89de13d647e2cE
ffffff00002d28f0 T _ZN2ux10conversion72_$LT$impl$u20$core..convert..From$LT$ux..u17$GT$$u20$for$u20$ux..u36$GT$4from17h3d0e7c840d8b3fffE
ffffff00002d28f0 T _ZN2ux10conversion72_$LT$impl$u20$core..convert..From$LT$ux..u17$GT$$u20$for$u20$ux..u37$GT$4from17hb499b4c23cf4022dE
ffffff00002d28f0 T _ZN2ux10conversion72_$LT$impl$u20$core..convert..From$LT$ux..u17$GT$$u20$for$u20$ux..u38$GT$4from17hfd8dd127bf66ce28E
ffffff00002d28f0 T _ZN2ux10conversion72_$LT$impl$u20$core..convert..From$LT$ux..u17$GT$$u20$for$u20$ux..u39$GT$4from17ha6f226f198addc72E
ffffff00002d28f0 T _ZN2ux10conversion72_$LT$impl$u20$core..convert..From$LT$ux..u17$GT$$u20$for$u20$ux..u40$GT$4from17h312d85084e6d73efE
ffffff00002d28f0 T _ZN2ux10conversion72_$LT$impl$u20$core..convert..From$LT$ux..u17$GT$$u20$for$u20$ux..u41$GT$4from17h13f2657cb2e129a9E
ffffff00002d28f0 T _ZN2ux10conversion72_$LT$impl$u20$core..convert..From$LT$ux..u17$GT$$u20$for$u20$ux..u42$GT$4from17h9aa5701ddeb5949eE
ffffff00002d28f0 T _ZN2ux10conversion72_$LT$impl$u20$core..convert..From$LT$ux..u17$GT$$u20$for$u20$ux..u43$GT$4from17h1b91af72c05e63b9E
ffffff00002d28f0 T _ZN2ux10conversion72_$LT$impl$u20$core..convert..From$LT$ux..u17$GT$$u20$for$u20$ux..u44$GT$4from17h96b92257febe0376E
ffffff00002d28f0 T _ZN2ux10conversion72_$LT$impl$u20$core..convert..From$LT$ux..u17$GT$$u20$for$u20$ux..u45$GT$4from17hcc0ba3bd4b18cbc0E
ffffff00002d28f0 T _ZN2ux10conversion72_$LT$impl$u20$core..convert..From$LT$ux..u17$GT$$u20$for$u20$ux..u46$GT$4from17h35aa992b517da2d5E
ffffff00002d28f0 T _ZN2ux10conversion72_$LT$impl$u20$core..convert..From$LT$ux..u17$GT$$u20$for$u20$ux..u47$GT$4from17h6c17c7ab167ff3f6E
ffffff00002d28f0 T _ZN2ux10conversion72_$LT$impl$u20$core..convert..From$LT$ux..u17$GT$$u20$for$u20$ux..u48$GT$4from17h594f41f2912e00acE
ffffff00002d28f0 T _ZN2ux10conversion72_$LT$impl$u20$core..convert..From$LT$ux..u17$GT$$u20$for$u20$ux..u49$GT$4from17h122100f8b9c26805E
ffffff00002d28f0 T _ZN2ux10conversion72_$LT$impl$u20$core..convert..From$LT$ux..u17$GT$$u20$for$u20$ux..u50$GT$4from17h0490dbc6af111f65E
ffffff00002d28f0 T _ZN2ux10conversion72_$LT$impl$u20$core..convert..From$LT$ux..u17$GT$$u20$for$u20$ux..u51$GT$4from17hce23074ecfe466deE
ffffff00002d28f0 T _ZN2ux10conversion72_$LT$impl$u20$core..convert..From$LT$ux..u17$GT$$u20$for$u20$ux..u52$GT$4from17h8ac7e1db0bb9c3a9E
ffffff00002d28f0 T _ZN2ux10conversion72_$LT$impl$u20$core..convert..From$LT$ux..u17$GT$$u20$for$u20$ux..u53$GT$4from17hec8821f60eaefe10E
ffffff00002d28f0 T _ZN2ux10conversion72_$LT$impl$u20$core..convert..From$LT$ux..u17$GT$$u20$for$u20$ux..u54$GT$4from17h9f51f1b11614d0a0E
ffffff00002d28f0 T _ZN2ux10conversion72_$LT$impl$u20$core..convert..From$LT$ux..u17$GT$$u20$for$u20$ux..u55$GT$4from17h08d03414a1890356E
ffffff00002d28f0 T _ZN2ux10conversion72_$LT$impl$u20$core..convert..From$LT$ux..u17$GT$$u20$for$u20$ux..u56$GT$4from17he51f2a3deed4bad6E
ffffff00002d28f0 T _ZN2ux10conversion72_$LT$impl$u20$core..convert..From$LT$ux..u17$GT$$u20$for$u20$ux..u57$GT$4from17ha2ced35d87a2a8d1E
ffffff00002d28f0 T _ZN2ux10conversion72_$LT$impl$u20$core..convert..From$LT$ux..u17$GT$$u20$for$u20$ux..u58$GT$4from17h1a68d695f6d78bc3E
ffffff00002d28f0 T _ZN2ux10conversion72_$LT$impl$u20$core..convert..From$LT$ux..u17$GT$$u20$for$u20$ux..u59$GT$4from17hafab2b96c60c637dE
ffffff00002d28f0 T _ZN2ux10conversion72_$LT$impl$u20$core..convert..From$LT$ux..u17$GT$$u20$for$u20$ux..u60$GT$4from17hdc39fab6704451dcE
ffffff00002d28f0 T _ZN2ux10conversion72_$LT$impl$u20$core..convert..From$LT$ux..u17$GT$$u20$for$u20$ux..u61$GT$4from17ha42189e54f7cabecE
ffffff00002d28f0 T _ZN2ux10conversion72_$LT$impl$u20$core..convert..From$LT$ux..u17$GT$$u20$for$u20$ux..u62$GT$4from17h41b60dcee58cc4dbE
ffffff00002d28f0 T _ZN2ux10conversion72_$LT$impl$u20$core..convert..From$LT$ux..u17$GT$$u20$for$u20$ux..u63$GT$4from17hb4872687c71b18f5E
ffffff00002d2980 T _ZN2ux10conversion72_$LT$impl$u20$core..convert..From$LT$ux..u18$GT$$u20$for$u20$ux..u19$GT$4from17hc3cf76a2680a892cE
ffffff00002d2980 T _ZN2ux10conversion72_$LT$impl$u20$core..convert..From$LT$ux..u18$GT$$u20$for$u20$ux..u20$GT$4from17hf44935c769568030E
ffffff00002d2980 T _ZN2ux10conversion72_$LT$impl$u20$core..convert..From$LT$ux..u18$GT$$u20$for$u20$ux..u21$GT$4from17h597e5c6aebb3dbc6E
ffffff00002d2980 T _ZN2ux10conversion72_$LT$impl$u20$core..convert..From$LT$ux..u18$GT$$u20$for$u20$ux..u22$GT$4from17h42b11fce9d4b0d2bE
ffffff00002d2980 T _ZN2ux10conversion72_$LT$impl$u20$core..convert..From$LT$ux..u18$GT$$u20$for$u20$ux..u23$GT$4from17hbe72ae2aaf4e386dE
ffffff00002d2980 T _ZN2ux10conversion72_$LT$impl$u20$core..convert..From$LT$ux..u18$GT$$u20$for$u20$ux..u24$GT$4from17hc178b64d9e08356fE
ffffff00002d2980 T _ZN2ux10conversion72_$LT$impl$u20$core..convert..From$LT$ux..u18$GT$$u20$for$u20$ux..u25$GT$4from17h200bf3944fa9ae9fE
ffffff00002d2980 T _ZN2ux10conversion72_$LT$impl$u20$core..convert..From$LT$ux..u18$GT$$u20$for$u20$ux..u26$GT$4from17h35a16bdf1462f27cE
ffffff00002d2980 T _ZN2ux10conversion72_$LT$impl$u20$core..convert..From$LT$ux..u18$GT$$u20$for$u20$ux..u27$GT$4from17h3caddbba50941e2bE
ffffff00002d2980 T _ZN2ux10conversion72_$LT$impl$u20$core..convert..From$LT$ux..u18$GT$$u20$for$u20$ux..u28$GT$4from17hf0a613e7ff40cdbaE
ffffff00002d2980 T _ZN2ux10conversion72_$LT$impl$u20$core..convert..From$LT$ux..u18$GT$$u20$for$u20$ux..u29$GT$4from17h4c551690d65c68e8E
ffffff00002d2980 T _ZN2ux10conversion72_$LT$impl$u20$core..convert..From$LT$ux..u18$GT$$u20$for$u20$ux..u30$GT$4from17hd2e35114a0d40bb5E
ffffff00002d2980 T _ZN2ux10conversion72_$LT$impl$u20$core..convert..From$LT$ux..u18$GT$$u20$for$u20$ux..u31$GT$4from17h306660029aeb8711E
ffffff00002d28f0 T _ZN2ux10conversion72_$LT$impl$u20$core..convert..From$LT$ux..u18$GT$$u20$for$u20$ux..u33$GT$4from17h7fd6c156a16073bcE
ffffff00002d28f0 T _ZN2ux10conversion72_$LT$impl$u20$core..convert..From$LT$ux..u18$GT$$u20$for$u20$ux..u34$GT$4from17hdfa3a1ea40a3fe44E
ffffff00002d28f0 T _ZN2ux10conversion72_$LT$impl$u20$core..convert..From$LT$ux..u18$GT$$u20$for$u20$ux..u35$GT$4from17h84ff618c734d49e6E
ffffff00002d28f0 T _ZN2ux10conversion72_$LT$impl$u20$core..convert..From$LT$ux..u18$GT$$u20$for$u20$ux..u36$GT$4from17h35f45228c975bf8bE
ffffff00002d28f0 T _ZN2ux10conversion72_$LT$impl$u20$core..convert..From$LT$ux..u18$GT$$u20$for$u20$ux..u37$GT$4from17he6a2757c07b432c7E
ffffff00002d28f0 T _ZN2ux10conversion72_$LT$impl$u20$core..convert..From$LT$ux..u18$GT$$u20$for$u20$ux..u38$GT$4from17h8cc226d7f6dfbc09E
ffffff00002d28f0 T _ZN2ux10conversion72_$LT$impl$u20$core..convert..From$LT$ux..u18$GT$$u20$for$u20$ux..u39$GT$4from17h2e45142f3d9f6fbaE
ffffff00002d28f0 T _ZN2ux10conversion72_$LT$impl$u20$core..convert..From$LT$ux..u18$GT$$u20$for$u20$ux..u40$GT$4from17h5de50963021dbbd1E
ffffff00002d28f0 T _ZN2ux10conversion72_$LT$impl$u20$core..convert..From$LT$ux..u18$GT$$u20$for$u20$ux..u41$GT$4from17h416cd2a906169668E
ffffff00002d28f0 T _ZN2ux10conversion72_$LT$impl$u20$core..convert..From$LT$ux..u18$GT$$u20$for$u20$ux..u42$GT$4from17h6539a64ee762d1e1E
ffffff00002d28f0 T _ZN2ux10conversion72_$LT$impl$u20$core..convert..From$LT$ux..u18$GT$$u20$for$u20$ux..u43$GT$4from17h3cf623ddafcaacf1E
ffffff00002d28f0 T _ZN2ux10conversion72_$LT$impl$u20$core..convert..From$LT$ux..u18$GT$$u20$for$u20$ux..u44$GT$4from17h5ae50213292427a8E
ffffff00002d28f0 T _ZN2ux10conversion72_$LT$impl$u20$core..convert..From$LT$ux..u18$GT$$u20$for$u20$ux..u45$GT$4from17h800659e1be9a12afE
ffffff00002d28f0 T _ZN2ux10conversion72_$LT$impl$u20$core..convert..From$LT$ux..u18$GT$$u20$for$u20$ux..u46$GT$4from17h298aa5a99fa63e1cE
ffffff00002d28f0 T _ZN2ux10conversion72_$LT$impl$u20$core..convert..From$LT$ux..u18$GT$$u20$for$u20$ux..u47$GT$4from17h37f8c2eee7ddde2bE
ffffff00002d28f0 T _ZN2ux10conversion72_$LT$impl$u20$core..convert..From$LT$ux..u18$GT$$u20$for$u20$ux..u48$GT$4from17he1b4e0cd424a5f52E
ffffff00002d28f0 T _ZN2ux10conversion72_$LT$impl$u20$core..convert..From$LT$ux..u18$GT$$u20$for$u20$ux..u49$GT$4from17h3b7f37a9c1005dd4E
ffffff00002d28f0 T _ZN2ux10conversion72_$LT$impl$u20$core..convert..From$LT$ux..u18$GT$$u20$for$u20$ux..u50$GT$4from17hdfab28a9342e24a3E
ffffff00002d28f0 T _ZN2ux10conversion72_$LT$impl$u20$core..convert..From$LT$ux..u18$GT$$u20$for$u20$ux..u51$GT$4from17h6817472f734b4bf6E
ffffff00002d28f0 T _ZN2ux10conversion72_$LT$impl$u20$core..convert..From$LT$ux..u18$GT$$u20$for$u20$ux..u52$GT$4from17h42f0c2622255e584E
ffffff00002d28f0 T _ZN2ux10conversion72_$LT$impl$u20$core..convert..From$LT$ux..u18$GT$$u20$for$u20$ux..u53$GT$4from17h106d5f8d082df936E
ffffff00002d28f0 T _ZN2ux10conversion72_$LT$impl$u20$core..convert..From$LT$ux..u18$GT$$u20$for$u20$ux..u54$GT$4from17hc9f84452cf38170bE
ffffff00002d28f0 T _ZN2ux10conversion72_$LT$impl$u20$core..convert..From$LT$ux..u18$GT$$u20$for$u20$ux..u55$GT$4from17h44a9649aa15a7e08E
ffffff00002d28f0 T _ZN2ux10conversion72_$LT$impl$u20$core..convert..From$LT$ux..u18$GT$$u20$for$u20$ux..u56$GT$4from17he588a02542754618E
ffffff00002d28f0 T _ZN2ux10conversion72_$LT$impl$u20$core..convert..From$LT$ux..u18$GT$$u20$for$u20$ux..u57$GT$4from17hbaac8a891b328aedE
ffffff00002d28f0 T _ZN2ux10conversion72_$LT$impl$u20$core..convert..From$LT$ux..u18$GT$$u20$for$u20$ux..u58$GT$4from17ha830242f1a988ee5E
ffffff00002d28f0 T _ZN2ux10conversion72_$LT$impl$u20$core..convert..From$LT$ux..u18$GT$$u20$for$u20$ux..u59$GT$4from17h7382b4bed94025d6E
ffffff00002d28f0 T _ZN2ux10conversion72_$LT$impl$u20$core..convert..From$LT$ux..u18$GT$$u20$for$u20$ux..u60$GT$4from17hb7aab9ed1df28a48E
ffffff00002d28f0 T _ZN2ux10conversion72_$LT$impl$u20$core..convert..From$LT$ux..u18$GT$$u20$for$u20$ux..u61$GT$4from17h938f8bbff25d7dccE
ffffff00002d28f0 T _ZN2ux10conversion72_$LT$impl$u20$core..convert..From$LT$ux..u18$GT$$u20$for$u20$ux..u62$GT$4from17hccabed698f59cf8bE
ffffff00002d28f0 T _ZN2ux10conversion72_$LT$impl$u20$core..convert..From$LT$ux..u18$GT$$u20$for$u20$ux..u63$GT$4from17h8b0b450a3ec0d4e1E
ffffff00002d2980 T _ZN2ux10conversion72_$LT$impl$u20$core..convert..From$LT$ux..u19$GT$$u20$for$u20$ux..u20$GT$4from17h918c0d642f37c9a9E
ffffff00002d2980 T _ZN2ux10conversion72_$LT$impl$u20$core..convert..From$LT$ux..u19$GT$$u20$for$u20$ux..u21$GT$4from17hca01248f22932331E
ffffff00002d2980 T _ZN2ux10conversion72_$LT$impl$u20$core..convert..From$LT$ux..u19$GT$$u20$for$u20$ux..u22$GT$4from17h873577536660f4e8E
ffffff00002d2980 T _ZN2ux10conversion72_$LT$impl$u20$core..convert..From$LT$ux..u19$GT$$u20$for$u20$ux..u23$GT$4from17h511f94065176b00dE
ffffff00002d2980 T _ZN2ux10conversion72_$LT$impl$u20$core..convert..From$LT$ux..u19$GT$$u20$for$u20$ux..u24$GT$4from17hb903d725b78cd475E
ffffff00002d2980 T _ZN2ux10conversion72_$LT$impl$u20$core..convert..From$LT$ux..u19$GT$$u20$for$u20$ux..u25$GT$4from17h4977f20a48a501c0E
ffffff00002d2980 T _ZN2ux10conversion72_$LT$impl$u20$core..convert..From$LT$ux..u19$GT$$u20$for$u20$ux..u26$GT$4from17h8d03c78b2496c8e9E
ffffff00002d2980 T _ZN2ux10conversion72_$LT$impl$u20$core..convert..From$LT$ux..u19$GT$$u20$for$u20$ux..u27$GT$4from17ha2b99ab1478e04baE
ffffff00002d2980 T _ZN2ux10conversion72_$LT$impl$u20$core..convert..From$LT$ux..u19$GT$$u20$for$u20$ux..u28$GT$4from17h099d3bd3b6f4d90eE
ffffff00002d2980 T _ZN2ux10conversion72_$LT$impl$u20$core..convert..From$LT$ux..u19$GT$$u20$for$u20$ux..u29$GT$4from17hf08b36b9da1d4432E
ffffff00002d2980 T _ZN2ux10conversion72_$LT$impl$u20$core..convert..From$LT$ux..u19$GT$$u20$for$u20$ux..u30$GT$4from17h300bb56ca1ae3fbcE
ffffff00002d2980 T _ZN2ux10conversion72_$LT$impl$u20$core..convert..From$LT$ux..u19$GT$$u20$for$u20$ux..u31$GT$4from17h77e69ccf333baa36E
ffffff00002d28f0 T _ZN2ux10conversion72_$LT$impl$u20$core..convert..From$LT$ux..u19$GT$$u20$for$u20$ux..u33$GT$4from17h62e63426f3ea8aeeE
ffffff00002d28f0 T _ZN2ux10conversion72_$LT$impl$u20$core..convert..From$LT$ux..u19$GT$$u20$for$u20$ux..u34$GT$4from17hf1b70fadc5d8aa68E
ffffff00002d28f0 T _ZN2ux10conversion72_$LT$impl$u20$core..convert..From$LT$ux..u19$GT$$u20$for$u20$ux..u35$GT$4from17h375fd8c09d33d1d2E
ffffff00002d28f0 T _ZN2ux10conversion72_$LT$impl$u20$core..convert..From$LT$ux..u19$GT$$u20$for$u20$ux..u36$GT$4from17h6bb1791c1eed2076E
ffffff00002d28f0 T _ZN2ux10conversion72_$LT$impl$u20$core..convert..From$LT$ux..u19$GT$$u20$for$u20$ux..u37$GT$4from17he8f230e30d03aa9fE
ffffff00002d28f0 T _ZN2ux10conversion72_$LT$impl$u20$core..convert..From$LT$ux..u19$GT$$u20$for$u20$ux..u38$GT$4from17he40b7d4f3687d3eaE
ffffff00002d28f0 T _ZN2ux10conversion72_$LT$impl$u20$core..convert..From$LT$ux..u19$GT$$u20$for$u20$ux..u39$GT$4from17h8c2512728b537a32E
ffffff00002d28f0 T _ZN2ux10conversion72_$LT$impl$u20$core..convert..From$LT$ux..u19$GT$$u20$for$u20$ux..u40$GT$4from17h0b305d1515fb809eE
ffffff00002d28f0 T _ZN2ux10conversion72_$LT$impl$u20$core..convert..From$LT$ux..u19$GT$$u20$for$u20$ux..u41$GT$4from17hd17bf7bc979b51e3E
ffffff00002d28f0 T _ZN2ux10conversion72_$LT$impl$u20$core..convert..From$LT$ux..u19$GT$$u20$for$u20$ux..u42$GT$4from17hb12434eaad667f1dE
ffffff00002d28f0 T _ZN2ux10conversion72_$LT$impl$u20$core..convert..From$LT$ux..u19$GT$$u20$for$u20$ux..u43$GT$4from17h03d511b11954bfb2E
ffffff00002d28f0 T _ZN2ux10conversion72_$LT$impl$u20$core..convert..From$LT$ux..u19$GT$$u20$for$u20$ux..u44$GT$4from17h5782b2540d2d6972E
ffffff00002d28f0 T _ZN2ux10conversion72_$LT$impl$u20$core..convert..From$LT$ux..u19$GT$$u20$for$u20$ux..u45$GT$4from17he4b7e5a017e8c4abE
ffffff00002d28f0 T _ZN2ux10conversion72_$LT$impl$u20$core..convert..From$LT$ux..u19$GT$$u20$for$u20$ux..u46$GT$4from17h1d5636e6dc1503e7E
ffffff00002d28f0 T _ZN2ux10conversion72_$LT$impl$u20$core..convert..From$LT$ux..u19$GT$$u20$for$u20$ux..u47$GT$4from17hc68d9d6afbbe56fcE
ffffff00002d28f0 T _ZN2ux10conversion72_$LT$impl$u20$core..convert..From$LT$ux..u19$GT$$u20$for$u20$ux..u48$GT$4from17h099e6257a867d2a1E
ffffff00002d28f0 T _ZN2ux10conversion72_$LT$impl$u20$core..convert..From$LT$ux..u19$GT$$u20$for$u20$ux..u49$GT$4from17hddb7a195c9f9474dE
ffffff00002d28f0 T _ZN2ux10conversion72_$LT$impl$u20$core..convert..From$LT$ux..u19$GT$$u20$for$u20$ux..u50$GT$4from17h7ee080a16ca33ddaE
ffffff00002d28f0 T _ZN2ux10conversion72_$LT$impl$u20$core..convert..From$LT$ux..u19$GT$$u20$for$u20$ux..u51$GT$4from17hf72df6b3d58ee5b0E
ffffff00002d28f0 T _ZN2ux10conversion72_$LT$impl$u20$core..convert..From$LT$ux..u19$GT$$u20$for$u20$ux..u52$GT$4from17h7a5ceb69a9366afbE
ffffff00002d28f0 T _ZN2ux10conversion72_$LT$impl$u20$core..convert..From$LT$ux..u19$GT$$u20$for$u20$ux..u53$GT$4from17h7207dccbe5d4c6ffE
ffffff00002d28f0 T _ZN2ux10conversion72_$LT$impl$u20$core..convert..From$LT$ux..u19$GT$$u20$for$u20$ux..u54$GT$4from17h43d409479d120d5bE
ffffff00002d28f0 T _ZN2ux10conversion72_$LT$impl$u20$core..convert..From$LT$ux..u19$GT$$u20$for$u20$ux..u55$GT$4from17h474b33d1e28fef82E
ffffff00002d28f0 T _ZN2ux10conversion72_$LT$impl$u20$core..convert..From$LT$ux..u19$GT$$u20$for$u20$ux..u56$GT$4from17h6cef96bbfc92b264E
ffffff00002d28f0 T _ZN2ux10conversion72_$LT$impl$u20$core..convert..From$LT$ux..u19$GT$$u20$for$u20$ux..u57$GT$4from17h46c1398523ea9925E
ffffff00002d28f0 T _ZN2ux10conversion72_$LT$impl$u20$core..convert..From$LT$ux..u19$GT$$u20$for$u20$ux..u58$GT$4from17h6d91c65e5dfcaf56E
ffffff00002d28f0 T _ZN2ux10conversion72_$LT$impl$u20$core..convert..From$LT$ux..u19$GT$$u20$for$u20$ux..u59$GT$4from17h8841a12ab3decb10E
ffffff00002d28f0 T _ZN2ux10conversion72_$LT$impl$u20$core..convert..From$LT$ux..u19$GT$$u20$for$u20$ux..u60$GT$4from17hbbdd01dde49a3ac4E
ffffff00002d28f0 T _ZN2ux10conversion72_$LT$impl$u20$core..convert..From$LT$ux..u19$GT$$u20$for$u20$ux..u61$GT$4from17hc936dcefa45aab43E
ffffff00002d28f0 T _ZN2ux10conversion72_$LT$impl$u20$core..convert..From$LT$ux..u19$GT$$u20$for$u20$ux..u62$GT$4from17h0582214f3750b653E
ffffff00002d28f0 T _ZN2ux10conversion72_$LT$impl$u20$core..convert..From$LT$ux..u19$GT$$u20$for$u20$ux..u63$GT$4from17h5a196ad575560d73E
ffffff00002d2980 T _ZN2ux10conversion72_$LT$impl$u20$core..convert..From$LT$ux..u20$GT$$u20$for$u20$ux..u21$GT$4from17hd8564d651e46f23fE
ffffff00002d2980 T _ZN2ux10conversion72_$LT$impl$u20$core..convert..From$LT$ux..u20$GT$$u20$for$u20$ux..u22$GT$4from17ha7e1425b106719abE
ffffff00002d2980 T _ZN2ux10conversion72_$LT$impl$u20$core..convert..From$LT$ux..u20$GT$$u20$for$u20$ux..u23$GT$4from17h4e18b73ce5cdd011E
ffffff00002d2980 T _ZN2ux10conversion72_$LT$impl$u20$core..convert..From$LT$ux..u20$GT$$u20$for$u20$ux..u24$GT$4from17hd9530ec11adf3ed9E
ffffff00002d2980 T _ZN2ux10conversion72_$LT$impl$u20$core..convert..From$LT$ux..u20$GT$$u20$for$u20$ux..u25$GT$4from17h3045440aca6b9582E
ffffff00002d2980 T _ZN2ux10conversion72_$LT$impl$u20$core..convert..From$LT$ux..u20$GT$$u20$for$u20$ux..u26$GT$4from17hca99fed64c666041E
ffffff00002d2980 T _ZN2ux10conversion72_$LT$impl$u20$core..convert..From$LT$ux..u20$GT$$u20$for$u20$ux..u27$GT$4from17hd05fcfe671c54a82E
ffffff00002d2980 T _ZN2ux10conversion72_$LT$impl$u20$core..convert..From$LT$ux..u20$GT$$u20$for$u20$ux..u28$GT$4from17h10d21c76edf20eb4E
ffffff00002d2980 T _ZN2ux10conversion72_$LT$impl$u20$core..convert..From$LT$ux..u20$GT$$u20$for$u20$ux..u29$GT$4from17h9614a32a3357789eE
ffffff00002d2980 T _ZN2ux10conversion72_$LT$impl$u20$core..convert..From$LT$ux..u20$GT$$u20$for$u20$ux..u30$GT$4from17h13b28eab7ae9fdddE
ffffff00002d2980 T _ZN2ux10conversion72_$LT$impl$u20$core..convert..From$LT$ux..u20$GT$$u20$for$u20$ux..u31$GT$4from17h5b797766b8ef9bc0E
ffffff00002d28f0 T _ZN2ux10conversion72_$LT$impl$u20$core..convert..From$LT$ux..u20$GT$$u20$for$u20$ux..u33$GT$4from17h236bce9d117358a5E
ffffff00002d28f0 T _ZN2ux10conversion72_$LT$impl$u20$core..convert..From$LT$ux..u20$GT$$u20$for$u20$ux..u34$GT$4from17hc124a47cfb2594ceE
ffffff00002d28f0 T _ZN2ux10conversion72_$LT$impl$u20$core..convert..From$LT$ux..u20$GT$$u20$for$u20$ux..u35$GT$4from17hcdcd42c0a9346df8E
ffffff00002d28f0 T _ZN2ux10conversion72_$LT$impl$u20$core..convert..From$LT$ux..u20$GT$$u20$for$u20$ux..u36$GT$4from17h9010f5fc104a9e66E
ffffff00002d28f0 T _ZN2ux10conversion72_$LT$impl$u20$core..convert..From$LT$ux..u20$GT$$u20$for$u20$ux..u37$GT$4from17h54e93217dfb4ea25E
ffffff00002d28f0 T _ZN2ux10conversion72_$LT$impl$u20$core..convert..From$LT$ux..u20$GT$$u20$for$u20$ux..u38$GT$4from17h9ce69f2392c69caaE
ffffff00002d28f0 T _ZN2ux10conversion72_$LT$impl$u20$core..convert..From$LT$ux..u20$GT$$u20$for$u20$ux..u39$GT$4from17hb819f0b48c41c75bE
ffffff00002d28f0 T _ZN2ux10conversion72_$LT$impl$u20$core..convert..From$LT$ux..u20$GT$$u20$for$u20$ux..u40$GT$4from17h99ee295f6b11d2e1E
ffffff00002d28f0 T _ZN2ux10conversion72_$LT$impl$u20$core..convert..From$LT$ux..u20$GT$$u20$for$u20$ux..u41$GT$4from17h276e53d08f01d885E
ffffff00002d28f0 T _ZN2ux10conversion72_$LT$impl$u20$core..convert..From$LT$ux..u20$GT$$u20$for$u20$ux..u42$GT$4from17h3777c89c0aee9be9E
ffffff00002d28f0 T _ZN2ux10conversion72_$LT$impl$u20$core..convert..From$LT$ux..u20$GT$$u20$for$u20$ux..u43$GT$4from17hba64005010755824E
ffffff00002d28f0 T _ZN2ux10conversion72_$LT$impl$u20$core..convert..From$LT$ux..u20$GT$$u20$for$u20$ux..u44$GT$4from17hb1fbb4b223398789E
ffffff00002d28f0 T _ZN2ux10conversion72_$LT$impl$u20$core..convert..From$LT$ux..u20$GT$$u20$for$u20$ux..u45$GT$4from17hc293cc601ba05d95E
ffffff00002d28f0 T _ZN2ux10conversion72_$LT$impl$u20$core..convert..From$LT$ux..u20$GT$$u20$for$u20$ux..u46$GT$4from17h8e62d41a0649ca70E
ffffff00002d28f0 T _ZN2ux10conversion72_$LT$impl$u20$core..convert..From$LT$ux..u20$GT$$u20$for$u20$ux..u47$GT$4from17he9bdb4a9b305abaeE
ffffff00002d28f0 T _ZN2ux10conversion72_$LT$impl$u20$core..convert..From$LT$ux..u20$GT$$u20$for$u20$ux..u48$GT$4from17h214a02bb6bbc393cE
ffffff00002d28f0 T _ZN2ux10conversion72_$LT$impl$u20$core..convert..From$LT$ux..u20$GT$$u20$for$u20$ux..u49$GT$4from17hc6cdebcba6e679caE
ffffff00002d28f0 T _ZN2ux10conversion72_$LT$impl$u20$core..convert..From$LT$ux..u20$GT$$u20$for$u20$ux..u50$GT$4from17h2d0115ed8961f55cE
ffffff00002d28f0 T _ZN2ux10conversion72_$LT$impl$u20$core..convert..From$LT$ux..u20$GT$$u20$for$u20$ux..u51$GT$4from17h318c43831381c3a0E
ffffff00002d28f0 T _ZN2ux10conversion72_$LT$impl$u20$core..convert..From$LT$ux..u20$GT$$u20$for$u20$ux..u52$GT$4from17habba50a32cf71415E
ffffff00002d28f0 T _ZN2ux10conversion72_$LT$impl$u20$core..convert..From$LT$ux..u20$GT$$u20$for$u20$ux..u53$GT$4from17h90173144f87672efE
ffffff00002d28f0 T _ZN2ux10conversion72_$LT$impl$u20$core..convert..From$LT$ux..u20$GT$$u20$for$u20$ux..u54$GT$4from17hd9337d98d87b35d2E
ffffff00002d28f0 T _ZN2ux10conversion72_$LT$impl$u20$core..convert..From$LT$ux..u20$GT$$u20$for$u20$ux..u55$GT$4from17h010eb863c7d9c116E
ffffff00002d28f0 T _ZN2ux10conversion72_$LT$impl$u20$core..convert..From$LT$ux..u20$GT$$u20$for$u20$ux..u56$GT$4from17hb17276f17ac3d71cE
ffffff00002d28f0 T _ZN2ux10conversion72_$LT$impl$u20$core..convert..From$LT$ux..u20$GT$$u20$for$u20$ux..u57$GT$4from17h09ae5116351f6f73E
ffffff00002d28f0 T _ZN2ux10conversion72_$LT$impl$u20$core..convert..From$LT$ux..u20$GT$$u20$for$u20$ux..u58$GT$4from17hd3815e883c0375afE
ffffff00002d28f0 T _ZN2ux10conversion72_$LT$impl$u20$core..convert..From$LT$ux..u20$GT$$u20$for$u20$ux..u59$GT$4from17h8df4de25c7a3d0b1E
ffffff00002d28f0 T _ZN2ux10conversion72_$LT$impl$u20$core..convert..From$LT$ux..u20$GT$$u20$for$u20$ux..u60$GT$4from17he0361c0c0a4784f3E
ffffff00002d28f0 T _ZN2ux10conversion72_$LT$impl$u20$core..convert..From$LT$ux..u20$GT$$u20$for$u20$ux..u61$GT$4from17h54f3170e06774460E
ffffff00002d28f0 T _ZN2ux10conversion72_$LT$impl$u20$core..convert..From$LT$ux..u20$GT$$u20$for$u20$ux..u62$GT$4from17hd13145f0fa328c8aE
ffffff00002d28f0 T _ZN2ux10conversion72_$LT$impl$u20$core..convert..From$LT$ux..u20$GT$$u20$for$u20$ux..u63$GT$4from17hd99de7e417f30c8aE
ffffff00002d2980 T _ZN2ux10conversion72_$LT$impl$u20$core..convert..From$LT$ux..u21$GT$$u20$for$u20$ux..u22$GT$4from17he183b7de5b4d4568E
ffffff00002d2980 T _ZN2ux10conversion72_$LT$impl$u20$core..convert..From$LT$ux..u21$GT$$u20$for$u20$ux..u23$GT$4from17h6cc4fd6823f1c902E
ffffff00002d2980 T _ZN2ux10conversion72_$LT$impl$u20$core..convert..From$LT$ux..u21$GT$$u20$for$u20$ux..u24$GT$4from17h91db360f1215bd6eE
ffffff00002d2980 T _ZN2ux10conversion72_$LT$impl$u20$core..convert..From$LT$ux..u21$GT$$u20$for$u20$ux..u25$GT$4from17h0055db10c449b9bfE
ffffff00002d2980 T _ZN2ux10conversion72_$LT$impl$u20$core..convert..From$LT$ux..u21$GT$$u20$for$u20$ux..u26$GT$4from17hfb611a34e0781252E
ffffff00002d2980 T _ZN2ux10conversion72_$LT$impl$u20$core..convert..From$LT$ux..u21$GT$$u20$for$u20$ux..u27$GT$4from17h941fca93f4cf086cE
ffffff00002d2980 T _ZN2ux10conversion72_$LT$impl$u20$core..convert..From$LT$ux..u21$GT$$u20$for$u20$ux..u28$GT$4from17hf99643a85a7317fcE
ffffff00002d2980 T _ZN2ux10conversion72_$LT$impl$u20$core..convert..From$LT$ux..u21$GT$$u20$for$u20$ux..u29$GT$4from17h6f529aefbecab0e6E
ffffff00002d2980 T _ZN2ux10conversion72_$LT$impl$u20$core..convert..From$LT$ux..u21$GT$$u20$for$u20$ux..u30$GT$4from17h76d713c1765f5027E
ffffff00002d2980 T _ZN2ux10conversion72_$LT$impl$u20$core..convert..From$LT$ux..u21$GT$$u20$for$u20$ux..u31$GT$4from17ha579c5082c4e705aE
ffffff00002d28f0 T _ZN2ux10conversion72_$LT$impl$u20$core..convert..From$LT$ux..u21$GT$$u20$for$u20$ux..u33$GT$4from17hd2fd1bbca565f2a7E
ffffff00002d28f0 T _ZN2ux10conversion72_$LT$impl$u20$core..convert..From$LT$ux..u21$GT$$u20$for$u20$ux..u34$GT$4from17h2f4542bbd6e34f09E
ffffff00002d28f0 T _ZN2ux10conversion72_$LT$impl$u20$core..convert..From$LT$ux..u21$GT$$u20$for$u20$ux..u35$GT$4from17h8d027453d1952c89E
ffffff00002d28f0 T _ZN2ux10conversion72_$LT$impl$u20$core..convert..From$LT$ux..u21$GT$$u20$for$u20$ux..u36$GT$4from17hef4575041f8ed832E
ffffff00002d28f0 T _ZN2ux10conversion72_$LT$impl$u20$core..convert..From$LT$ux..u21$GT$$u20$for$u20$ux..u37$GT$4from17hefb087593b08ffd1E
ffffff00002d28f0 T _ZN2ux10conversion72_$LT$impl$u20$core..convert..From$LT$ux..u21$GT$$u20$for$u20$ux..u38$GT$4from17he7f1263bbd3a1de3E
ffffff00002d28f0 T _ZN2ux10conversion72_$LT$impl$u20$core..convert..From$LT$ux..u21$GT$$u20$for$u20$ux..u39$GT$4from17h162ff3a1e5c3aa23E
ffffff00002d28f0 T _ZN2ux10conversion72_$LT$impl$u20$core..convert..From$LT$ux..u21$GT$$u20$for$u20$ux..u40$GT$4from17h916ef0e204d159a4E
ffffff00002d28f0 T _ZN2ux10conversion72_$LT$impl$u20$core..convert..From$LT$ux..u21$GT$$u20$for$u20$ux..u41$GT$4from17ha15f35c22f26f9f2E
ffffff00002d28f0 T _ZN2ux10conversion72_$LT$impl$u20$core..convert..From$LT$ux..u21$GT$$u20$for$u20$ux..u42$GT$4from17h2181b7d2eba812acE
ffffff00002d28f0 T _ZN2ux10conversion72_$LT$impl$u20$core..convert..From$LT$ux..u21$GT$$u20$for$u20$ux..u43$GT$4from17h65f9216a00f3d064E
ffffff00002d28f0 T _ZN2ux10conversion72_$LT$impl$u20$core..convert..From$LT$ux..u21$GT$$u20$for$u20$ux..u44$GT$4from17hf19686807d10c351E
ffffff00002d28f0 T _ZN2ux10conversion72_$LT$impl$u20$core..convert..From$LT$ux..u21$GT$$u20$for$u20$ux..u45$GT$4from17h583f91a5409d3f00E
ffffff00002d28f0 T _ZN2ux10conversion72_$LT$impl$u20$core..convert..From$LT$ux..u21$GT$$u20$for$u20$ux..u46$GT$4from17h62c717baf710529eE
ffffff00002d28f0 T _ZN2ux10conversion72_$LT$impl$u20$core..convert..From$LT$ux..u21$GT$$u20$for$u20$ux..u47$GT$4from17hb9a3cc26da4b9f50E
ffffff00002d28f0 T _ZN2ux10conversion72_$LT$impl$u20$core..convert..From$LT$ux..u21$GT$$u20$for$u20$ux..u48$GT$4from17hcbf75bac9d2f3e94E
ffffff00002d28f0 T _ZN2ux10conversion72_$LT$impl$u20$core..convert..From$LT$ux..u21$GT$$u20$for$u20$ux..u49$GT$4from17hade91992a1f145a7E
ffffff00002d28f0 T _ZN2ux10conversion72_$LT$impl$u20$core..convert..From$LT$ux..u21$GT$$u20$for$u20$ux..u50$GT$4from17hc8f41bfaa945a2f0E
ffffff00002d28f0 T _ZN2ux10conversion72_$LT$impl$u20$core..convert..From$LT$ux..u21$GT$$u20$for$u20$ux..u51$GT$4from17h2f87e025fd3f4bd9E
ffffff00002d28f0 T _ZN2ux10conversion72_$LT$impl$u20$core..convert..From$LT$ux..u21$GT$$u20$for$u20$ux..u52$GT$4from17hfb346c26ec1d7d3eE
ffffff00002d28f0 T _ZN2ux10conversion72_$LT$impl$u20$core..convert..From$LT$ux..u21$GT$$u20$for$u20$ux..u53$GT$4from17h96d4b74f87920a8cE
ffffff00002d28f0 T _ZN2ux10conversion72_$LT$impl$u20$core..convert..From$LT$ux..u21$GT$$u20$for$u20$ux..u54$GT$4from17hb148bb77aad5277fE
ffffff00002d28f0 T _ZN2ux10conversion72_$LT$impl$u20$core..convert..From$LT$ux..u21$GT$$u20$for$u20$ux..u55$GT$4from17h7dd4137aa8111d6dE
ffffff00002d28f0 T _ZN2ux10conversion72_$LT$impl$u20$core..convert..From$LT$ux..u21$GT$$u20$for$u20$ux..u56$GT$4from17hb4b9cfd5a461586fE
ffffff00002d28f0 T _ZN2ux10conversion72_$LT$impl$u20$core..convert..From$LT$ux..u21$GT$$u20$for$u20$ux..u57$GT$4from17he4fd7a8a0d2464a9E
ffffff00002d28f0 T _ZN2ux10conversion72_$LT$impl$u20$core..convert..From$LT$ux..u21$GT$$u20$for$u20$ux..u58$GT$4from17hf2055ebfcf9ac537E
ffffff00002d28f0 T _ZN2ux10conversion72_$LT$impl$u20$core..convert..From$LT$ux..u21$GT$$u20$for$u20$ux..u59$GT$4from17h5bc4a49801208124E
ffffff00002d28f0 T _ZN2ux10conversion72_$LT$impl$u20$core..convert..From$LT$ux..u21$GT$$u20$for$u20$ux..u60$GT$4from17h1cfa667f8ab78bf4E
ffffff00002d28f0 T _ZN2ux10conversion72_$LT$impl$u20$core..convert..From$LT$ux..u21$GT$$u20$for$u20$ux..u61$GT$4from17h57222f0929ca9ef8E
ffffff00002d28f0 T _ZN2ux10conversion72_$LT$impl$u20$core..convert..From$LT$ux..u21$GT$$u20$for$u20$ux..u62$GT$4from17he17c8eeb6e617937E
ffffff00002d28f0 T _ZN2ux10conversion72_$LT$impl$u20$core..convert..From$LT$ux..u21$GT$$u20$for$u20$ux..u63$GT$4from17hcef9a646c5443b85E
ffffff00002d2980 T _ZN2ux10conversion72_$LT$impl$u20$core..convert..From$LT$ux..u22$GT$$u20$for$u20$ux..u23$GT$4from17h8f25d89b389b84ffE
ffffff00002d2980 T _ZN2ux10conversion72_$LT$impl$u20$core..convert..From$LT$ux..u22$GT$$u20$for$u20$ux..u24$GT$4from17ha95913cdc02c8247E
ffffff00002d2980 T _ZN2ux10conversion72_$LT$impl$u20$core..convert..From$LT$ux..u22$GT$$u20$for$u20$ux..u25$GT$4from17heca7da98fc6da542E
ffffff00002d2980 T _ZN2ux10conversion72_$LT$impl$u20$core..convert..From$LT$ux..u22$GT$$u20$for$u20$ux..u26$GT$4from17h2fb954a020a94873E
ffffff00002d2980 T _ZN2ux10conversion72_$LT$impl$u20$core..convert..From$LT$ux..u22$GT$$u20$for$u20$ux..u27$GT$4from17h53a57f4a4063fe78E
ffffff00002d2980 T _ZN2ux10conversion72_$LT$impl$u20$core..convert..From$LT$ux..u22$GT$$u20$for$u20$ux..u28$GT$4from17h8702f8fef2c7bddfE
ffffff00002d2980 T _ZN2ux10conversion72_$LT$impl$u20$core..convert..From$LT$ux..u22$GT$$u20$for$u20$ux..u29$GT$4from17hab0c3e9e111453e9E
ffffff00002d2980 T _ZN2ux10conversion72_$LT$impl$u20$core..convert..From$LT$ux..u22$GT$$u20$for$u20$ux..u30$GT$4from17h12553f8ea51c7687E
ffffff00002d2980 T _ZN2ux10conversion72_$LT$impl$u20$core..convert..From$LT$ux..u22$GT$$u20$for$u20$ux..u31$GT$4from17hf4f7f3553c9be6dfE
ffffff00002d28f0 T _ZN2ux10conversion72_$LT$impl$u20$core..convert..From$LT$ux..u22$GT$$u20$for$u20$ux..u33$GT$4from17h3dcc5a027042f788E
ffffff00002d28f0 T _ZN2ux10conversion72_$LT$impl$u20$core..convert..From$LT$ux..u22$GT$$u20$for$u20$ux..u34$GT$4from17h6fa8f53b6c469c43E
ffffff00002d28f0 T _ZN2ux10conversion72_$LT$impl$u20$core..convert..From$LT$ux..u22$GT$$u20$for$u20$ux..u35$GT$4from17he7e33d875b65ac95E
ffffff00002d28f0 T _ZN2ux10conversion72_$LT$impl$u20$core..convert..From$LT$ux..u22$GT$$u20$for$u20$ux..u36$GT$4from17h096c7b31e1a5b0d7E
ffffff00002d28f0 T _ZN2ux10conversion72_$LT$impl$u20$core..convert..From$LT$ux..u22$GT$$u20$for$u20$ux..u37$GT$4from17hce4c3c6296d2327fE
ffffff00002d28f0 T _ZN2ux10conversion72_$LT$impl$u20$core..convert..From$LT$ux..u22$GT$$u20$for$u20$ux..u38$GT$4from17h6bf1065dffd6d371E
ffffff00002d28f0 T _ZN2ux10conversion72_$LT$impl$u20$core..convert..From$LT$ux..u22$GT$$u20$for$u20$ux..u39$GT$4from17hbda55aaa0642cd86E
ffffff00002d28f0 T _ZN2ux10conversion72_$LT$impl$u20$core..convert..From$LT$ux..u22$GT$$u20$for$u20$ux..u40$GT$4from17h6860b3231b62578dE
ffffff00002d28f0 T _ZN2ux10conversion72_$LT$impl$u20$core..convert..From$LT$ux..u22$GT$$u20$for$u20$ux..u41$GT$4from17h8d92e70a26ebc862E
ffffff00002d28f0 T _ZN2ux10conversion72_$LT$impl$u20$core..convert..From$LT$ux..u22$GT$$u20$for$u20$ux..u42$GT$4from17hecce4966126f8e71E
ffffff00002d28f0 T _ZN2ux10conversion72_$LT$impl$u20$core..convert..From$LT$ux..u22$GT$$u20$for$u20$ux..u43$GT$4from17h21f165bb8c660493E
ffffff00002d28f0 T _ZN2ux10conversion72_$LT$impl$u20$core..convert..From$LT$ux..u22$GT$$u20$for$u20$ux..u44$GT$4from17h0f45af7a78918ab1E
ffffff00002d28f0 T _ZN2ux10conversion72_$LT$impl$u20$core..convert..From$LT$ux..u22$GT$$u20$for$u20$ux..u45$GT$4from17hca2d38765154f878E
ffffff00002d28f0 T _ZN2ux10conversion72_$LT$impl$u20$core..convert..From$LT$ux..u22$GT$$u20$for$u20$ux..u46$GT$4from17h22912df9c8e55f99E
ffffff00002d28f0 T _ZN2ux10conversion72_$LT$impl$u20$core..convert..From$LT$ux..u22$GT$$u20$for$u20$ux..u47$GT$4from17hf807391587dea52eE
ffffff00002d28f0 T _ZN2ux10conversion72_$LT$impl$u20$core..convert..From$LT$ux..u22$GT$$u20$for$u20$ux..u48$GT$4from17hdc3ed30f78ca8618E
ffffff00002d28f0 T _ZN2ux10conversion72_$LT$impl$u20$core..convert..From$LT$ux..u22$GT$$u20$for$u20$ux..u49$GT$4from17h3a2df646a1559f3bE
ffffff00002d28f0 T _ZN2ux10conversion72_$LT$impl$u20$core..convert..From$LT$ux..u22$GT$$u20$for$u20$ux..u50$GT$4from17heeea600b6e4cd384E
ffffff00002d28f0 T _ZN2ux10conversion72_$LT$impl$u20$core..convert..From$LT$ux..u22$GT$$u20$for$u20$ux..u51$GT$4from17he8efb22027b93b16E
ffffff00002d28f0 T _ZN2ux10conversion72_$LT$impl$u20$core..convert..From$LT$ux..u22$GT$$u20$for$u20$ux..u52$GT$4from17h094d763959cc1680E
ffffff00002d28f0 T _ZN2ux10conversion72_$LT$impl$u20$core..convert..From$LT$ux..u22$GT$$u20$for$u20$ux..u53$GT$4from17h7273214d58751917E
ffffff00002d28f0 T _ZN2ux10conversion72_$LT$impl$u20$core..convert..From$LT$ux..u22$GT$$u20$for$u20$ux..u54$GT$4from17he51ece2b6fe1bd37E
ffffff00002d28f0 T _ZN2ux10conversion72_$LT$impl$u20$core..convert..From$LT$ux..u22$GT$$u20$for$u20$ux..u55$GT$4from17h0f7f0706a071960eE
ffffff00002d28f0 T _ZN2ux10conversion72_$LT$impl$u20$core..convert..From$LT$ux..u22$GT$$u20$for$u20$ux..u56$GT$4from17h4c171ab8a753e2d8E
ffffff00002d28f0 T _ZN2ux10conversion72_$LT$impl$u20$core..convert..From$LT$ux..u22$GT$$u20$for$u20$ux..u57$GT$4from17h7172897b7557faaeE
ffffff00002d28f0 T _ZN2ux10conversion72_$LT$impl$u20$core..convert..From$LT$ux..u22$GT$$u20$for$u20$ux..u58$GT$4from17h35f65fe079d7464dE
ffffff00002d28f0 T _ZN2ux10conversion72_$LT$impl$u20$core..convert..From$LT$ux..u22$GT$$u20$for$u20$ux..u59$GT$4from17hb2abef38e0fdf6b1E
ffffff00002d28f0 T _ZN2ux10conversion72_$LT$impl$u20$core..convert..From$LT$ux..u22$GT$$u20$for$u20$ux..u60$GT$4from17h91b8800247233ea6E
ffffff00002d28f0 T _ZN2ux10conversion72_$LT$impl$u20$core..convert..From$LT$ux..u22$GT$$u20$for$u20$ux..u61$GT$4from17hbc327fd6f8600149E
ffffff00002d28f0 T _ZN2ux10conversion72_$LT$impl$u20$core..convert..From$LT$ux..u22$GT$$u20$for$u20$ux..u62$GT$4from17he9a8d84ebe9faea5E
ffffff00002d28f0 T _ZN2ux10conversion72_$LT$impl$u20$core..convert..From$LT$ux..u22$GT$$u20$for$u20$ux..u63$GT$4from17h2f23f034aec366acE
ffffff00002d2980 T _ZN2ux10conversion72_$LT$impl$u20$core..convert..From$LT$ux..u23$GT$$u20$for$u20$ux..u24$GT$4from17he8a3a674036b54eaE
ffffff00002d2980 T _ZN2ux10conversion72_$LT$impl$u20$core..convert..From$LT$ux..u23$GT$$u20$for$u20$ux..u25$GT$4from17he9811da04ab475b0E
ffffff00002d2980 T _ZN2ux10conversion72_$LT$impl$u20$core..convert..From$LT$ux..u23$GT$$u20$for$u20$ux..u26$GT$4from17ha3ef73a22e209c88E
ffffff00002d2980 T _ZN2ux10conversion72_$LT$impl$u20$core..convert..From$LT$ux..u23$GT$$u20$for$u20$ux..u27$GT$4from17h7e39d5e914d4aaafE
ffffff00002d2980 T _ZN2ux10conversion72_$LT$impl$u20$core..convert..From$LT$ux..u23$GT$$u20$for$u20$ux..u28$GT$4from17h775a450e2602cb8fE
ffffff00002d2980 T _ZN2ux10conversion72_$LT$impl$u20$core..convert..From$LT$ux..u23$GT$$u20$for$u20$ux..u29$GT$4from17h26b4f525653f2691E
ffffff00002d2980 T _ZN2ux10conversion72_$LT$impl$u20$core..convert..From$LT$ux..u23$GT$$u20$for$u20$ux..u30$GT$4from17h57d85f898143b062E
ffffff00002d2980 T _ZN2ux10conversion72_$LT$impl$u20$core..convert..From$LT$ux..u23$GT$$u20$for$u20$ux..u31$GT$4from17hac8b412de15a3fb7E
ffffff00002d28f0 T _ZN2ux10conversion72_$LT$impl$u20$core..convert..From$LT$ux..u23$GT$$u20$for$u20$ux..u33$GT$4from17hd13716f560976fd4E
ffffff00002d28f0 T _ZN2ux10conversion72_$LT$impl$u20$core..convert..From$LT$ux..u23$GT$$u20$for$u20$ux..u34$GT$4from17h2ab883965670b53aE
ffffff00002d28f0 T _ZN2ux10conversion72_$LT$impl$u20$core..convert..From$LT$ux..u23$GT$$u20$for$u20$ux..u35$GT$4from17hf683da50766c25bcE
ffffff00002d28f0 T _ZN2ux10conversion72_$LT$impl$u20$core..convert..From$LT$ux..u23$GT$$u20$for$u20$ux..u36$GT$4from17hd75f1aecdb410ff0E
ffffff00002d28f0 T _ZN2ux10conversion72_$LT$impl$u20$core..convert..From$LT$ux..u23$GT$$u20$for$u20$ux..u37$GT$4from17heaf900e6f47ab408E
ffffff00002d28f0 T _ZN2ux10conversion72_$LT$impl$u20$core..convert..From$LT$ux..u23$GT$$u20$for$u20$ux..u38$GT$4from17h4d3abb56e85e0950E
ffffff00002d28f0 T _ZN2ux10conversion72_$LT$impl$u20$core..convert..From$LT$ux..u23$GT$$u20$for$u20$ux..u39$GT$4from17h63afa6e6d2d74570E
ffffff00002d28f0 T _ZN2ux10conversion72_$LT$impl$u20$core..convert..From$LT$ux..u23$GT$$u20$for$u20$ux..u40$GT$4from17h3267c5339d3584baE
ffffff00002d28f0 T _ZN2ux10conversion72_$LT$impl$u20$core..convert..From$LT$ux..u23$GT$$u20$for$u20$ux..u41$GT$4from17h4524109178be0124E
ffffff00002d28f0 T _ZN2ux10conversion72_$LT$impl$u20$core..convert..From$LT$ux..u23$GT$$u20$for$u20$ux..u42$GT$4from17hf29572525362497cE
ffffff00002d28f0 T _ZN2ux10conversion72_$LT$impl$u20$core..convert..From$LT$ux..u23$GT$$u20$for$u20$ux..u43$GT$4from17h68f0c2110532ea27E
ffffff00002d28f0 T _ZN2ux10conversion72_$LT$impl$u20$core..convert..From$LT$ux..u23$GT$$u20$for$u20$ux..u44$GT$4from17h5528557e78d51681E
ffffff00002d28f0 T _ZN2ux10conversion72_$LT$impl$u20$core..convert..From$LT$ux..u23$GT$$u20$for$u20$ux..u45$GT$4from17hcbeaaed08a124299E
ffffff00002d28f0 T _ZN2ux10conversion72_$LT$impl$u20$core..convert..From$LT$ux..u23$GT$$u20$for$u20$ux..u46$GT$4from17hc81c07121f395d33E
ffffff00002d28f0 T _ZN2ux10conversion72_$LT$impl$u20$core..convert..From$LT$ux..u23$GT$$u20$for$u20$ux..u47$GT$4from17h1ed88f99d6a117e5E
ffffff00002d28f0 T _ZN2ux10conversion72_$LT$impl$u20$core..convert..From$LT$ux..u23$GT$$u20$for$u20$ux..u48$GT$4from17h46aa8dd934a52116E
ffffff00002d28f0 T _ZN2ux10conversion72_$LT$impl$u20$core..convert..From$LT$ux..u23$GT$$u20$for$u20$ux..u49$GT$4from17h6f0aa5161bb8f102E
ffffff00002d28f0 T _ZN2ux10conversion72_$LT$impl$u20$core..convert..From$LT$ux..u23$GT$$u20$for$u20$ux..u50$GT$4from17hff18951a7f642ea6E
ffffff00002d28f0 T _ZN2ux10conversion72_$LT$impl$u20$core..convert..From$LT$ux..u23$GT$$u20$for$u20$ux..u51$GT$4from17he3925f1af4116d69E
ffffff00002d28f0 T _ZN2ux10conversion72_$LT$impl$u20$core..convert..From$LT$ux..u23$GT$$u20$for$u20$ux..u52$GT$4from17h345261c1687e0e7cE
ffffff00002d28f0 T _ZN2ux10conversion72_$LT$impl$u20$core..convert..From$LT$ux..u23$GT$$u20$for$u20$ux..u53$GT$4from17ha1ec07d2f642717aE
ffffff00002d28f0 T _ZN2ux10conversion72_$LT$impl$u20$core..convert..From$LT$ux..u23$GT$$u20$for$u20$ux..u54$GT$4from17he0bf651a76df6728E
ffffff00002d28f0 T _ZN2ux10conversion72_$LT$impl$u20$core..convert..From$LT$ux..u23$GT$$u20$for$u20$ux..u55$GT$4from17h5df71664c6cc1d0bE
ffffff00002d28f0 T _ZN2ux10conversion72_$LT$impl$u20$core..convert..From$LT$ux..u23$GT$$u20$for$u20$ux..u56$GT$4from17h63c4ac7d269385f8E
ffffff00002d28f0 T _ZN2ux10conversion72_$LT$impl$u20$core..convert..From$LT$ux..u23$GT$$u20$for$u20$ux..u57$GT$4from17h971f1ec23e7884d4E
ffffff00002d28f0 T _ZN2ux10conversion72_$LT$impl$u20$core..convert..From$LT$ux..u23$GT$$u20$for$u20$ux..u58$GT$4from17h9b4f6870014f358cE
ffffff00002d28f0 T _ZN2ux10conversion72_$LT$impl$u20$core..convert..From$LT$ux..u23$GT$$u20$for$u20$ux..u59$GT$4from17h87be9de87ca39333E
ffffff00002d28f0 T _ZN2ux10conversion72_$LT$impl$u20$core..convert..From$LT$ux..u23$GT$$u20$for$u20$ux..u60$GT$4from17h89b653f61cc85c3bE
ffffff00002d28f0 T _ZN2ux10conversion72_$LT$impl$u20$core..convert..From$LT$ux..u23$GT$$u20$for$u20$ux..u61$GT$4from17h4eaf348028903329E
ffffff00002d28f0 T _ZN2ux10conversion72_$LT$impl$u20$core..convert..From$LT$ux..u23$GT$$u20$for$u20$ux..u62$GT$4from17h1138cc6056beb805E
ffffff00002d28f0 T _ZN2ux10conversion72_$LT$impl$u20$core..convert..From$LT$ux..u23$GT$$u20$for$u20$ux..u63$GT$4from17h6098c0239e31a761E
ffffff00002d2980 T _ZN2ux10conversion72_$LT$impl$u20$core..convert..From$LT$ux..u24$GT$$u20$for$u20$ux..u25$GT$4from17h6fb881ad6576e4e3E
ffffff00002d2980 T _ZN2ux10conversion72_$LT$impl$u20$core..convert..From$LT$ux..u24$GT$$u20$for$u20$ux..u26$GT$4from17hff9ccfaeef3f6d88E
ffffff00002d2980 T _ZN2ux10conversion72_$LT$impl$u20$core..convert..From$LT$ux..u24$GT$$u20$for$u20$ux..u27$GT$4from17h893a92d37318db92E
ffffff00002d2980 T _ZN2ux10conversion72_$LT$impl$u20$core..convert..From$LT$ux..u24$GT$$u20$for$u20$ux..u28$GT$4from17hb725e43e681781d1E
ffffff00002d2980 T _ZN2ux10conversion72_$LT$impl$u20$core..convert..From$LT$ux..u24$GT$$u20$for$u20$ux..u29$GT$4from17h19a6ca0b1dfe76e2E
ffffff00002d2980 T _ZN2ux10conversion72_$LT$impl$u20$core..convert..From$LT$ux..u24$GT$$u20$for$u20$ux..u30$GT$4from17haabefac0d92181dcE
ffffff00002d2980 T _ZN2ux10conversion72_$LT$impl$u20$core..convert..From$LT$ux..u24$GT$$u20$for$u20$ux..u31$GT$4from17h4509b0afd44f6e58E
ffffff00002d28f0 T _ZN2ux10conversion72_$LT$impl$u20$core..convert..From$LT$ux..u24$GT$$u20$for$u20$ux..u33$GT$4from17h517d32e4ab2dd5aeE
ffffff00002d28f0 T _ZN2ux10conversion72_$LT$impl$u20$core..convert..From$LT$ux..u24$GT$$u20$for$u20$ux..u34$GT$4from17hdf429b47f08dc679E
ffffff00002d28f0 T _ZN2ux10conversion72_$LT$impl$u20$core..convert..From$LT$ux..u24$GT$$u20$for$u20$ux..u35$GT$4from17h626380118bdb4ae2E
ffffff00002d28f0 T _ZN2ux10conversion72_$LT$impl$u20$core..convert..From$LT$ux..u24$GT$$u20$for$u20$ux..u36$GT$4from17hdd5e84ed48e0b56cE
ffffff00002d28f0 T _ZN2ux10conversion72_$LT$impl$u20$core..convert..From$LT$ux..u24$GT$$u20$for$u20$ux..u37$GT$4from17h9b2c9aeff16e2d5eE
ffffff00002d28f0 T _ZN2ux10conversion72_$LT$impl$u20$core..convert..From$LT$ux..u24$GT$$u20$for$u20$ux..u38$GT$4from17h77b114a35d6d2181E
ffffff00002d28f0 T _ZN2ux10conversion72_$LT$impl$u20$core..convert..From$LT$ux..u24$GT$$u20$for$u20$ux..u39$GT$4from17h281a478c94b1c99dE
ffffff00002d28f0 T _ZN2ux10conversion72_$LT$impl$u20$core..convert..From$LT$ux..u24$GT$$u20$for$u20$ux..u40$GT$4from17he422d6721948c026E
ffffff00002d28f0 T _ZN2ux10conversion72_$LT$impl$u20$core..convert..From$LT$ux..u24$GT$$u20$for$u20$ux..u41$GT$4from17h8e4d6b31648b0edcE
ffffff00002d28f0 T _ZN2ux10conversion72_$LT$impl$u20$core..convert..From$LT$ux..u24$GT$$u20$for$u20$ux..u42$GT$4from17h95c11141f8737d99E
ffffff00002d28f0 T _ZN2ux10conversion72_$LT$impl$u20$core..convert..From$LT$ux..u24$GT$$u20$for$u20$ux..u43$GT$4from17h68abb1a8161da2e4E
ffffff00002d28f0 T _ZN2ux10conversion72_$LT$impl$u20$core..convert..From$LT$ux..u24$GT$$u20$for$u20$ux..u44$GT$4from17h4be0584408c8fc29E
ffffff00002d28f0 T _ZN2ux10conversion72_$LT$impl$u20$core..convert..From$LT$ux..u24$GT$$u20$for$u20$ux..u45$GT$4from17h17b20437bfa01876E
ffffff00002d28f0 T _ZN2ux10conversion72_$LT$impl$u20$core..convert..From$LT$ux..u24$GT$$u20$for$u20$ux..u46$GT$4from17h57a80270aea1d55aE
ffffff00002d28f0 T _ZN2ux10conversion72_$LT$impl$u20$core..convert..From$LT$ux..u24$GT$$u20$for$u20$ux..u47$GT$4from17haa25704e15eea141E
ffffff00002d28f0 T _ZN2ux10conversion72_$LT$impl$u20$core..convert..From$LT$ux..u24$GT$$u20$for$u20$ux..u48$GT$4from17h563e9e7a74c1aa1aE
ffffff00002d28f0 T _ZN2ux10conversion72_$LT$impl$u20$core..convert..From$LT$ux..u24$GT$$u20$for$u20$ux..u49$GT$4from17h4578c539cdd7d70fE
ffffff00002d28f0 T _ZN2ux10conversion72_$LT$impl$u20$core..convert..From$LT$ux..u24$GT$$u20$for$u20$ux..u50$GT$4from17h318548b31e84a8bbE
ffffff00002d28f0 T _ZN2ux10conversion72_$LT$impl$u20$core..convert..From$LT$ux..u24$GT$$u20$for$u20$ux..u51$GT$4from17hef00d888b7f53bc2E
ffffff00002d28f0 T _ZN2ux10conversion72_$LT$impl$u20$core..convert..From$LT$ux..u24$GT$$u20$for$u20$ux..u52$GT$4from17he7ffd54d8aa68bbaE
ffffff00002d28f0 T _ZN2ux10conversion72_$LT$impl$u20$core..convert..From$LT$ux..u24$GT$$u20$for$u20$ux..u53$GT$4from17h5b5b938de01ef1b0E
ffffff00002d28f0 T _ZN2ux10conversion72_$LT$impl$u20$core..convert..From$LT$ux..u24$GT$$u20$for$u20$ux..u54$GT$4from17h13ceb947b4edf533E
ffffff00002d28f0 T _ZN2ux10conversion72_$LT$impl$u20$core..convert..From$LT$ux..u24$GT$$u20$for$u20$ux..u55$GT$4from17h95fa0cd30687db20E
ffffff00002d28f0 T _ZN2ux10conversion72_$LT$impl$u20$core..convert..From$LT$ux..u24$GT$$u20$for$u20$ux..u56$GT$4from17h93744f7b554f69f2E
ffffff00002d28f0 T _ZN2ux10conversion72_$LT$impl$u20$core..convert..From$LT$ux..u24$GT$$u20$for$u20$ux..u57$GT$4from17he9c14bc1dc2c904bE
ffffff00002d28f0 T _ZN2ux10conversion72_$LT$impl$u20$core..convert..From$LT$ux..u24$GT$$u20$for$u20$ux..u58$GT$4from17hced8d81dc699d0faE
ffffff00002d28f0 T _ZN2ux10conversion72_$LT$impl$u20$core..convert..From$LT$ux..u24$GT$$u20$for$u20$ux..u59$GT$4from17h8a603ebbdeff3666E
ffffff00002d28f0 T _ZN2ux10conversion72_$LT$impl$u20$core..convert..From$LT$ux..u24$GT$$u20$for$u20$ux..u60$GT$4from17hb473f6260ca63a0cE
ffffff00002d28f0 T _ZN2ux10conversion72_$LT$impl$u20$core..convert..From$LT$ux..u24$GT$$u20$for$u20$ux..u61$GT$4from17h09749884f83f5774E
ffffff00002d28f0 T _ZN2ux10conversion72_$LT$impl$u20$core..convert..From$LT$ux..u24$GT$$u20$for$u20$ux..u62$GT$4from17h294647a5f8f24351E
ffffff00002d28f0 T _ZN2ux10conversion72_$LT$impl$u20$core..convert..From$LT$ux..u24$GT$$u20$for$u20$ux..u63$GT$4from17h0c16f20da5be353eE
ffffff00002d2980 T _ZN2ux10conversion72_$LT$impl$u20$core..convert..From$LT$ux..u25$GT$$u20$for$u20$ux..u26$GT$4from17h5b687f46873255b1E
ffffff00002d2980 T _ZN2ux10conversion72_$LT$impl$u20$core..convert..From$LT$ux..u25$GT$$u20$for$u20$ux..u27$GT$4from17he2c07de3bf28e850E
ffffff00002d2980 T _ZN2ux10conversion72_$LT$impl$u20$core..convert..From$LT$ux..u25$GT$$u20$for$u20$ux..u28$GT$4from17h90f926d69c55e454E
ffffff00002d2980 T _ZN2ux10conversion72_$LT$impl$u20$core..convert..From$LT$ux..u25$GT$$u20$for$u20$ux..u29$GT$4from17h4a1e16d4938aa223E
ffffff00002d2980 T _ZN2ux10conversion72_$LT$impl$u20$core..convert..From$LT$ux..u25$GT$$u20$for$u20$ux..u30$GT$4from17h886c509d3685bb41E
ffffff00002d2980 T _ZN2ux10conversion72_$LT$impl$u20$core..convert..From$LT$ux..u25$GT$$u20$for$u20$ux..u31$GT$4from17h7b42a4f245e948d4E
ffffff00002d28f0 T _ZN2ux10conversion72_$LT$impl$u20$core..convert..From$LT$ux..u25$GT$$u20$for$u20$ux..u33$GT$4from17h3d33d6f6bb83e9feE
ffffff00002d28f0 T _ZN2ux10conversion72_$LT$impl$u20$core..convert..From$LT$ux..u25$GT$$u20$for$u20$ux..u34$GT$4from17h279d7228cfb996deE
ffffff00002d28f0 T _ZN2ux10conversion72_$LT$impl$u20$core..convert..From$LT$ux..u25$GT$$u20$for$u20$ux..u35$GT$4from17h76c6757d2ae2f670E
ffffff00002d28f0 T _ZN2ux10conversion72_$LT$impl$u20$core..convert..From$LT$ux..u25$GT$$u20$for$u20$ux..u36$GT$4from17h34128d145b27b6d1E
ffffff00002d28f0 T _ZN2ux10conversion72_$LT$impl$u20$core..convert..From$LT$ux..u25$GT$$u20$for$u20$ux..u37$GT$4from17h532209ebd6261338E
ffffff00002d28f0 T _ZN2ux10conversion72_$LT$impl$u20$core..convert..From$LT$ux..u25$GT$$u20$for$u20$ux..u38$GT$4from17h4c45e45cc0f5bfc8E
ffffff00002d28f0 T _ZN2ux10conversion72_$LT$impl$u20$core..convert..From$LT$ux..u25$GT$$u20$for$u20$ux..u39$GT$4from17h222d0bdd3ad2625eE
ffffff00002d28f0 T _ZN2ux10conversion72_$LT$impl$u20$core..convert..From$LT$ux..u25$GT$$u20$for$u20$ux..u40$GT$4from17hd6669cd35ea6b0b1E
ffffff00002d28f0 T _ZN2ux10conversion72_$LT$impl$u20$core..convert..From$LT$ux..u25$GT$$u20$for$u20$ux..u41$GT$4from17h6da157762dc0ea67E
ffffff00002d28f0 T _ZN2ux10conversion72_$LT$impl$u20$core..convert..From$LT$ux..u25$GT$$u20$for$u20$ux..u42$GT$4from17hebb220d0f9b8f246E
ffffff00002d28f0 T _ZN2ux10conversion72_$LT$impl$u20$core..convert..From$LT$ux..u25$GT$$u20$for$u20$ux..u43$GT$4from17hf6dfdea4dcea7accE
ffffff00002d28f0 T _ZN2ux10conversion72_$LT$impl$u20$core..convert..From$LT$ux..u25$GT$$u20$for$u20$ux..u44$GT$4from17h3f857c18f5afffb6E
ffffff00002d28f0 T _ZN2ux10conversion72_$LT$impl$u20$core..convert..From$LT$ux..u25$GT$$u20$for$u20$ux..u45$GT$4from17haa026008b21431e0E
ffffff00002d28f0 T _ZN2ux10conversion72_$LT$impl$u20$core..convert..From$LT$ux..u25$GT$$u20$for$u20$ux..u46$GT$4from17h24f4dad450fa9ac0E
ffffff00002d28f0 T _ZN2ux10conversion72_$LT$impl$u20$core..convert..From$LT$ux..u25$GT$$u20$for$u20$ux..u47$GT$4from17h2da84d7d41376901E
ffffff00002d28f0 T _ZN2ux10conversion72_$LT$impl$u20$core..convert..From$LT$ux..u25$GT$$u20$for$u20$ux..u48$GT$4from17h968a000f3f0f3a83E
ffffff00002d28f0 T _ZN2ux10conversion72_$LT$impl$u20$core..convert..From$LT$ux..u25$GT$$u20$for$u20$ux..u49$GT$4from17h05bebbc0b2204243E
ffffff00002d28f0 T _ZN2ux10conversion72_$LT$impl$u20$core..convert..From$LT$ux..u25$GT$$u20$for$u20$ux..u50$GT$4from17he78c2f986fdb2c70E
ffffff00002d28f0 T _ZN2ux10conversion72_$LT$impl$u20$core..convert..From$LT$ux..u25$GT$$u20$for$u20$ux..u51$GT$4from17hf93f4057738bb48fE
ffffff00002d28f0 T _ZN2ux10conversion72_$LT$impl$u20$core..convert..From$LT$ux..u25$GT$$u20$for$u20$ux..u52$GT$4from17h6bc88f0a4346fd84E
ffffff00002d28f0 T _ZN2ux10conversion72_$LT$impl$u20$core..convert..From$LT$ux..u25$GT$$u20$for$u20$ux..u53$GT$4from17h0d84e837ee04d721E
ffffff00002d28f0 T _ZN2ux10conversion72_$LT$impl$u20$core..convert..From$LT$ux..u25$GT$$u20$for$u20$ux..u54$GT$4from17h061aa509e86ebfe7E
ffffff00002d28f0 T _ZN2ux10conversion72_$LT$impl$u20$core..convert..From$LT$ux..u25$GT$$u20$for$u20$ux..u55$GT$4from17h397563915c154c9fE
ffffff00002d28f0 T _ZN2ux10conversion72_$LT$impl$u20$core..convert..From$LT$ux..u25$GT$$u20$for$u20$ux..u56$GT$4from17h8f13e11f8f76bd06E
ffffff00002d28f0 T _ZN2ux10conversion72_$LT$impl$u20$core..convert..From$LT$ux..u25$GT$$u20$for$u20$ux..u57$GT$4from17h707a372630639048E
ffffff00002d28f0 T _ZN2ux10conversion72_$LT$impl$u20$core..convert..From$LT$ux..u25$GT$$u20$for$u20$ux..u58$GT$4from17h03ed7a81f83f8050E
ffffff00002d28f0 T _ZN2ux10conversion72_$LT$impl$u20$core..convert..From$LT$ux..u25$GT$$u20$for$u20$ux..u59$GT$4from17h0e2f503cab91e155E
ffffff00002d28f0 T _ZN2ux10conversion72_$LT$impl$u20$core..convert..From$LT$ux..u25$GT$$u20$for$u20$ux..u60$GT$4from17h8b455d2b83f61953E
ffffff00002d28f0 T _ZN2ux10conversion72_$LT$impl$u20$core..convert..From$LT$ux..u25$GT$$u20$for$u20$ux..u61$GT$4from17h9c58a70db612024dE
ffffff00002d28f0 T _ZN2ux10conversion72_$LT$impl$u20$core..convert..From$LT$ux..u25$GT$$u20$for$u20$ux..u62$GT$4from17h67e12951434d1fb8E
ffffff00002d28f0 T _ZN2ux10conversion72_$LT$impl$u20$core..convert..From$LT$ux..u25$GT$$u20$for$u20$ux..u63$GT$4from17hfd09e9c99cc7a007E
ffffff00002d2980 T _ZN2ux10conversion72_$LT$impl$u20$core..convert..From$LT$ux..u26$GT$$u20$for$u20$ux..u27$GT$4from17hdf0a50dada85c976E
ffffff00002d2980 T _ZN2ux10conversion72_$LT$impl$u20$core..convert..From$LT$ux..u26$GT$$u20$for$u20$ux..u28$GT$4from17h1bdad4e962b5d75cE
ffffff00002d2980 T _ZN2ux10conversion72_$LT$impl$u20$core..convert..From$LT$ux..u26$GT$$u20$for$u20$ux..u29$GT$4from17h84f4ae71803a83ebE
ffffff00002d2980 T _ZN2ux10conversion72_$LT$impl$u20$core..convert..From$LT$ux..u26$GT$$u20$for$u20$ux..u30$GT$4from17h0edc156c7e9bc53eE
ffffff00002d2980 T _ZN2ux10conversion72_$LT$impl$u20$core..convert..From$LT$ux..u26$GT$$u20$for$u20$ux..u31$GT$4from17h53511af440d8a5c7E
ffffff00002d28f0 T _ZN2ux10conversion72_$LT$impl$u20$core..convert..From$LT$ux..u26$GT$$u20$for$u20$ux..u33$GT$4from17h242100c9e9843700E
ffffff00002d28f0 T _ZN2ux10conversion72_$LT$impl$u20$core..convert..From$LT$ux..u26$GT$$u20$for$u20$ux..u34$GT$4from17h06e1b9c6d16a31d2E
ffffff00002d28f0 T _ZN2ux10conversion72_$LT$impl$u20$core..convert..From$LT$ux..u26$GT$$u20$for$u20$ux..u35$GT$4from17h572c5e14ad61880cE
ffffff00002d28f0 T _ZN2ux10conversion72_$LT$impl$u20$core..convert..From$LT$ux..u26$GT$$u20$for$u20$ux..u36$GT$4from17h0e04986f6890b726E
ffffff00002d28f0 T _ZN2ux10conversion72_$LT$impl$u20$core..convert..From$LT$ux..u26$GT$$u20$for$u20$ux..u37$GT$4from17h3bc7b1f13feea824E
ffffff00002d28f0 T _ZN2ux10conversion72_$LT$impl$u20$core..convert..From$LT$ux..u26$GT$$u20$for$u20$ux..u38$GT$4from17h2ef1a99e1d0e7c9dE
ffffff00002d28f0 T _ZN2ux10conversion72_$LT$impl$u20$core..convert..From$LT$ux..u26$GT$$u20$for$u20$ux..u39$GT$4from17h3b66646b99e6aedfE
ffffff00002d28f0 T _ZN2ux10conversion72_$LT$impl$u20$core..convert..From$LT$ux..u26$GT$$u20$for$u20$ux..u40$GT$4from17h5989fb281daff34cE
ffffff00002d28f0 T _ZN2ux10conversion72_$LT$impl$u20$core..convert..From$LT$ux..u26$GT$$u20$for$u20$ux..u41$GT$4from17hc2c76aaa6ff9af68E
